BL51 BANKED LINKER/LOCATER V6.22.2.0                                                    01/18/2022  14:53:23  PAGE 1


BL51 BANKED LINKER/LOCATER V6.22.2.0, INVOKED BY:
D:\KEIL_V5\C51\BIN\BL51.EXE .\Objects\STARTUP.obj, .\Objects\main.obj, .\Objects\Driver.obj, .\Objects\LCD12864.obj, .\O
>> bjects\GSM.obj, .\Objects\NameList.obj, .\Objects\Eeprom.obj, .\Objects\SysStatus.obj, .\Objects\UnlockPassword.obj, 
>> .\Objects\SysString.obj, .\Objects\Card.obj, .\Objects\CardRead.obj, .\Objects\Audio.obj, .\Objects\UART.obj, .\Objec
>> ts\timer.obj, .\Objects\GPIO.obj, .\Objects\Exti.obj, .\Objects\spi.obj TO .\Objects\GSM PRINT (.\Listings\GSM.m51) R
>> AMSIZE (256)


MEMORY MODEL: LARGE


INPUT MODULES INCLUDED:
  .\Objects\STARTUP.obj (?C_STARTUP)
  .\Objects\main.obj (MAIN)
  .\Objects\Driver.obj (DRIVER)
  .\Objects\LCD12864.obj (LCD12864)
  .\Objects\GSM.obj (GSM)
  .\Objects\NameList.obj (NAMELIST)
  .\Objects\Eeprom.obj (EEPROM)
  .\Objects\SysStatus.obj (SYSSTATUS)
  .\Objects\UnlockPassword.obj (UNLOCKPASSWORD)
  .\Objects\SysString.obj (SYSSTRING)
  .\Objects\Card.obj (CARD)
  .\Objects\CardRead.obj (CARDREAD)
  .\Objects\Audio.obj (AUDIO)
  .\Objects\UART.obj (UART)
  .\Objects\timer.obj (TIMER)
  .\Objects\GPIO.obj (GPIO)
  .\Objects\Exti.obj (EXTI)
  .\Objects\spi.obj (SPI)
  D:\KEIL_V5\C51\LIB\C51L.LIB (?C_INIT)
  D:\KEIL_V5\C51\LIB\C51L.LIB (?C?COPY)
  D:\KEIL_V5\C51\LIB\C51L.LIB (?C?CLDPTR)
  D:\KEIL_V5\C51\LIB\C51L.LIB (?C?CLDOPTR)
  D:\KEIL_V5\C51\LIB\C51L.LIB (?C?CSTPTR)
  D:\KEIL_V5\C51\LIB\C51L.LIB (?C?CSTOPTR)
  D:\KEIL_V5\C51\LIB\C51L.LIB (?C?IMUL)
  D:\KEIL_V5\C51\LIB\C51L.LIB (?C?UIDIV)
  D:\KEIL_V5\C51\LIB\C51L.LIB (?C?IILDX)
  D:\KEIL_V5\C51\LIB\C51L.LIB (?C?ILDIX)
  D:\KEIL_V5\C51\LIB\C51L.LIB (?C?ILDPTR)
  D:\KEIL_V5\C51\LIB\C51L.LIB (?C?ILDOPTR)
  D:\KEIL_V5\C51\LIB\C51L.LIB (?C?LMUL)
  D:\KEIL_V5\C51\LIB\C51L.LIB (?C?ULDIV)
  D:\KEIL_V5\C51\LIB\C51L.LIB (?C?ULCMP)
  D:\KEIL_V5\C51\LIB\C51L.LIB (?C?ULSHR)
  D:\KEIL_V5\C51\LIB\C51L.LIB (?C?LSHL)
  D:\KEIL_V5\C51\LIB\C51L.LIB (?C?LLDOPTR)
  D:\KEIL_V5\C51\LIB\C51L.LIB (?C?LLDOPTR0)
  D:\KEIL_V5\C51\LIB\C51L.LIB (?C?LSTXDATA)
  D:\KEIL_V5\C51\LIB\C51L.LIB (?C?LSTKXDATA)
  D:\KEIL_V5\C51\LIB\C51L.LIB (?C?OFFXADD)
  D:\KEIL_V5\C51\LIB\C51L.LIB (?C?CCASE)
  D:\KEIL_V5\C51\LIB\C51L.LIB (?C?ICALL)
  D:\KEIL_V5\C51\LIB\C51L.LIB (PRINTF)
  D:\KEIL_V5\C51\LIB\C51L.LIB (SCANF)
  D:\KEIL_V5\C51\LIB\C51L.LIB (?C?ISTPTR)
  D:\KEIL_V5\C51\LIB\C51L.LIB (?C?LNEG)
BL51 BANKED LINKER/LOCATER V6.22.2.0                                                  01/18/2022  14:53:23  PAGE 2


  D:\KEIL_V5\C51\LIB\C51L.LIB (?C?LSTPTR)
  D:\KEIL_V5\C51\LIB\C51L.LIB (?C?LLDIDATA)
  D:\KEIL_V5\C51\LIB\C51L.LIB (?C?LLDXDATA)
  D:\KEIL_V5\C51\LIB\C51L.LIB (?C?LLDPDATA)
  D:\KEIL_V5\C51\LIB\C51L.LIB (?C?LLDCODE)
  D:\KEIL_V5\C51\LIB\C51L.LIB (?C?LLDIDATA0)
  D:\KEIL_V5\C51\LIB\C51L.LIB (?C?LLDXDATA0)
  D:\KEIL_V5\C51\LIB\C51L.LIB (?C?LLDPDATA0)
  D:\KEIL_V5\C51\LIB\C51L.LIB (?C?LLDCODE0)
  D:\KEIL_V5\C51\LIB\C51L.LIB (?C?PLDXDATA)
  D:\KEIL_V5\C51\LIB\C51L.LIB (?C?PLDIXDATA)
  D:\KEIL_V5\C51\LIB\C51L.LIB (?C?PILDXDATA)
  D:\KEIL_V5\C51\LIB\C51L.LIB (?C?PSTXDATA)
  D:\KEIL_V5\C51\LIB\C51L.LIB (GETCHAR)
  D:\KEIL_V5\C51\LIB\C51L.LIB (UNGETC)
  D:\KEIL_V5\C51\LIB\C51L.LIB (ISSPACE)
  D:\KEIL_V5\C51\LIB\C51L.LIB (?C?LSTIDATA)
  D:\KEIL_V5\C51\LIB\C51L.LIB (?C?LSTPDATA)
  D:\KEIL_V5\C51\LIB\C51L.LIB (_GETKEY)


LINK MAP OF MODULE:  .\Objects\GSM (?C_STARTUP)


            TYPE    BASE      LENGTH    RELOCATION   SEGMENT NAME
            -----------------------------------------------------

            * * * * * * *   D A T A   M E M O R Y   * * * * * * *
            REG     0000H     0008H     ABSOLUTE     "REG BANK 0"
            DATA    0008H     0005H     UNIT         _DATA_GROUP_
                    000DH     0013H                  *** GAP ***
            BIT     0020H.0   0001H.2   UNIT         _BIT_GROUP_
            BIT     0021H.2   0000H.3   UNIT         ?BI?GSM
            BIT     0021H.5   0000H.3   UNIT         ?BI?UNLOCKPASSWORD
            BIT     0022H.0   0000H.3   UNIT         ?BI?CARDREAD
            BIT     0022H.3   0000H.3   UNIT         ?BI?AUDIO
            BIT     0022H.6   0000H.2   UNIT         ?BI?LCD12864
            BIT     0023H.0   0000H.2   UNIT         ?BI?CARD
            BIT     0023H.2   0000H.1   UNIT         ?BI?NAMELIST
            BIT     0023H.3   0000H.1   UNIT         ?BI?TIMER
            BIT     0023H.4   0000H.1   UNIT         ?BI?SPI
            BIT     0023H.5   0000H.1   UNIT         ?BI?GETCHAR
                    0023H.6   0000H.2                *** GAP ***
            IDATA   0024H     0001H     UNIT         ?STACK

            * * * * * * *  X D A T A   M E M O R Y  * * * * * * *
            XDATA   0000H     089EH     UNIT         ?XD?AUDIO
            XDATA   089EH     0406H     UNIT         ?XD?LCD12864
            XDATA   0CA4H     03D8H     UNIT         ?XD?UART
            XDATA   107CH     00D1H     UNIT         _XDATA_GROUP_
            XDATA   114DH     0082H     UNIT         ?XD?SPI
            XDATA   11CFH     007AH     UNIT         ?XD?SYSSTATUS
            XDATA   1249H     0074H     UNIT         ?XD?GSM
            XDATA   12BDH     0056H     UNIT         ?XD?NAMELIST
            XDATA   1313H     0052H     UNIT         ?XD?CARDREAD
            XDATA   1365H     0014H     UNIT         ?XD?SYSSTRING
            XDATA   1379H     000CH     UNIT         ?XD?UNLOCKPASSWORD
BL51 BANKED LINKER/LOCATER V6.22.2.0                                                  01/18/2022  14:53:23  PAGE 3


            XDATA   1385H     000BH     UNIT         ?XD?DRIVER
            XDATA   1390H     0008H     UNIT         ?XD?CARD
            XDATA   1398H     0005H     UNIT         ?XD?_GETPSWBYROOM?UNLOCKPASSWORD
            XDATA   139DH     0003H     UNIT         ?XD?MAIN
            XDATA   13A0H     0003H     UNIT         ?XD?_DISPLAYCSQ?LCD12864
            XDATA   13A3H     0001H     UNIT         ?XD?TIMER
            XDATA   13A4H     0001H     UNIT         ?XD?GETCHAR

            * * * * * * *   C O D E   M E M O R Y   * * * * * * *
            CODE    0000H     0003H     ABSOLUTE     
            CODE    0003H     0003H     ABSOLUTE     
                    0006H     0005H                  *** GAP ***
            CODE    000BH     0003H     ABSOLUTE     
            CODE    000EH     000AH     UNIT         ?PR?CLEARNAMELIST?NAMELIST
                    0018H     0003H                  *** GAP ***
            CODE    001BH     0003H     ABSOLUTE     
                    001EH     0005H                  *** GAP ***
            CODE    0023H     0003H     ABSOLUTE     
            CODE    0026H     0025H     UNIT         ?PR?_UNLOCK?DRIVER
            CODE    004BH     0003H     ABSOLUTE     
            CODE    004EH     003DH     UNIT         ?PR?TIMER0_INT?TIMER
            CODE    008BH     0003H     ABSOLUTE     
            CODE    008EH     0015H     UNIT         ?PR?IIC_NACK?EEPROM
            CODE    00A3H     0003H     ABSOLUTE     
            CODE    00A6H     0840H     UNIT         ?CO?LCD12864
            CODE    08E6H     0598H     UNIT         ?C?LIB_CODE
            CODE    0E7EH     0516H     UNIT         ?PR?CHECKRFIDCARD?CARDREAD
            CODE    1394H     04E4H     UNIT         ?PR?_REVNAMELIST?NAMELIST
            CODE    1878H     04C9H     UNIT         ?PR?_NAMEEDITKEY?NAMELIST
            CODE    1D41H     0496H     UNIT         ?PR?_UART_CONFIGURATION?UART
            CODE    21D7H     0484H     UNIT         ?CO?SYSSTRING
            CODE    265BH     0446H     UNIT         ?PR?_PSWEDITKEY?UNLOCKPASSWORD
            CODE    2AA1H     040BH     UNIT         ?PR?_MODEMRECEIVEHANDLE?GSM
            CODE    2EACH     0365H     UNIT         ?PR?PRINTF?PRINTF
            CODE    3211H     035DH     UNIT         ?CO?GSM
            CODE    356EH     0339H     UNIT         ?PR?GSM_INITTASK?GSM
            CODE    38A7H     0326H     UNIT         ?PR?_SHOWPSW?UNLOCKPASSWORD
            CODE    3BCDH     0322H     UNIT         ?PR?SCANF?SCANF
            CODE    3EEFH     02DBH     UNIT         ?PR?_SYSPSWEDITKEY?UNLOCKPASSWORD
            CODE    41CAH     027DH     UNIT         ?PR?_SHOWNAME?NAMELIST
            CODE    4447H     0277H     UNIT         ?PR?_GPIO_INILIZE?GPIO
            CODE    46BEH     0252H     UNIT         ?PR?_SHOWCARD?CARD
            CODE    4910H     0240H     UNIT         ?PR?_NAMEDELETEKEY?NAMELIST
            CODE    4B50H     023CH     UNIT         ?C_INITSEG
            CODE    4D8CH     0225H     UNIT         ?PR?MAIN?MAIN
            CODE    4FB1H     021DH     UNIT         ?PR?_TIMER_INILIZE?TIMER
            CODE    51CEH     01E5H     UNIT         ?PR?SHOWSUBPARA?SYSSTATUS
            CODE    53B3H     01CEH     UNIT         ?PR?_SAVESUBPARA?SYSSTATUS
            CODE    5581H     01C9H     UNIT         ?PR?_CARDDELETEKEY?CARD
            CODE    574AH     01C3H     UNIT         ?PR?_CARDEDITKEY?CARD
            CODE    590DH     01BBH     UNIT         ?PR?_PSWDELETEKEY?UNLOCKPASSWORD
            CODE    5AC8H     01A1H     UNIT         ?PR?_SYSSUBSETKEY?SYSSTATUS
            CODE    5C69H     0186H     UNIT         ?PR?_ATCMDCB_CPIN?GSM
            CODE    5DEFH     0183H     UNIT         ?PR?WAVREADTASK?AUDIO
            CODE    5F72H     017EH     UNIT         ?PR?_SYSKEY?SYSSTATUS
            CODE    60F0H     017DH     UNIT         ?PR?_ATCMDCB_CREG?GSM
            CODE    626DH     0173H     UNIT         ?PR?_SUBSETCON?SYSSTATUS
BL51 BANKED LINKER/LOCATER V6.22.2.0                                                  01/18/2022  14:53:23  PAGE 4


            CODE    63E0H     016EH     UNIT         ?PR?_ATCMDCB_CSQ?GSM
            CODE    654EH     015DH     UNIT         ?PR?_WRITELCD?LCD12864
            CODE    66ABH     0159H     UNIT         ?PR?_PSWINPUTKEY?UNLOCKPASSWORD
            CODE    6804H     0151H     UNIT         ?PR?_SYSIDLEKEY?SYSSTATUS
            CODE    6955H     013FH     UNIT         ?PR?SKEYSCAN?DRIVER
            CODE    6A94H     013FH     UNIT         ?PR?CARDIRQ?CARDREAD
            CODE    6BD3H     0133H     UNIT         ?PR?INITSYSPARA?SYSSTATUS
            CODE    6D06H     012AH     UNIT         ?PR?_GSMUARTCMD?GSM
            CODE    6E30H     011DH     UNIT         ?PR?KEYSCAN?DRIVER
            CODE    6F4DH     010EH     UNIT         ?PR?_INPUTSYSPSW?SYSSTATUS
            CODE    705BH     010AH     UNIT         ?PR?_SYSINPUTROOM?SYSSTATUS
            CODE    7165H     00FDH     UNIT         ?CO?NAMELIST
            CODE    7262H     00F8H     UNIT         ?PR?_LOOKFORSTR?DRIVER
            CODE    735AH     00F0H     UNIT         ?PR?_CALLBYNAMEITEM?NAMELIST
            CODE    744AH     00EAH     UNIT         ?PR?_ADDCARDITEM?CARD
            CODE    7534H     00E8H     UNIT         ?PR?GPIO_CONFIG?DRIVER
            CODE    761CH     00E2H     UNIT         ?PR?_SYSSETTINGKEY?SYSSTATUS
            CODE    76FEH     00CBH     UNIT         ?CO?SYSSTATUS
            CODE    77C9H     00C0H     UNIT         ?PR?NAMEEDITCHAGETYPE?NAMELIST
            CODE    7889H     00ABH     UNIT         ?PR?_CHECKCARD?CARD
            CODE    7934H     00A1H     UNIT         ?PR?INITUSERPARA?SYSSTATUS
            CODE    79D5H     00A0H     UNIT         ?PR?UART3_INT?UART
            CODE    7A75H     009DH     UNIT         ?PR?_SHOWMAIN?SYSSTRING
            CODE    7B12H     009DH     UNIT         ?PR?_SPI_INIT?SPI
            CODE    7BAFH     0099H     UNIT         ?PR?SHOWGSMCSQ?SYSSTRING
            CODE    7C48H     0099H     UNIT         ?PR?_SPI_FLASH_READ?SPI
            CODE    7CE1H     0095H     UNIT         ?PR?_MP3_STARTPLAY?AUDIO
            CODE    7D76H     0093H     UNIT         ?PR?_BITBLT?LCD12864
            CODE    7E09H     0092H     UNIT         ?PR?UART1_INT?UART
            CODE    7E9BH     0091H     UNIT         ?PR?_DISPLAYFL?LCD12864
            CODE    7F2CH     008CH     UNIT         ?C_C51STARTUP
            CODE    7FB8H     008BH     UNIT         ?PR?NAMESETCON?NAMELIST
            CODE    8043H     008BH     UNIT         ?PR?_WRITEBUF_AT24C02?EEPROM
            CODE    80CEH     008BH     UNIT         ?PR?PSWSETCON?UNLOCKPASSWORD
            CODE    8159H     008BH     UNIT         ?PR?CARDSETCON?CARD
            CODE    81E4H     0085H     UNIT         ?PR?_GETIDXBYROOM?SYSSTATUS
            CODE    8269H     0083H     UNIT         ?PR?_GSM_SETVOLUM?GSM
            CODE    82ECH     0083H     UNIT         ?PR?SHOWINPUTPSW?SYSSTATUS
            CODE    836FH     0080H     UNIT         ?PR?_ADDPSWITEM?UNLOCKPASSWORD
            CODE    83EFH     0078H     UNIT         ?PR?_WRITELCDICO?LCD12864
            CODE    8467H     0078H     UNIT         ?PR?_CHECKPSW?UNLOCKPASSWORD
            CODE    84DFH     0077H     UNIT         ?PR?_ADDNAMEITEM?NAMELIST
            CODE    8556H     0077H     UNIT         ?PR?PWMTASK?AUDIO
            CODE    85CDH     0073H     UNIT         ?PR?_DISPLAYCSQ?LCD12864
            CODE    8640H     0072H     UNIT         ?PR?_EXT_INILIZE?EXTI
            CODE    86B2H     006FH     UNIT         ?PR?_DELNAMEITEMBYIDX?NAMELIST
            CODE    8721H     006FH     UNIT         ?PR?_DELPSWBYIDX?UNLOCKPASSWORD
            CODE    8790H     006FH     UNIT         ?PR?_DELCARDBYIDX?CARD
            CODE    87FFH     006BH     UNIT         ?PR?_SYSCARD?SYSSTATUS
            CODE    886AH     0067H     UNIT         ?PR?SHOWINPUTROOM?SYSSTATUS
            CODE    88D1H     0064H     UNIT         ?PR?_GSM_CALL?GSM
            CODE    8935H     0063H     UNIT         ?PR?_READBUF_AT24C02?EEPROM
            CODE    8998H     005CH     UNIT         ?PR?_SYSTALKKEY?SYSSTATUS
            CODE    89F4H     005AH     UNIT         ?PR?_HS_STRCPY?DRIVER
            CODE    8A4EH     0056H     UNIT         ?PR?UART_CONFIG?DRIVER
            CODE    8AA4H     0056H     UNIT         ?PR?_BEEP_STARTPLAY?AUDIO
            CODE    8AFAH     0054H     UNIT         ?PR?_READROOMBYIDX?SYSSTATUS
BL51 BANKED LINKER/LOCATER V6.22.2.0                                                  01/18/2022  14:53:23  PAGE 5


            CODE    8B4EH     004FH     UNIT         ?PR?TIMER_CONFIG?DRIVER
            CODE    8B9DH     004DH     UNIT         ?PR?SPI_TRANSIVION?SPI
            CODE    8BEAH     0049H     UNIT         ?PR?_GETNAMEITEMBYROOM?NAMELIST
            CODE    8C33H     0049H     UNIT         ?PR?_GETPSWBYROOM?UNLOCKPASSWORD
            CODE    8C7CH     0048H     UNIT         ?PR?UARTTASK?UART
            CODE    8CC4H     0044H     UNIT         ?PR?_HS_MEMCPY?DRIVER
            CODE    8D08H     0043H     UNIT         ?PR?_IIC_SEND_BYTE?EEPROM
            CODE    8D4BH     0043H     UNIT         ?PR?SHOWTALKTIME?SYSSTRING
            CODE    8D8EH     0040H     UNIT         ?PR?KEYBEEPTASK?AUDIO
            CODE    8DCEH     0040H     UNIT         ?PR?EXT_INT0?EXTI
            CODE    8E0EH     003BH     UNIT         ?PR?_WRITENAMEITEMBYIDX?NAMELIST
            CODE    8E49H     003BH     UNIT         ?PR?_CARDEDITCARDIN?CARD
            CODE    8E84H     003BH     UNIT         ?PR?TIMER4_INT?TIMER
            CODE    8EBFH     0038H     UNIT         ?PR?SYSSETTINGCON?SYSSTATUS
            CODE    8EF7H     0037H     UNIT         ?CO?AUDIO
            CODE    8F2EH     0036H     UNIT         ?PR?IIC_READ_BYTE?EEPROM
            CODE    8F64H     0035H     UNIT         ?CO?DRIVER
            CODE    8F99H     0033H     UNIT         ?PR?_ATCMDCB_AT?GSM
            CODE    8FCCH     0033H     UNIT         ?PR?_ATCMDCB_CLCC?GSM
            CODE    8FFFH     0033H     UNIT         ?PR?DELETECARDCON?CARD
            CODE    9032H     0033H     UNIT         ?PR?_PRINTSTRING3?UART
            CODE    9065H     0032H     UNIT         ?PR?FLASHTASK?LCD12864
            CODE    9097H     0032H     UNIT         ?PR?CARDMSTASK?CARDREAD
            CODE    90C9H     0031H     UNIT         ?PR?_WRITECARDBYIDX?CARD
            CODE    90FAH     0031H     UNIT         ?PR?_READCARDBYIDX?CARD
            CODE    912BH     0030H     UNIT         ?PR?_READNAMEITEMBYIDX?NAMELIST
            CODE    915BH     0030H     UNIT         ?PR?TIMER1_INT?TIMER
            CODE    918BH     002FH     UNIT         ?PR?_INPUTROOMCON?SYSSTATUS
            CODE    91BAH     002FH     UNIT         ?PR?MP3_STOP?AUDIO
            CODE    91E9H     002EH     UNIT         ?PR?_MEMISEMPTY?DRIVER
            CODE    9217H     002CH     UNIT         ?PR?_CLEARBUF?DRIVER
            CODE    9243H     002CH     UNIT         ?PR?_TX3_WRITE2BUFF?UART
            CODE    926FH     002BH     UNIT         ?PR?_GSM_SEND_DTMF?GSM
            CODE    929AH     002BH     UNIT         ?PR?_TX1_WRITE2BUFF?UART
            CODE    92C5H     002AH     UNIT         ?PR?GSM_GETCSQ?GSM
            CODE    92EFH     0029H     UNIT         ?PR?IIC_ACK?EEPROM
            CODE    9318H     0029H     UNIT         ?PR?SYSIDLECON?SYSSTATUS
            CODE    9341H     0029H     UNIT         ?PR?_DELCARDBYCARD?CARD
            CODE    936AH     0029H     UNIT         ?PR?SPI_CONFIG?AUDIO
            CODE    9393H     0028H     UNIT         ?PR?_WRITEPSWBYIDX?UNLOCKPASSWORD
            CODE    93BBH     0028H     UNIT         ?PR?PWM_CONFIG?AUDIO
            CODE    93E3H     0026H     UNIT         ?PR?_DELAY?DRIVER
            CODE    9409H     0026H     UNIT         ?PR?_STRLEN?DRIVER
            CODE    942FH     0025H     UNIT         ?PR?EDITNAMEITEMCON?NAMELIST
            CODE    9454H     0025H     UNIT         ?PR?DELETENAMECON?NAMELIST
            CODE    9479H     0025H     UNIT         ?PR?_DELPSWBYROOM?UNLOCKPASSWORD
            CODE    949EH     0025H     UNIT         ?PR?EDITPSWCON?UNLOCKPASSWORD
            CODE    94C3H     0025H     UNIT         ?PR?DELETEPSWCON?UNLOCKPASSWORD
            CODE    94E8H     0025H     UNIT         ?PR?EDITSYSPSWCON?UNLOCKPASSWORD
            CODE    950DH     0025H     UNIT         ?PR?_DELCARDBYROOM?CARD
            CODE    9532H     0025H     UNIT         ?PR?EDITCARDCON?CARD
            CODE    9557H     0024H     UNIT         ?CO?MAIN
            CODE    957BH     0024H     UNIT         ?PR?INIT_12864?LCD12864
            CODE    959FH     0024H     UNIT         ?PR?GSM_REPOWER?GSM
            CODE    95C3H     0024H     UNIT         ?PR?INPUTPSWCON?UNLOCKPASSWORD
            CODE    95E7H     0024H     UNIT         ?CO?UNLOCKPASSWORD
            CODE    960BH     0023H     UNIT         ?PR?SAVENAMECOUNT?NAMELIST
BL51 BANKED LINKER/LOCATER V6.22.2.0                                                  01/18/2022  14:53:23  PAGE 6


            CODE    962EH     0023H     UNIT         ?PR?SAVEPSWCOUNT?UNLOCKPASSWORD
            CODE    9651H     0023H     UNIT         ?PR?SAVECARDCOUNT?CARD
            CODE    9674H     0022H     UNIT         ?PR?_LCD_WDAT?LCD12864
            CODE    9696H     0022H     UNIT         ?PR?GSM_STARTINIT?GSM
            CODE    96B8H     0022H     UNIT         ?PR?_SHOWNAMEBYIDX?NAMELIST
            CODE    96DAH     0021H     UNIT         ?PR?_CHECKUNICODE?LCD12864
            CODE    96FBH     0021H     UNIT         ?PR?_NAMESETKEY?NAMELIST
            CODE    971CH     0021H     UNIT         ?PR?_PSWSETKEY?UNLOCKPASSWORD
            CODE    973DH     0021H     UNIT         ?PR?_CARDSETKEY?CARD
            CODE    975EH     0020H     UNIT         ?PR?LCD_BUSY?LCD12864
            CODE    977EH     0020H     UNIT         ?CO?CARDREAD
            CODE    979EH     001DH     UNIT         ?PR?INPUTSYSPSWCON?SYSSTATUS
            CODE    97BBH     001DH     UNIT         ?PR?_READPSWBYIDX?UNLOCKPASSWORD
            CODE    97D8H     001DH     UNIT         ?PR?SAVESYSPSW?UNLOCKPASSWORD
            CODE    97F5H     001BH     UNIT         ?PR?LCDCLEAR?LCD12864
            CODE    9810H     001BH     UNIT         ?PR?_SPI_READWRITEBYTE?SPI
            CODE    982BH     001AH     UNIT         ?PR?CARDREADINIT?CARDREAD
            CODE    9845H     0019H     UNIT         ?PR?EXTI_CONFIG?DRIVER
            CODE    985EH     0019H     UNIT         ?PR?RELAYTASK?DRIVER
            CODE    9877H     0019H     UNIT         ?PR?GSM_HUANGUP?GSM
            CODE    9890H     0019H     UNIT         ?PR?SHOWUNLOCK?SYSSTRING
            CODE    98A9H     0019H     UNIT         ?PR?UART1CLEAR?UART
            CODE    98C2H     0019H     UNIT         ?PR?UART3CLEAR?UART
            CODE    98DBH     0018H     UNIT         ?PR?_LCD_WCMD?LCD12864
            CODE    98F3H     0017H     UNIT         ?PR?_HBSTRLEN?DRIVER
            CODE    990AH     0017H     UNIT         ?PR?_NAMEDELALLKEY?NAMELIST
            CODE    9921H     0017H     UNIT         ?PR?_PSWDELALLKEY?UNLOCKPASSWORD
            CODE    9938H     0017H     UNIT         ?PR?_CARDDELALLKEY?CARD
            CODE    994FH     0017H     UNIT         ?CO?CARD
            CODE    9966H     0016H     UNIT         ?PR?_DISPLAYSTRING?LCD12864
            CODE    997CH     0016H     UNIT         ?PR?DELETEALLNAMECON?NAMELIST
            CODE    9992H     0016H     UNIT         ?PR?_IIC_DELAYMS?EEPROM
            CODE    99A8H     0016H     UNIT         ?PR?IIC_START?EEPROM
            CODE    99BEH     0016H     UNIT         ?PR?IIC_STOP?EEPROM
            CODE    99D4H     0016H     UNIT         ?PR?DELETEALLPSWCON?UNLOCKPASSWORD
            CODE    99EAH     0016H     UNIT         ?PR?DELETEALLCARDCON?CARD
            CODE    9A00H     0015H     UNIT         ?PR?SHOWSAVEOK?SYSSTRING
            CODE    9A15H     0015H     UNIT         ?PR?SHOWCARDERR?SYSSTRING
            CODE    9A2AH     0014H     UNIT         ?PR?GETCHAR?GETCHAR
            CODE    9A3EH     0014H     UNIT         ?PR?_ISSPACE?ISSPACE
            CODE    9A52H     0013H     UNIT         ?PR?INITNAMELIST?NAMELIST
            CODE    9A65H     0013H     UNIT         ?PR?IIC_AACK?EEPROM
            CODE    9A78H     0013H     UNIT         ?PR?INITPSW?UNLOCKPASSWORD
            CODE    9A8BH     0013H     UNIT         ?PR?INITCARD?CARD
            CODE    9A9EH     0012H     UNIT         ?PR?_DISPLAYICO?LCD12864
            CODE    9AB0H     0011H     UNIT         ?PR?_DELNAMEITEMBYROOM?NAMELIST
            CODE    9AC1H     0010H     UNIT         ?PR?LCDADDROW?LCD12864
            CODE    9AD1H     0010H     UNIT         ?PR?SHOWCONFIRMSAVE?SYSSTRING
            CODE    9AE1H     0010H     UNIT         ?PR?SHOWCONFIRMDEL?SYSSTRING
            CODE    9AF1H     0010H     UNIT         ?PR?SHOWERR?SYSSTRING
            CODE    9B01H     0010H     UNIT         ?PR?SHOWDELETEOK?SYSSTRING
            CODE    9B11H     0010H     UNIT         ?PR?SHOWGSMERR?SYSSTRING
            CODE    9B21H     0010H     UNIT         ?PR?SHOWROOMERR?SYSSTRING
            CODE    9B31H     0010H     UNIT         ?PR?SHOWRESET?SYSSTRING
            CODE    9B41H     000EH     UNIT         ?PR?_PUTCHAR?DRIVER
            CODE    9B4FH     000AH     UNIT         ?PR?CLEARPSW?UNLOCKPASSWORD
            CODE    9B59H     000AH     UNIT         ?PR?CLEARCARD?CARD
BL51 BANKED LINKER/LOCATER V6.22.2.0                                                  01/18/2022  14:53:23  PAGE 7


            CODE    9B63H     000AH     UNIT         ?PR?_GETKEY?_GETKEY
            CODE    9B6DH     0009H     UNIT         ?PR?_SETFLASH?LCD12864
            CODE    9B76H     0008H     UNIT         ?PR?GETCHAR?UNGETCHAR



OVERLAY MAP OF MODULE:   .\Objects\GSM (?C_STARTUP)


SEGMENT                                       BIT_GROUP          DATA_GROUP          XDATA_GROUP
  +--> CALLED SEGMENT                      START    LENGTH     START    LENGTH     START    LENGTH
--------------------------------------------------------------------------------------------------
?C_C51STARTUP                              -----    -----      -----    -----      -----    -----
  +--> ?PR?MAIN?MAIN
  +--> ?C_INITSEG

?PR?MAIN?MAIN                              -----    -----      -----    -----      -----    -----
  +--> ?PR?_DELAY?DRIVER
  +--> ?PR?GPIO_CONFIG?DRIVER
  +--> ?PR?TIMER_CONFIG?DRIVER
  +--> ?PR?UART_CONFIG?DRIVER
  +--> ?PR?EXTI_CONFIG?DRIVER
  +--> ?PR?SPI_CONFIG?AUDIO
  +--> ?PR?PWM_CONFIG?AUDIO
  +--> ?PR?INIT_12864?LCD12864
  +--> ?PR?INITSYSPARA?SYSSTATUS
  +--> ?PR?INITUSERPARA?SYSSTATUS
  +--> ?PR?GSM_STARTINIT?GSM
  +--> ?PR?CARDREADINIT?CARDREAD
  +--> ?PR?SYSIDLECON?SYSSTATUS
  +--> ?PR?_REVNAMELIST?NAMELIST
  +--> ?PR?UART1CLEAR?UART
  +--> ?CO?MAIN
  +--> ?PR?PRINTF?PRINTF
  +--> ?PR?_GSMUARTCMD?GSM
  +--> ?PR?UART3CLEAR?UART
  +--> ?PR?WAVREADTASK?AUDIO
  +--> ?PR?_UNLOCK?DRIVER
  +--> ?PR?UARTTASK?UART
  +--> ?PR?KEYSCAN?DRIVER
  +--> ?PR?_BEEP_STARTPLAY?AUDIO
  +--> ?PR?_SYSKEY?SYSSTATUS
  +--> ?PR?SKEYSCAN?DRIVER
  +--> ?PR?CARDMSTASK?CARDREAD
  +--> ?PR?GSM_INITTASK?GSM
  +--> ?PR?FLASHTASK?LCD12864
  +--> ?PR?RELAYTASK?DRIVER
  +--> ?PR?SHOWTALKTIME?SYSSTRING
  +--> ?PR?GSM_HUANGUP?GSM
  +--> ?PR?_SHOWMAIN?SYSSTRING
  +--> ?PR?_NAMEEDITKEY?NAMELIST
  +--> ?PR?CHECKRFIDCARD?CARDREAD
  +--> ?PR?_SYSCARD?SYSSTATUS

?PR?GPIO_CONFIG?DRIVER                     -----    -----      -----    -----      107CH    0002H
  +--> ?PR?_GPIO_INILIZE?GPIO

BL51 BANKED LINKER/LOCATER V6.22.2.0                                                  01/18/2022  14:53:23  PAGE 8


?PR?TIMER_CONFIG?DRIVER                    -----    -----      -----    -----      107CH    0008H
  +--> ?PR?_TIMER_INILIZE?TIMER

?PR?UART_CONFIG?DRIVER                     -----    -----      -----    -----      107CH    000CH
  +--> ?PR?_UART_CONFIGURATION?UART
  +--> ?CO?DRIVER
  +--> ?PR?PRINTF?PRINTF
  +--> ?PR?_TX3_WRITE2BUFF?UART

?PR?_UART_CONFIGURATION?UART               -----    -----      -----    -----      1088H    000AH

?PR?PRINTF?PRINTF                          0020H.1  0001H.1    0008H    0005H      1124H    0028H
  +--> ?PR?_PUTCHAR?DRIVER

?PR?_PUTCHAR?DRIVER                        -----    -----      -----    -----      114CH    0001H
  +--> ?PR?_TX1_WRITE2BUFF?UART

?PR?EXTI_CONFIG?DRIVER                     -----    -----      -----    -----      107CH    0003H
  +--> ?PR?_EXT_INILIZE?EXTI

?PR?SPI_CONFIG?AUDIO                       -----    -----      -----    -----      107CH    0009H
  +--> ?PR?_SPI_INIT?SPI

?PR?INIT_12864?LCD12864                    -----    -----      -----    -----      -----    -----
  +--> ?PR?_LCD_WCMD?LCD12864

?PR?_LCD_WCMD?LCD12864                     -----    -----      -----    -----      -----    -----
  +--> ?PR?LCD_BUSY?LCD12864

?PR?LCD_BUSY?LCD12864                      0020H.2  0000H.1    -----    -----      -----    -----

?PR?INITSYSPARA?SYSSTATUS                  0020H.0  0000H.1    -----    -----      -----    -----
  +--> ?PR?_READBUF_AT24C02?EEPROM
  +--> ?PR?_WRITEBUF_AT24C02?EEPROM
  +--> ?CO?SYSSTATUS
  +--> ?PR?PRINTF?PRINTF

?PR?_READBUF_AT24C02?EEPROM                -----    -----      -----    -----      1125H    0008H
  +--> ?PR?IIC_ACK?EEPROM
  +--> ?PR?_IIC_SEND_BYTE?EEPROM
  +--> ?PR?IIC_START?EEPROM
  +--> ?PR?IIC_READ_BYTE?EEPROM
  +--> ?PR?IIC_AACK?EEPROM
  +--> ?PR?IIC_NACK?EEPROM
  +--> ?PR?IIC_STOP?EEPROM

?PR?IIC_ACK?EEPROM                         -----    -----      -----    -----      -----    -----
  +--> ?PR?IIC_START?EEPROM
  +--> ?PR?_IIC_SEND_BYTE?EEPROM

?PR?_WRITEBUF_AT24C02?EEPROM               -----    -----      -----    -----      1125H    0007H
  +--> ?PR?_IIC_SEND_BYTE?EEPROM
  +--> ?PR?IIC_ACK?EEPROM
  +--> ?PR?IIC_STOP?EEPROM
  +--> ?PR?_IIC_DELAYMS?EEPROM

?PR?INITUSERPARA?SYSSTATUS                 -----    -----      -----    -----      -----    -----
BL51 BANKED LINKER/LOCATER V6.22.2.0                                                  01/18/2022  14:53:23  PAGE 9


  +--> ?PR?_READBUF_AT24C02?EEPROM
  +--> ?PR?_WRITEBUF_AT24C02?EEPROM
  +--> ?CO?SYSSTATUS
  +--> ?PR?PRINTF?PRINTF
  +--> ?PR?INITNAMELIST?NAMELIST
  +--> ?PR?INITPSW?UNLOCKPASSWORD
  +--> ?PR?INITCARD?CARD

?PR?INITNAMELIST?NAMELIST                  -----    -----      -----    -----      -----    -----
  +--> ?PR?CLEARNAMELIST?NAMELIST

?PR?CLEARNAMELIST?NAMELIST                 -----    -----      -----    -----      -----    -----
  +--> ?PR?SAVENAMECOUNT?NAMELIST

?PR?SAVENAMECOUNT?NAMELIST                 -----    -----      -----    -----      -----    -----
  +--> ?PR?_WRITEBUF_AT24C02?EEPROM

?PR?INITPSW?UNLOCKPASSWORD                 -----    -----      -----    -----      -----    -----
  +--> ?PR?CLEARPSW?UNLOCKPASSWORD

?PR?CLEARPSW?UNLOCKPASSWORD                -----    -----      -----    -----      -----    -----
  +--> ?PR?SAVEPSWCOUNT?UNLOCKPASSWORD

?PR?SAVEPSWCOUNT?UNLOCKPASSWORD            -----    -----      -----    -----      -----    -----
  +--> ?PR?_WRITEBUF_AT24C02?EEPROM

?PR?INITCARD?CARD                          -----    -----      -----    -----      -----    -----
  +--> ?PR?CLEARCARD?CARD

?PR?CLEARCARD?CARD                         -----    -----      -----    -----      -----    -----
  +--> ?PR?SAVECARDCOUNT?CARD

?PR?SAVECARDCOUNT?CARD                     -----    -----      -----    -----      -----    -----
  +--> ?PR?_WRITEBUF_AT24C02?EEPROM

?PR?GSM_STARTINIT?GSM                      -----    -----      -----    -----      -----    -----
  +--> ?CO?GSM
  +--> ?PR?PRINTF?PRINTF

?PR?SYSIDLECON?SYSSTATUS                   -----    -----      -----    -----      -----    -----
  +--> ?PR?_SHOWMAIN?SYSSTRING

?PR?_SHOWMAIN?SYSSTRING                    -----    -----      -----    -----      1088H    0001H
  +--> ?PR?LCDCLEAR?LCD12864
  +--> ?CO?SYSSTRING
  +--> ?PR?_DISPLAYSTRING?LCD12864
  +--> ?PR?_DISPLAYICO?LCD12864
  +--> ?PR?SHOWGSMCSQ?SYSSTRING

?PR?LCDCLEAR?LCD12864                      -----    -----      -----    -----      -----    -----
  +--> ?PR?_LCD_WCMD?LCD12864
  +--> ?PR?_CLEARBUF?DRIVER
  +--> ?PR?_SETFLASH?LCD12864

?PR?_CLEARBUF?DRIVER                       -----    -----      -----    -----      1124H    0003H

?PR?_DISPLAYSTRING?LCD12864                -----    -----      -----    -----      -----    -----
BL51 BANKED LINKER/LOCATER V6.22.2.0                                                  01/18/2022  14:53:23  PAGE 10


  +--> ?PR?_WRITELCD?LCD12864
  +--> ?PR?_BITBLT?LCD12864

?PR?_WRITELCD?LCD12864                     -----    -----      -----    -----      1124H    0008H
  +--> ?PR?_CHECKUNICODE?LCD12864
  +--> ?PR?LCDADDROW?LCD12864
  +--> ?CO?LCD12864

?PR?_BITBLT?LCD12864                       -----    -----      -----    -----      1124H    0007H
  +--> ?PR?_LCD_WCMD?LCD12864
  +--> ?PR?WAVREADTASK?AUDIO
  +--> ?PR?_LCD_WDAT?LCD12864

?PR?WAVREADTASK?AUDIO                      -----    -----      -----    -----      112BH    0001H
  +--> ?PR?MP3_STOP?AUDIO
  +--> ?PR?_SPI_FLASH_READ?SPI

?PR?_SPI_FLASH_READ?SPI                    -----    -----      -----    -----      112CH    000DH
  +--> ?PR?_DELAY?DRIVER
  +--> ?PR?_SPI_READWRITEBYTE?SPI

?PR?_LCD_WDAT?LCD12864                     -----    -----      -----    -----      -----    -----
  +--> ?PR?LCD_BUSY?LCD12864

?PR?_DISPLAYICO?LCD12864                   -----    -----      -----    -----      -----    -----
  +--> ?PR?_WRITELCDICO?LCD12864
  +--> ?PR?_BITBLT?LCD12864

?PR?_WRITELCDICO?LCD12864                  -----    -----      -----    -----      1089H    0007H
  +--> ?CO?LCD12864

?PR?SHOWGSMCSQ?SYSSTRING                   -----    -----      -----    -----      -----    -----
  +--> ?CO?SYSSTRING
  +--> ?PR?_DISPLAYSTRING?LCD12864

?PR?_REVNAMELIST?NAMELIST                  -----    -----      -----    -----      107CH    0059H
  +--> ?CO?NAMELIST
  +--> ?PR?PRINTF?PRINTF
  +--> ?PR?_LOOKFORSTR?DRIVER
  +--> ?PR?SCANF?SCANF
  +--> ?PR?_CLEARBUF?DRIVER
  +--> ?PR?_ADDNAMEITEM?NAMELIST

?PR?_LOOKFORSTR?DRIVER                     -----    -----      -----    -----      10D5H    000AH

?PR?SCANF?SCANF                            0020H.0  0000H.6    0008H    0005H      10D5H    002EH
  +--> ?PR?GETCHAR?UNGETCHAR
  +--> ?PR?_ISSPACE?ISSPACE
  +--> ?PR?GETCHAR?GETCHAR

?PR?GETCHAR?GETCHAR                        -----    -----      -----    -----      -----    -----
  +--> ?PR?_GETKEY?_GETKEY
  +--> ?PR?_PUTCHAR?DRIVER

?PR?_ADDNAMEITEM?NAMELIST                  -----    -----      -----    -----      10D5H    0005H
  +--> ?PR?_GETIDXBYROOM?SYSSTATUS
  +--> ?PR?_WRITENAMEITEMBYIDX?NAMELIST
BL51 BANKED LINKER/LOCATER V6.22.2.0                                                  01/18/2022  14:53:23  PAGE 11


  +--> ?PR?SAVENAMECOUNT?NAMELIST

?PR?_GETIDXBYROOM?SYSSTATUS                -----    -----      -----    -----      10DAH    0007H
  +--> ?PR?_READROOMBYIDX?SYSSTATUS

?PR?_READROOMBYIDX?SYSSTATUS               -----    -----      -----    -----      10E1H    0002H
  +--> ?PR?_READBUF_AT24C02?EEPROM

?PR?_WRITENAMEITEMBYIDX?NAMELIST           -----    -----      -----    -----      1122H    0003H
  +--> ?PR?_WRITEBUF_AT24C02?EEPROM

?PR?UART1CLEAR?UART                        -----    -----      -----    -----      -----    -----
  +--> ?PR?_CLEARBUF?DRIVER

?PR?_GSMUARTCMD?GSM                        -----    -----      -----    -----      107CH    0003H
  +--> ?PR?_PRINTSTRING3?UART
  +--> ?CO?GSM
  +--> ?PR?PRINTF?PRINTF
  +--> ?PR?GSM_REPOWER?GSM
  +--> ?PR?_MODEMRECEIVEHANDLE?GSM

?PR?_PRINTSTRING3?UART                     -----    -----      -----    -----      1099H    0003H
  +--> ?PR?_TX3_WRITE2BUFF?UART

?PR?GSM_REPOWER?GSM                        -----    -----      -----    -----      -----    -----
  +--> ?CO?GSM
  +--> ?PR?_PRINTSTRING3?UART
  +--> ?PR?PRINTF?PRINTF

?PR?_MODEMRECEIVEHANDLE?GSM                -----    -----      -----    -----      107FH    0009H
  +--> ?CO?GSM
  +--> ?PR?_LOOKFORSTR?DRIVER
  +--> ?PR?SHOWGSMERR?SYSSTRING
  +--> ?PR?GSM_REPOWER?GSM
  +--> ?PR?_STRLEN?DRIVER
  +--> ?PR?GSM_HUANGUP?GSM
  +--> ?PR?SCANF?SCANF
  +--> ?PR?PRINTF?PRINTF
  +--> ?PR?_GSM_SETVOLUM?GSM
  +--> ?PR?SYSIDLECON?SYSSTATUS

?PR?SHOWGSMERR?SYSSTRING                   -----    -----      -----    -----      -----    -----
  +--> ?PR?LCDCLEAR?LCD12864
  +--> ?CO?SYSSTRING
  +--> ?PR?_DISPLAYSTRING?LCD12864

?PR?_STRLEN?DRIVER                         -----    -----      -----    -----      1124H    0003H

?PR?GSM_HUANGUP?GSM                        -----    -----      -----    -----      -----    -----
  +--> ?CO?GSM
  +--> ?PR?_PRINTSTRING3?UART

?PR?_GSM_SETVOLUM?GSM                      -----    -----      -----    -----      1088H    0001H
  +--> ?CO?GSM
  +--> ?PR?PRINTF?PRINTF

?PR?UART3CLEAR?UART                        -----    -----      -----    -----      -----    -----
BL51 BANKED LINKER/LOCATER V6.22.2.0                                                  01/18/2022  14:53:23  PAGE 12


  +--> ?PR?_CLEARBUF?DRIVER

?PR?_UNLOCK?DRIVER                         0020H.0  0000H.1    -----    -----      -----    -----
  +--> ?PR?SHOWUNLOCK?SYSSTRING

?PR?SHOWUNLOCK?SYSSTRING                   0020H.1  0000H.1    -----    -----      -----    -----
  +--> ?PR?LCDCLEAR?LCD12864
  +--> ?CO?SYSSTRING
  +--> ?PR?_DISPLAYSTRING?LCD12864
  +--> ?PR?_MP3_STARTPLAY?AUDIO

?PR?_MP3_STARTPLAY?AUDIO                   -----    -----      -----    -----      10D0H    0001H
  +--> ?PR?_DELAY?DRIVER
  +--> ?PR?WAVREADTASK?AUDIO

?PR?UARTTASK?UART                          -----    -----      -----    -----      -----    -----
  +--> ?PR?UART1CLEAR?UART
  +--> ?PR?UART3CLEAR?UART

?PR?KEYSCAN?DRIVER                         -----    -----      -----    -----      107CH    0001H

?PR?_BEEP_STARTPLAY?AUDIO                  -----    -----      -----    -----      -----    -----
  +--> ?PR?KEYBEEPTASK?AUDIO

?PR?KEYBEEPTASK?AUDIO                      -----    -----      -----    -----      -----    -----
  +--> ?CO?AUDIO

?PR?_SYSKEY?SYSSTATUS                      -----    -----      -----    -----      107CH    0001H
  +--> ?PR?_SYSIDLEKEY?SYSSTATUS
  +--> ?PR?_SYSSETTINGKEY?SYSSTATUS
  +--> ?PR?_NAMESETKEY?NAMELIST
  +--> ?PR?_NAMEEDITKEY?NAMELIST
  +--> ?PR?_NAMEDELETEKEY?NAMELIST
  +--> ?PR?_NAMEDELALLKEY?NAMELIST
  +--> ?PR?_PSWSETKEY?UNLOCKPASSWORD
  +--> ?PR?_PSWEDITKEY?UNLOCKPASSWORD
  +--> ?PR?_PSWDELETEKEY?UNLOCKPASSWORD
  +--> ?PR?_PSWDELALLKEY?UNLOCKPASSWORD
  +--> ?PR?_PSWINPUTKEY?UNLOCKPASSWORD
  +--> ?PR?_SYSINPUTROOM?SYSSTATUS
  +--> ?PR?_INPUTSYSPSW?SYSSTATUS
  +--> ?PR?_SYSPSWEDITKEY?UNLOCKPASSWORD
  +--> ?PR?_CARDSETKEY?CARD
  +--> ?PR?_CARDEDITKEY?CARD
  +--> ?PR?_CARDDELETEKEY?CARD
  +--> ?PR?_CARDDELALLKEY?CARD
  +--> ?PR?_SYSTALKKEY?SYSSTATUS
  +--> ?PR?_SYSSUBSETKEY?SYSSTATUS

?PR?_SYSIDLEKEY?SYSSTATUS                  -----    -----      -----    -----      107DH    0001H
  +--> ?PR?SYSIDLECON?SYSSTATUS
  +--> ?PR?INPUTPSWCON?UNLOCKPASSWORD
  +--> ?PR?INPUTSYSPSWCON?SYSSTATUS
  +--> ?PR?_SHOWNAMEBYIDX?NAMELIST
  +--> ?PR?_READNAMEITEMBYIDX?NAMELIST
  +--> ?PR?_CALLBYNAMEITEM?NAMELIST
  +--> ?PR?_STRLEN?DRIVER
BL51 BANKED LINKER/LOCATER V6.22.2.0                                                  01/18/2022  14:53:23  PAGE 13


  +--> ?PR?SHOWERR?SYSSTRING
  +--> ?PR?SHOWGSMERR?SYSSTRING
  +--> ?PR?_INPUTROOMCON?SYSSTATUS

?PR?INPUTPSWCON?UNLOCKPASSWORD             -----    -----      -----    -----      -----    -----
  +--> ?PR?_CLEARBUF?DRIVER
  +--> ?PR?_SHOWPSW?UNLOCKPASSWORD
  +--> ?PR?_MP3_STARTPLAY?AUDIO

?PR?_SHOWPSW?UNLOCKPASSWORD                0020H.0  0000H.1    -----    -----      1084H    0028H
  +--> ?PR?LCDCLEAR?LCD12864
  +--> ?CO?SYSSTRING
  +--> ?PR?_DISPLAYSTRING?LCD12864
  +--> ?CO?UNLOCKPASSWORD
  +--> ?PR?PRINTF?PRINTF
  +--> ?PR?_HBSTRLEN?DRIVER
  +--> ?PR?_STRLEN?DRIVER
  +--> ?PR?_SETFLASH?LCD12864

?PR?INPUTSYSPSWCON?SYSSTATUS               -----    -----      -----    -----      -----    -----
  +--> ?PR?SHOWINPUTPSW?SYSSTATUS
  +--> ?PR?_MP3_STARTPLAY?AUDIO

?PR?SHOWINPUTPSW?SYSSTATUS                 -----    -----      -----    -----      107EH    001EH
  +--> ?PR?LCDCLEAR?LCD12864
  +--> ?CO?SYSSTRING
  +--> ?PR?_DISPLAYSTRING?LCD12864
  +--> ?PR?_HS_STRCPY?DRIVER
  +--> ?PR?_SETFLASH?LCD12864

?PR?_HS_STRCPY?DRIVER                      -----    -----      -----    -----      109CH    0006H

?PR?_SHOWNAMEBYIDX?NAMELIST                -----    -----      -----    -----      107EH    0050H
  +--> ?PR?_READNAMEITEMBYIDX?NAMELIST
  +--> ?PR?_SHOWNAME?NAMELIST

?PR?_READNAMEITEMBYIDX?NAMELIST            -----    -----      -----    -----      1122H    0003H
  +--> ?PR?_READBUF_AT24C02?EEPROM

?PR?_SHOWNAME?NAMELIST                     0020H.0  0000H.1    -----    -----      10D0H    0054H
  +--> ?PR?LCDCLEAR?LCD12864
  +--> ?CO?NAMELIST
  +--> ?CO?SYSSTRING
  +--> ?PR?PRINTF?PRINTF
  +--> ?PR?_DISPLAYSTRING?LCD12864
  +--> ?PR?_STRLEN?DRIVER
  +--> ?PR?_HBSTRLEN?DRIVER
  +--> ?PR?_SETFLASH?LCD12864

?PR?_CALLBYNAMEITEM?NAMELIST               -----    -----      -----    -----      107EH    0018H
  +--> ?PR?_STRLEN?DRIVER
  +--> ?PR?_GSM_CALL?GSM
  +--> ?PR?LCDCLEAR?LCD12864
  +--> ?CO?NAMELIST
  +--> ?CO?SYSSTRING
  +--> ?PR?PRINTF?PRINTF
  +--> ?PR?_DISPLAYSTRING?LCD12864
BL51 BANKED LINKER/LOCATER V6.22.2.0                                                  01/18/2022  14:53:23  PAGE 14



?PR?_GSM_CALL?GSM                          -----    -----      -----    -----      1096H    0003H
  +--> ?CO?GSM
  +--> ?PR?_PRINTSTRING3?UART

?PR?SHOWERR?SYSSTRING                      -----    -----      -----    -----      -----    -----
  +--> ?PR?LCDCLEAR?LCD12864
  +--> ?CO?SYSSTRING
  +--> ?PR?_DISPLAYSTRING?LCD12864

?PR?_INPUTROOMCON?SYSSTATUS                -----    -----      -----    -----      -----    -----
  +--> ?PR?SHOWINPUTROOM?SYSSTATUS
  +--> ?PR?_CLEARBUF?DRIVER
  +--> ?PR?_MP3_STARTPLAY?AUDIO

?PR?SHOWINPUTROOM?SYSSTATUS                -----    -----      -----    -----      107EH    0018H
  +--> ?PR?LCDCLEAR?LCD12864
  +--> ?CO?SYSSTRING
  +--> ?PR?_DISPLAYSTRING?LCD12864
  +--> ?CO?SYSSTATUS
  +--> ?PR?PRINTF?PRINTF
  +--> ?PR?_HBSTRLEN?DRIVER
  +--> ?PR?_STRLEN?DRIVER

?PR?_SYSSETTINGKEY?SYSSTATUS               -----    -----      -----    -----      107DH    0001H
  +--> ?PR?SYSIDLECON?SYSSTATUS
  +--> ?PR?EDITSYSPSWCON?UNLOCKPASSWORD
  +--> ?PR?NAMESETCON?NAMELIST
  +--> ?PR?PSWSETCON?UNLOCKPASSWORD
  +--> ?PR?CARDSETCON?CARD
  +--> ?PR?_SUBSETCON?SYSSTATUS

?PR?EDITSYSPSWCON?UNLOCKPASSWORD           -----    -----      -----    -----      -----    -----
  +--> ?PR?_CLEARBUF?DRIVER
  +--> ?PR?_SHOWPSW?UNLOCKPASSWORD

?PR?NAMESETCON?NAMELIST                    -----    -----      -----    -----      10D0H    000AH
  +--> ?PR?LCDCLEAR?LCD12864
  +--> ?CO?SYSSTRING
  +--> ?PR?_DISPLAYSTRING?LCD12864
  +--> ?CO?NAMELIST
  +--> ?PR?PRINTF?PRINTF
  +--> ?PR?_HBSTRLEN?DRIVER
  +--> ?PR?_STRLEN?DRIVER

?PR?PSWSETCON?UNLOCKPASSWORD               -----    -----      -----    -----      1084H    000AH
  +--> ?PR?LCDCLEAR?LCD12864
  +--> ?CO?SYSSTRING
  +--> ?PR?_DISPLAYSTRING?LCD12864
  +--> ?CO?UNLOCKPASSWORD
  +--> ?PR?PRINTF?PRINTF
  +--> ?PR?_HBSTRLEN?DRIVER
  +--> ?PR?_STRLEN?DRIVER

?PR?CARDSETCON?CARD                        -----    -----      -----    -----      1080H    000AH
  +--> ?PR?LCDCLEAR?LCD12864
  +--> ?CO?SYSSTRING
BL51 BANKED LINKER/LOCATER V6.22.2.0                                                  01/18/2022  14:53:23  PAGE 15


  +--> ?PR?_DISPLAYSTRING?LCD12864
  +--> ?CO?CARD
  +--> ?PR?PRINTF?PRINTF
  +--> ?PR?_HBSTRLEN?DRIVER
  +--> ?PR?_STRLEN?DRIVER

?PR?_SUBSETCON?SYSSTATUS                   -----    -----      -----    -----      -----    -----
  +--> ?PR?SHOWSUBPARA?SYSSTATUS

?PR?SHOWSUBPARA?SYSSTATUS                  -----    -----      -----    -----      107EH    0018H
  +--> ?PR?LCDCLEAR?LCD12864
  +--> ?CO?SYSSTATUS
  +--> ?CO?SYSSTRING
  +--> ?PR?PRINTF?PRINTF
  +--> ?PR?_DISPLAYSTRING?LCD12864
  +--> ?PR?_STRLEN?DRIVER

?PR?_NAMESETKEY?NAMELIST                   -----    -----      -----    -----      -----    -----
  +--> ?PR?EDITNAMEITEMCON?NAMELIST
  +--> ?PR?DELETENAMECON?NAMELIST
  +--> ?PR?DELETEALLNAMECON?NAMELIST
  +--> ?PR?SYSSETTINGCON?SYSSTATUS

?PR?EDITNAMEITEMCON?NAMELIST               -----    -----      -----    -----      -----    -----
  +--> ?PR?_CLEARBUF?DRIVER
  +--> ?PR?_SHOWNAME?NAMELIST

?PR?DELETENAMECON?NAMELIST                 -----    -----      -----    -----      -----    -----
  +--> ?PR?_CLEARBUF?DRIVER
  +--> ?PR?_SHOWNAME?NAMELIST

?PR?DELETEALLNAMECON?NAMELIST              -----    -----      -----    -----      -----    -----
  +--> ?PR?LCDCLEAR?LCD12864
  +--> ?CO?SYSSTRING
  +--> ?PR?_DISPLAYSTRING?LCD12864

?PR?SYSSETTINGCON?SYSSTATUS                -----    -----      -----    -----      -----    -----
  +--> ?PR?LCDCLEAR?LCD12864
  +--> ?CO?SYSSTRING
  +--> ?PR?_DISPLAYSTRING?LCD12864
  +--> ?PR?_DISPLAYICO?LCD12864

?PR?_NAMEEDITKEY?NAMELIST                  -----    -----      -----    -----      107DH    0001H
  +--> ?PR?_CLEARBUF?DRIVER
  +--> ?PR?_STRLEN?DRIVER
  +--> ?PR?_ADDNAMEITEM?NAMELIST
  +--> ?PR?SHOWSAVEOK?SYSSTRING
  +--> ?PR?SHOWERR?SYSSTRING
  +--> ?PR?NAMEEDITCHAGETYPE?NAMELIST
  +--> ?PR?NAMESETCON?NAMELIST
  +--> ?PR?_HBSTRLEN?DRIVER
  +--> ?CO?SYSSTRING
  +--> ?CO?NAMELIST
  +--> ?PR?_SHOWNAME?NAMELIST

?PR?SHOWSAVEOK?SYSSTRING                   -----    -----      -----    -----      -----    -----
  +--> ?PR?LCDCLEAR?LCD12864
BL51 BANKED LINKER/LOCATER V6.22.2.0                                                  01/18/2022  14:53:23  PAGE 16


  +--> ?CO?SYSSTRING
  +--> ?PR?_DISPLAYSTRING?LCD12864
  +--> ?PR?_MP3_STARTPLAY?AUDIO

?PR?NAMEEDITCHAGETYPE?NAMELIST             -----    -----      -----    -----      107EH    0052H
  +--> ?PR?_GETNAMEITEMBYROOM?NAMELIST
  +--> ?PR?_HS_MEMCPY?DRIVER
  +--> ?PR?_STRLEN?DRIVER
  +--> ?PR?SHOWCONFIRMSAVE?SYSSTRING

?PR?_GETNAMEITEMBYROOM?NAMELIST            -----    -----      -----    -----      10D0H    0005H
  +--> ?PR?_GETIDXBYROOM?SYSSTATUS
  +--> ?PR?_READNAMEITEMBYIDX?NAMELIST

?PR?_HS_MEMCPY?DRIVER                      -----    -----      -----    -----      10D0H    0008H

?PR?SHOWCONFIRMSAVE?SYSSTRING              -----    -----      -----    -----      -----    -----
  +--> ?PR?LCDCLEAR?LCD12864
  +--> ?CO?SYSSTRING
  +--> ?PR?_DISPLAYSTRING?LCD12864

?PR?_NAMEDELETEKEY?NAMELIST                -----    -----      -----    -----      107DH    0053H
  +--> ?PR?_CLEARBUF?DRIVER
  +--> ?PR?_DELNAMEITEMBYROOM?NAMELIST
  +--> ?PR?SHOWSAVEOK?SYSSTRING
  +--> ?PR?_GETNAMEITEMBYROOM?NAMELIST
  +--> ?PR?_HS_MEMCPY?DRIVER
  +--> ?PR?_STRLEN?DRIVER
  +--> ?PR?SHOWCONFIRMDEL?SYSSTRING
  +--> ?PR?NAMESETCON?NAMELIST
  +--> ?PR?_SHOWNAME?NAMELIST

?PR?_DELNAMEITEMBYROOM?NAMELIST            -----    -----      -----    -----      -----    -----
  +--> ?PR?_GETIDXBYROOM?SYSSTATUS
  +--> ?PR?_DELNAMEITEMBYIDX?NAMELIST

?PR?_DELNAMEITEMBYIDX?NAMELIST             -----    -----      -----    -----      10D0H    0052H
  +--> ?PR?SAVENAMECOUNT?NAMELIST
  +--> ?PR?_READNAMEITEMBYIDX?NAMELIST
  +--> ?PR?_WRITENAMEITEMBYIDX?NAMELIST

?PR?SHOWCONFIRMDEL?SYSSTRING               -----    -----      -----    -----      -----    -----
  +--> ?PR?LCDCLEAR?LCD12864
  +--> ?CO?SYSSTRING
  +--> ?PR?_DISPLAYSTRING?LCD12864

?PR?_NAMEDELALLKEY?NAMELIST                -----    -----      -----    -----      -----    -----
  +--> ?PR?CLEARNAMELIST?NAMELIST
  +--> ?PR?SHOWDELETEOK?SYSSTRING
  +--> ?PR?NAMESETCON?NAMELIST

?PR?SHOWDELETEOK?SYSSTRING                 -----    -----      -----    -----      -----    -----
  +--> ?PR?LCDCLEAR?LCD12864
  +--> ?CO?SYSSTRING
  +--> ?PR?_DISPLAYSTRING?LCD12864

?PR?_PSWSETKEY?UNLOCKPASSWORD              -----    -----      -----    -----      -----    -----
BL51 BANKED LINKER/LOCATER V6.22.2.0                                                  01/18/2022  14:53:23  PAGE 17


  +--> ?PR?EDITPSWCON?UNLOCKPASSWORD
  +--> ?PR?DELETEPSWCON?UNLOCKPASSWORD
  +--> ?PR?DELETEALLPSWCON?UNLOCKPASSWORD
  +--> ?PR?SYSSETTINGCON?SYSSTATUS

?PR?EDITPSWCON?UNLOCKPASSWORD              -----    -----      -----    -----      -----    -----
  +--> ?PR?_CLEARBUF?DRIVER
  +--> ?PR?_SHOWPSW?UNLOCKPASSWORD

?PR?DELETEPSWCON?UNLOCKPASSWORD            -----    -----      -----    -----      -----    -----
  +--> ?PR?_CLEARBUF?DRIVER
  +--> ?PR?_SHOWPSW?UNLOCKPASSWORD

?PR?DELETEALLPSWCON?UNLOCKPASSWORD         -----    -----      -----    -----      -----    -----
  +--> ?PR?LCDCLEAR?LCD12864
  +--> ?CO?SYSSTRING
  +--> ?PR?_DISPLAYSTRING?LCD12864

?PR?_PSWEDITKEY?UNLOCKPASSWORD             -----    -----      -----    -----      107DH    0007H
  +--> ?PR?_CLEARBUF?DRIVER
  +--> ?PR?_ADDPSWITEM?UNLOCKPASSWORD
  +--> ?PR?SHOWSAVEOK?SYSSTRING
  +--> ?PR?SHOWERR?SYSSTRING
  +--> ?PR?SHOWCONFIRMSAVE?SYSSTRING
  +--> ?PR?PSWSETCON?UNLOCKPASSWORD
  +--> ?PR?_SHOWPSW?UNLOCKPASSWORD

?PR?_ADDPSWITEM?UNLOCKPASSWORD             -----    -----      -----    -----      1084H    0005H
  +--> ?PR?_GETIDXBYROOM?SYSSTATUS
  +--> ?CO?UNLOCKPASSWORD
  +--> ?PR?PRINTF?PRINTF
  +--> ?PR?_WRITEPSWBYIDX?UNLOCKPASSWORD
  +--> ?PR?SAVEPSWCOUNT?UNLOCKPASSWORD

?PR?_WRITEPSWBYIDX?UNLOCKPASSWORD          -----    -----      -----    -----      -----    -----
  +--> ?PR?_WRITEBUF_AT24C02?EEPROM

?PR?_PSWDELETEKEY?UNLOCKPASSWORD           -----    -----      -----    -----      107DH    0003H
  +--> ?PR?_CLEARBUF?DRIVER
  +--> ?PR?_DELPSWBYROOM?UNLOCKPASSWORD
  +--> ?PR?SHOWDELETEOK?SYSSTRING
  +--> ?PR?SHOWCONFIRMDEL?SYSSTRING
  +--> ?PR?PSWSETCON?UNLOCKPASSWORD
  +--> ?PR?_SHOWPSW?UNLOCKPASSWORD

?PR?_DELPSWBYROOM?UNLOCKPASSWORD           -----    -----      -----    -----      1080H    0002H
  +--> ?PR?_DELPSWBYIDX?UNLOCKPASSWORD
  +--> ?PR?_GETIDXBYROOM?SYSSTATUS

?PR?_DELPSWBYIDX?UNLOCKPASSWORD            -----    -----      -----    -----      1082H    0006H
  +--> ?PR?SAVEPSWCOUNT?UNLOCKPASSWORD
  +--> ?PR?_READPSWBYIDX?UNLOCKPASSWORD
  +--> ?PR?_WRITEPSWBYIDX?UNLOCKPASSWORD

?PR?_READPSWBYIDX?UNLOCKPASSWORD           -----    -----      -----    -----      -----    -----
  +--> ?PR?_READBUF_AT24C02?EEPROM

BL51 BANKED LINKER/LOCATER V6.22.2.0                                                  01/18/2022  14:53:23  PAGE 18


?PR?_PSWDELALLKEY?UNLOCKPASSWORD           -----    -----      -----    -----      -----    -----
  +--> ?PR?CLEARPSW?UNLOCKPASSWORD
  +--> ?PR?SHOWDELETEOK?SYSSTRING
  +--> ?PR?PSWSETCON?UNLOCKPASSWORD

?PR?_PSWINPUTKEY?UNLOCKPASSWORD            -----    -----      -----    -----      107DH    0001H
  +--> ?PR?SYSIDLECON?SYSSTATUS
  +--> ?PR?_CHECKPSW?UNLOCKPASSWORD
  +--> ?PR?_UNLOCK?DRIVER
  +--> ?PR?SHOWERR?SYSSTRING
  +--> ?PR?_MP3_STARTPLAY?AUDIO
  +--> ?PR?_SHOWPSW?UNLOCKPASSWORD

?PR?_CHECKPSW?UNLOCKPASSWORD               -----    -----      -----    -----      107EH    0008H
  +--> ?CO?UNLOCKPASSWORD
  +--> ?PR?PRINTF?PRINTF
  +--> ?PR?_READPSWBYIDX?UNLOCKPASSWORD

?PR?_SYSINPUTROOM?SYSSTATUS                -----    -----      -----    -----      107DH    0001H
  +--> ?PR?_GETNAMEITEMBYROOM?NAMELIST
  +--> ?PR?_CALLBYNAMEITEM?NAMELIST
  +--> ?PR?_STRLEN?DRIVER
  +--> ?PR?SHOWERR?SYSSTRING
  +--> ?PR?SHOWGSMERR?SYSSTRING
  +--> ?PR?SHOWROOMERR?SYSSTRING
  +--> ?PR?_MP3_STARTPLAY?AUDIO
  +--> ?PR?SHOWINPUTROOM?SYSSTATUS
  +--> ?PR?MP3_STOP?AUDIO
  +--> ?PR?SYSIDLECON?SYSSTATUS

?PR?SHOWROOMERR?SYSSTRING                  -----    -----      -----    -----      -----    -----
  +--> ?PR?LCDCLEAR?LCD12864
  +--> ?CO?SYSSTRING
  +--> ?PR?_DISPLAYSTRING?LCD12864

?PR?_INPUTSYSPSW?SYSSTATUS                 -----    -----      -----    -----      107DH    0001H
  +--> ?PR?SYSSETTINGCON?SYSSTATUS
  +--> ?PR?SHOWERR?SYSSTRING
  +--> ?PR?_MP3_STARTPLAY?AUDIO
  +--> ?PR?SHOWINPUTPSW?SYSSTATUS
  +--> ?PR?MP3_STOP?AUDIO
  +--> ?PR?SYSIDLECON?SYSSTATUS

?PR?_SYSPSWEDITKEY?UNLOCKPASSWORD          -----    -----      -----    -----      107DH    0001H
  +--> ?PR?_CLEARBUF?DRIVER
  +--> ?PR?SAVESYSPSW?UNLOCKPASSWORD
  +--> ?PR?SHOWSAVEOK?SYSSTRING
  +--> ?PR?SHOWERR?SYSSTRING
  +--> ?PR?SHOWCONFIRMSAVE?SYSSTRING
  +--> ?PR?SYSSETTINGCON?SYSSTATUS
  +--> ?PR?_SHOWPSW?UNLOCKPASSWORD

?PR?SAVESYSPSW?UNLOCKPASSWORD              -----    -----      -----    -----      -----    -----
  +--> ?PR?_WRITEBUF_AT24C02?EEPROM

?PR?_CARDSETKEY?CARD                       -----    -----      -----    -----      -----    -----
  +--> ?PR?EDITCARDCON?CARD
BL51 BANKED LINKER/LOCATER V6.22.2.0                                                  01/18/2022  14:53:23  PAGE 19


  +--> ?PR?DELETECARDCON?CARD
  +--> ?PR?DELETEALLCARDCON?CARD
  +--> ?PR?SYSSETTINGCON?SYSSTATUS

?PR?EDITCARDCON?CARD                       -----    -----      -----    -----      -----    -----
  +--> ?PR?_CLEARBUF?DRIVER
  +--> ?PR?_SHOWCARD?CARD

?PR?_SHOWCARD?CARD                         0020H.0  0000H.1    -----    -----      1082H    0043H
  +--> ?PR?LCDCLEAR?LCD12864
  +--> ?CO?SYSSTRING
  +--> ?PR?_DISPLAYSTRING?LCD12864
  +--> ?CO?CARD
  +--> ?PR?PRINTF?PRINTF
  +--> ?PR?_HBSTRLEN?DRIVER
  +--> ?PR?_STRLEN?DRIVER
  +--> ?PR?_SETFLASH?LCD12864
  +--> ?PR?_MEMISEMPTY?DRIVER

?PR?_MEMISEMPTY?DRIVER                     -----    -----      -----    -----      10C5H    0003H

?PR?DELETECARDCON?CARD                     -----    -----      -----    -----      -----    -----
  +--> ?PR?_CLEARBUF?DRIVER
  +--> ?PR?_MEMISEMPTY?DRIVER
  +--> ?PR?_SHOWCARD?CARD

?PR?DELETEALLCARDCON?CARD                  -----    -----      -----    -----      -----    -----
  +--> ?PR?LCDCLEAR?LCD12864
  +--> ?CO?SYSSTRING
  +--> ?PR?_DISPLAYSTRING?LCD12864

?PR?_CARDEDITKEY?CARD                      -----    -----      -----    -----      107DH    0003H
  +--> ?PR?_CLEARBUF?DRIVER
  +--> ?PR?_MEMISEMPTY?DRIVER
  +--> ?PR?_ADDCARDITEM?CARD
  +--> ?PR?SHOWSAVEOK?SYSSTRING
  +--> ?PR?SHOWERR?SYSSTRING
  +--> ?PR?SHOWCONFIRMSAVE?SYSSTRING
  +--> ?PR?CARDSETCON?CARD
  +--> ?PR?_SHOWCARD?CARD

?PR?_ADDCARDITEM?CARD                      -----    -----      -----    -----      1080H    000BH
  +--> ?PR?_READCARDBYIDX?CARD
  +--> ?PR?_WRITECARDBYIDX?CARD
  +--> ?PR?SAVECARDCOUNT?CARD

?PR?_READCARDBYIDX?CARD                    -----    -----      -----    -----      108EH    0003H
  +--> ?PR?_READBUF_AT24C02?EEPROM

?PR?_WRITECARDBYIDX?CARD                   -----    -----      -----    -----      108BH    0003H
  +--> ?PR?_WRITEBUF_AT24C02?EEPROM

?PR?_CARDDELETEKEY?CARD                    -----    -----      -----    -----      107DH    0003H
  +--> ?PR?_CLEARBUF?DRIVER
  +--> ?PR?_MEMISEMPTY?DRIVER
  +--> ?PR?_DELCARDBYCARD?CARD
  +--> ?PR?_DELCARDBYROOM?CARD
BL51 BANKED LINKER/LOCATER V6.22.2.0                                                  01/18/2022  14:53:23  PAGE 20


  +--> ?PR?SHOWDELETEOK?SYSSTRING
  +--> ?PR?SHOWCONFIRMDEL?SYSSTRING
  +--> ?PR?CARDSETCON?CARD
  +--> ?PR?_SHOWCARD?CARD

?PR?_DELCARDBYCARD?CARD                    -----    -----      -----    -----      1080H    0003H
  +--> ?PR?_DELCARDBYIDX?CARD
  +--> ?PR?_CHECKCARD?CARD

?PR?_DELCARDBYIDX?CARD                     -----    -----      -----    -----      1083H    0008H
  +--> ?PR?SAVECARDCOUNT?CARD
  +--> ?PR?_READCARDBYIDX?CARD
  +--> ?PR?_WRITECARDBYIDX?CARD

?PR?_CHECKCARD?CARD                        -----    -----      -----    -----      1083H    000BH
  +--> ?PR?_READCARDBYIDX?CARD
  +--> ?CO?CARD
  +--> ?PR?PRINTF?PRINTF

?PR?_DELCARDBYROOM?CARD                    -----    -----      -----    -----      1080H    0002H
  +--> ?PR?_DELCARDBYIDX?CARD
  +--> ?PR?_GETIDXBYROOM?SYSSTATUS

?PR?_CARDDELALLKEY?CARD                    -----    -----      -----    -----      -----    -----
  +--> ?PR?CLEARCARD?CARD
  +--> ?PR?SHOWDELETEOK?SYSSTRING
  +--> ?PR?CARDSETCON?CARD

?PR?_SYSTALKKEY?SYSSTATUS                  -----    -----      -----    -----      107DH    0001H
  +--> ?PR?_GSM_SEND_DTMF?GSM
  +--> ?PR?GSM_HUANGUP?GSM
  +--> ?PR?SYSIDLECON?SYSSTATUS
  +--> ?PR?_GSM_SETVOLUM?GSM

?PR?_GSM_SEND_DTMF?GSM                     -----    -----      -----    -----      107EH    000EH
  +--> ?CO?GSM
  +--> ?PR?_PRINTSTRING3?UART

?PR?_SYSSUBSETKEY?SYSSTATUS                -----    -----      -----    -----      107DH    0001H
  +--> ?PR?SHOWSUBPARA?SYSSTATUS
  +--> ?PR?_SAVESUBPARA?SYSSTATUS
  +--> ?PR?SYSSETTINGCON?SYSSTATUS

?PR?_SAVESUBPARA?SYSSTATUS                 -----    -----      -----    -----      107EH    0002H
  +--> ?PR?_WRITEBUF_AT24C02?EEPROM
  +--> ?PR?SHOWSAVEOK?SYSSTRING

?PR?SKEYSCAN?DRIVER                        -----    -----      -----    -----      -----    -----
  +--> ?PR?_UNLOCK?DRIVER
  +--> ?CO?DRIVER
  +--> ?PR?PRINTF?PRINTF
  +--> ?PR?INITSYSPARA?SYSSTATUS
  +--> ?PR?SHOWRESET?SYSSTRING

?PR?SHOWRESET?SYSSTRING                    -----    -----      -----    -----      -----    -----
  +--> ?PR?LCDCLEAR?LCD12864
  +--> ?CO?SYSSTRING
BL51 BANKED LINKER/LOCATER V6.22.2.0                                                  01/18/2022  14:53:23  PAGE 21


  +--> ?PR?_DISPLAYSTRING?LCD12864

?PR?GSM_INITTASK?GSM                       -----    -----      -----    -----      -----    -----
  +--> ?PR?GSM_STARTINIT?GSM
  +--> ?CO?GSM
  +--> ?PR?PRINTF?PRINTF
  +--> ?PR?_PRINTSTRING3?UART
  +--> ?PR?GSM_REPOWER?GSM
  +--> ?PR?GSM_GETCSQ?GSM
  +--> ?PR?GSM_HUANGUP?GSM
  +--> ?PR?_STRLEN?DRIVER
  +--> ?PR?SHOWERR?SYSSTRING
  +--> ?PR?_GSM_SETVOLUM?GSM
  +--> ?PR?_CALLBYNAMEITEM?NAMELIST
  +--> ?PR?SYSIDLECON?SYSSTATUS

?PR?GSM_GETCSQ?GSM                         -----    -----      -----    -----      -----    -----
  +--> ?CO?GSM
  +--> ?PR?PRINTF?PRINTF

?PR?FLASHTASK?LCD12864                     -----    -----      -----    -----      -----    -----
  +--> ?PR?_DISPLAYFL?LCD12864

?PR?_DISPLAYFL?LCD12864                    0020H.0  0000H.1    -----    -----      -----    -----
  +--> ?PR?_LCD_WCMD?LCD12864
  +--> ?PR?_LCD_WDAT?LCD12864

?PR?SHOWTALKTIME?SYSSTRING                 -----    -----      -----    -----      -----    -----
  +--> ?PR?LCDCLEAR?LCD12864
  +--> ?CO?SYSSTRING
  +--> ?PR?_DISPLAYSTRING?LCD12864
  +--> ?PR?PRINTF?PRINTF

?PR?CHECKRFIDCARD?CARDREAD                 -----    -----      -----    -----      107CH    0008H
  +--> ?CO?CARDREAD
  +--> ?PR?PRINTF?PRINTF

?PR?_SYSCARD?SYSSTATUS                     -----    -----      -----    -----      107CH    0003H
  +--> ?PR?_CARDEDITCARDIN?CARD
  +--> ?PR?_CHECKCARD?CARD
  +--> ?PR?_UNLOCK?DRIVER
  +--> ?PR?SHOWCARDERR?SYSSTRING

?PR?_CARDEDITCARDIN?CARD                   -----    -----      -----    -----      107FH    0003H
  +--> ?PR?_HS_MEMCPY?DRIVER
  +--> ?PR?_SHOWCARD?CARD

?PR?SHOWCARDERR?SYSSTRING                  -----    -----      -----    -----      -----    -----
  +--> ?PR?LCDCLEAR?LCD12864
  +--> ?CO?SYSSTRING
  +--> ?PR?_DISPLAYSTRING?LCD12864
  +--> ?PR?_MP3_STARTPLAY?AUDIO

?C_INITSEG                                 -----    -----      -----    -----      -----    -----
  +--> ?CO?GSM
  +--> ?PR?_ATCMDCB_AT?GSM
  +--> ?PR?_ATCMDCB_CPIN?GSM
BL51 BANKED LINKER/LOCATER V6.22.2.0                                                  01/18/2022  14:53:23  PAGE 22


  +--> ?PR?_ATCMDCB_CREG?GSM
  +--> ?PR?_ATCMDCB_CSQ?GSM

?PR?_ATCMDCB_AT?GSM                        -----    -----      -----    -----      -----    -----
  +--> ?CO?GSM
  +--> ?PR?_LOOKFORSTR?DRIVER

?PR?_ATCMDCB_CPIN?GSM                      -----    -----      -----    -----      107CH    0009H
  +--> ?CO?GSM
  +--> ?PR?_LOOKFORSTR?DRIVER
  +--> ?PR?_STRLEN?DRIVER
  +--> ?PR?SCANF?SCANF
  +--> ?PR?PRINTF?PRINTF

?PR?_ATCMDCB_CREG?GSM                      -----    -----      -----    -----      107CH    0009H
  +--> ?CO?GSM
  +--> ?PR?_LOOKFORSTR?DRIVER
  +--> ?PR?_STRLEN?DRIVER
  +--> ?PR?SCANF?SCANF
  +--> ?PR?PRINTF?PRINTF

?PR?_ATCMDCB_CSQ?GSM                       -----    -----      -----    -----      107CH    0009H
  +--> ?CO?GSM
  +--> ?PR?_LOOKFORSTR?DRIVER
  +--> ?PR?_STRLEN?DRIVER
  +--> ?PR?SCANF?SCANF
  +--> ?PR?PRINTF?PRINTF

*** NEW ROOT ***************************************************

?PR?TIMER0_INT?TIMER                       -----    -----      -----    -----      -----    -----
  +--> ?PR?KEYBEEPTASK?AUDIO

*** NEW ROOT ***************************************************

?PR?TIMER4_INT?TIMER                       -----    -----      -----    -----      -----    -----
  +--> ?PR?PWMTASK?AUDIO

*** NEW ROOT ***************************************************

?PR?EXT_INT0?EXTI                          -----    -----      -----    -----      -----    -----
  +--> ?PR?CARDIRQ?CARDREAD



SYMBOL TABLE OF MODULE:  .\Objects\GSM (?C_STARTUP)

  VALUE           TYPE          NAME
  ----------------------------------

  -------         MODULE        ?C_STARTUP
  C:7F2CH         SEGMENT       ?C_C51STARTUP
  I:0024H         SEGMENT       ?STACK
  C:0000H         PUBLIC        ?C_STARTUP
  D:00E0H         SYMBOL        ACC
  D:00F0H         SYMBOL        B
  D:0083H         SYMBOL        DPH
BL51 BANKED LINKER/LOCATER V6.22.2.0                                                  01/18/2022  14:53:23  PAGE 23


  D:0082H         SYMBOL        DPL
  N:0000H         SYMBOL        IBPSTACK
  N:0100H         SYMBOL        IBPSTACKTOP
  N:0080H         SYMBOL        IDATALEN
  C:7F2FH         SYMBOL        IDATALOOP
  N:0000H         SYMBOL        PBPSTACK
  N:0100H         SYMBOL        PBPSTACKTOP
  N:0000H         SYMBOL        PDATALEN
  N:0000H         SYMBOL        PDATASTART
  N:0000H         SYMBOL        PPAGE
  N:0000H         SYMBOL        PPAGEENABLE
  D:00A0H         SYMBOL        PPAGE_SFR
  D:0081H         SYMBOL        SP
  C:7F2CH         SYMBOL        STARTUP1
  N:0000H         SYMBOL        XBPSTACK
  N:0000H         SYMBOL        XBPSTACKTOP
  N:0000H         SYMBOL        XDATALEN
  N:0000H         SYMBOL        XDATASTART
  C:0000H         LINE#         126
  C:7F2CH         LINE#         133
  C:7F2EH         LINE#         134
  C:7F2FH         LINE#         135
  C:7F30H         LINE#         136
  C:7F32H         LINE#         185
  C:7F35H         LINE#         196
  -------         ENDMOD        ?C_STARTUP

  -------         MODULE        MAIN
  C:0000H         SYMBOL        _ICE_DUMMY_
  D:0080H         PUBLIC        P0
  D:0090H         PUBLIC        P1
  D:00A0H         PUBLIC        P2
  D:00B0H         PUBLIC        P3
  D:00C0H         PUBLIC        P4
  D:00C8H         PUBLIC        P5
  B:00A8H.7       PUBLIC        EA
  D:00E8H         PUBLIC        P6
  D:00F8H         PUBLIC        P7
  D:00A8H         PUBLIC        IE
  X:139DH         PUBLIC        MainTime
  D:00B8H         PUBLIC        IP
  D:00D8H         PUBLIC        CCON
  C:4D8CH         PUBLIC        main
  B:0080H.1       PUBLIC        P01
  B:00C0H.0       PUBLIC        P40
  D:0098H         PUBLIC        SCON
  D:0088H         PUBLIC        TCON
  D:00F0H         PUBLIC        B
  D:00E0H         PUBLIC        ACC
  X:139FH         PUBLIC        UsrKey
  D:00D0H         PUBLIC        PSW
  -------         PROC          MAIN
  C:4D8CH         LINE#         18
  C:4D8CH         LINE#         19
  C:4D8CH         LINE#         20
  C:4D93H         LINE#         21
  C:4D95H         LINE#         22
BL51 BANKED LINKER/LOCATER V6.22.2.0                                                  01/18/2022  14:53:23  PAGE 24


  C:4D98H         LINE#         23
  C:4D9BH         LINE#         24
  C:4D9EH         LINE#         25
  C:4DA1H         LINE#         26
  C:4DA4H         LINE#         28
  C:4DA7H         LINE#         29
  C:4DAAH         LINE#         31
  C:4DB1H         LINE#         32
  C:4DB4H         LINE#         33
  C:4DB6H         LINE#         34
  C:4DBDH         LINE#         35
  C:4DC2H         LINE#         36
  C:4DC5H         LINE#         37
  C:4DCCH         LINE#         38
  C:4DCFH         LINE#         39
  C:4DD2H         LINE#         40
  C:4DD5H         LINE#         45
  C:4DD5H         LINE#         46
  C:4DD5H         LINE#         47
  C:4DDBH         LINE#         48
  C:4DDBH         LINE#         50
  C:4DE4H         LINE#         51
  C:4DE7H         LINE#         52
  C:4DE7H         LINE#         53
  C:4DEDH         LINE#         54
  C:4DEDH         LINE#         55
  C:4E04H         LINE#         56
  C:4E15H         LINE#         57
  C:4E18H         LINE#         58
  C:4E18H         LINE#         67
  C:4E1BH         LINE#         69
  C:4E21H         LINE#         70
  C:4E21H         LINE#         71
  C:4E2EH         LINE#         72
  C:4E3AH         LINE#         73
  C:4E3AH         LINE#         74
  C:4E46H         LINE#         75
  C:4E46H         LINE#         76
  C:4E52H         LINE#         77
  C:4E52H         LINE#         78
  C:4E5EH         LINE#         79
  C:4E5EH         LINE#         80
  C:4E63H         LINE#         81
  C:4E63H         LINE#         82
  C:4E69H         LINE#         83
  C:4E69H         LINE#         84
  C:4E6BH         LINE#         86
  C:4E6EH         LINE#         87
  C:4E76H         LINE#         88
  C:4E79H         LINE#         89
  C:4E79H         LINE#         92
  C:4E7EH         LINE#         96
  C:4E8FH         LINE#         97
  C:4E97H         LINE#         98
  C:4E97H         LINE#         99
  C:4E9AH         LINE#         101
  C:4E9DH         LINE#         102
BL51 BANKED LINKER/LOCATER V6.22.2.0                                                  01/18/2022  14:53:23  PAGE 25


  C:4EA0H         LINE#         103
  C:4EA3H         LINE#         104
  C:4EBBH         LINE#         105
  C:4EBBH         LINE#         106
  C:4EC2H         LINE#         107
  C:4EC4H         LINE#         108
  C:4EC7H         LINE#         109
  C:4EE5H         LINE#         110
  C:4EE5H         LINE#         111
  C:4EF3H         LINE#         112
  C:4EF3H         LINE#         113
  C:4EF6H         LINE#         114
  C:4EF6H         LINE#         115
  C:4EF6H         LINE#         116
  C:4EFEH         LINE#         117
  C:4EFEH         LINE#         118
  C:4F01H         LINE#         120
  C:4F19H         LINE#         121
  C:4F19H         LINE#         122
  C:4F1CH         LINE#         123
  C:4F1FH         LINE#         124
  C:4F1FH         LINE#         125
  C:4F1FH         LINE#         127
  C:4F25H         LINE#         128
  C:4F2DH         LINE#         129
  C:4F4BH         LINE#         130
  C:4F4BH         LINE#         131
  C:4F53H         LINE#         132
  C:4F53H         LINE#         142
  C:4F53H         LINE#         144
  C:4F6AH         LINE#         145
  C:4F6AH         LINE#         146
  C:4F78H         LINE#         147
  C:4F7FH         LINE#         148
  C:4F7FH         LINE#         149
  C:4F84H         LINE#         150
  C:4F84H         LINE#         151
  C:4F84H         LINE#         153
  C:4F84H         LINE#         155
  C:4F8FH         LINE#         156
  C:4F8FH         LINE#         161
  C:4F91H         LINE#         162
  C:4F91H         LINE#         163
  C:4F97H         LINE#         164
  C:4F97H         LINE#         165
  C:4F9AH         LINE#         166
  C:4F9DH         LINE#         167
  C:4F9DH         LINE#         169
  C:4FA2H         LINE#         173
  C:4FABH         LINE#         174
  C:4FABH         LINE#         175
  C:4FAEH         LINE#         176
  C:4FAEH         LINE#         177
  -------         ENDPROC       MAIN
  -------         ENDMOD        MAIN

  -------         MODULE        DRIVER
BL51 BANKED LINKER/LOCATER V6.22.2.0                                                  01/18/2022  14:53:23  PAGE 26


  C:0000H         SYMBOL        _ICE_DUMMY_
  D:0080H         PUBLIC        P0
  D:0090H         PUBLIC        P1
  D:00A0H         PUBLIC        P2
  D:00B0H         PUBLIC        P3
  D:00C0H         PUBLIC        P4
  D:00C8H         PUBLIC        P5
  D:00E8H         PUBLIC        P6
  D:00F8H         PUBLIC        P7
  C:9217H         PUBLIC        _ClearBuf
  X:1389H         PUBLIC        DtmfData
  C:7534H         PUBLIC        GPIO_config
  C:8CC4H         PUBLIC        _HS_memcpy
  D:00A8H         PUBLIC        IE
  C:93E3H         PUBLIC        _delay
  C:985EH         PUBLIC        RelayTask
  C:8A4EH         PUBLIC        UART_config
  D:00B8H         PUBLIC        IP
  C:9409H         PUBLIC        _strlen
  D:00D8H         PUBLIC        CCON
  C:89F4H         PUBLIC        _HS_strcpy
  C:6955H         PUBLIC        SkeyScan
  X:138AH         PUBLIC        SkeyStatus
  C:98F3H         PUBLIC        _HBstrlen
  C:6E30H         PUBLIC        KeyScan
  B:00C0H.0       PUBLIC        P40
  B:0080H.4       PUBLIC        P04
  D:0098H         PUBLIC        SCON
  B:00C0H.1       PUBLIC        P41
  B:0080H.5       PUBLIC        P05
  D:0088H         PUBLIC        TCON
  B:0080H.6       PUBLIC        P06
  B:00F8H.0       PUBLIC        P70
  B:00C0H.3       PUBLIC        P43
  B:00F8H.1       PUBLIC        P71
  B:00F8H.2       PUBLIC        P72
  B:00C8H.4       PUBLIC        P54
  B:00F8H.3       PUBLIC        P73
  B:00C8H.5       PUBLIC        P55
  D:00F0H         PUBLIC        B
  X:138BH         PUBLIC        ResetKeyTime
  D:00E0H         PUBLIC        ACC
  X:138DH         PUBLIC        SkeyStatusOld
  C:7262H         PUBLIC        _lookforstr
  C:8B4EH         PUBLIC        Timer_config
  C:0026H         PUBLIC        _Unlock
  C:91E9H         PUBLIC        _MemIsEmpty
  C:9845H         PUBLIC        Exti_config
  D:00D0H         PUBLIC        PSW
  X:138EH         PUBLIC        Rly1Time
  C:9B41H         PUBLIC        _putchar
  -------         PROC          _DELAY
  D:0006H         SYMBOL        t
  -------         DO            
  D:0004H         SYMBOL        i
  D:0002H         SYMBOL        j
  -------         ENDDO         
BL51 BANKED LINKER/LOCATER V6.22.2.0                                                  01/18/2022  14:53:23  PAGE 27


  C:93E3H         LINE#         14
  C:93E3H         LINE#         15
  C:93E3H         LINE#         17
  C:93EAH         LINE#         18
  C:93F3H         LINE#         19
  C:9408H         LINE#         20
  -------         ENDPROC       _DELAY
  -------         PROC          _PUTCHAR
  X:114CH         SYMBOL        ch
  C:9B41H         LINE#         22
  C:9B46H         LINE#         23
  C:9B46H         LINE#         24
  C:9B49H         LINE#         25
  C:9B4EH         LINE#         26
  -------         ENDPROC       _PUTCHAR
  -------         PROC          _STRLEN
  X:1124H         SYMBOL        pch
  -------         DO            
  D:0007H         SYMBOL        len
  -------         ENDDO         
  C:9409H         LINE#         27
  C:9414H         LINE#         28
  C:9414H         LINE#         29
  C:9416H         LINE#         30
  C:942EH         LINE#         31
  C:942EH         LINE#         32
  -------         ENDPROC       _STRLEN
  -------         PROC          _HBSTRLEN
  D:0001H         SYMBOL        pch
  -------         DO            
  D:0007H         SYMBOL        len
  -------         ENDDO         
  C:98F3H         LINE#         33
  C:98F3H         LINE#         34
  C:98F3H         LINE#         35
  C:98F5H         LINE#         36
  C:98FAH         LINE#         37
  C:98FAH         LINE#         38
  C:98FBH         LINE#         39
  C:98FFH         LINE#         40
  C:98FFH         LINE#         41
  C:9900H         LINE#         42
  C:9900H         LINE#         43
  C:9907H         LINE#         44
  C:9909H         LINE#         45
  C:9909H         LINE#         46
  -------         ENDPROC       _HBSTRLEN
  -------         PROC          _LOOKFORSTR
  X:10D5H         SYMBOL        srcBuf
  X:10D8H         SYMBOL        detBuf
  -------         DO            
  X:10DBH         SYMBOL        i
  X:10DDH         SYMBOL        j
  -------         ENDDO         
  C:7262H         LINE#         48
  C:726DH         LINE#         49
  C:726DH         LINE#         51
BL51 BANKED LINKER/LOCATER V6.22.2.0                                                  01/18/2022  14:53:23  PAGE 28


  C:7274H         LINE#         52
  C:7278H         LINE#         53
  C:7297H         LINE#         54
  C:7297H         LINE#         55
  C:72ABH         LINE#         56
  C:72ABH         LINE#         57
  C:72CCH         LINE#         58
  C:72CCH         LINE#         59
  C:730DH         LINE#         60
  C:730DH         LINE#         61
  C:730DH         LINE#         62
  C:730DH         LINE#         63
  C:731DH         LINE#         64
  C:7338H         LINE#         65
  C:7338H         LINE#         66
  C:7341H         LINE#         67
  C:7341H         LINE#         68
  C:7341H         LINE#         69
  C:7352H         LINE#         70
  C:7355H         LINE#         71
  C:7359H         LINE#         72
  -------         ENDPROC       _LOOKFORSTR
  -------         PROC          _CLEARBUF
  X:1124H         SYMBOL        buf
  D:0004H         SYMBOL        len
  C:9217H         LINE#         74
  C:9222H         LINE#         75
  C:9222H         LINE#         76
  C:922CH         LINE#         77
  C:922CH         LINE#         78
  C:9240H         LINE#         79
  C:9242H         LINE#         80
  -------         ENDPROC       _CLEARBUF
  -------         PROC          _HS_MEMCPY
  X:10D0H         SYMBOL        dst
  X:10D3H         SYMBOL        src
  X:10D6H         SYMBOL        len
  C:8CC4H         LINE#         81
  C:8CCFH         LINE#         82
  C:8CCFH         LINE#         83
  C:8CDDH         LINE#         84
  C:8CDDH         LINE#         85
  C:8D05H         LINE#         86
  C:8D07H         LINE#         87
  -------         ENDPROC       _HS_MEMCPY
  -------         PROC          _HS_STRCPY
  X:109CH         SYMBOL        dst
  X:109FH         SYMBOL        src
  -------         DO            
  D:0006H         SYMBOL        i
  -------         ENDDO         
  C:89F4H         LINE#         88
  C:89FFH         LINE#         89
  C:89FFH         LINE#         90
  C:8A02H         LINE#         91
  C:8A12H         LINE#         92
  C:8A12H         LINE#         93
BL51 BANKED LINKER/LOCATER V6.22.2.0                                                  01/18/2022  14:53:23  PAGE 29


  C:8A38H         LINE#         94
  C:8A3DH         LINE#         95
  C:8A3FH         LINE#         96
  -------         ENDPROC       _HS_STRCPY
  -------         PROC          _MEMISEMPTY
  X:10C5H         SYMBOL        buf
  D:0004H         SYMBOL        len
  C:91E9H         LINE#         99
  C:91F4H         LINE#         100
  C:91F4H         LINE#         101
  C:91FEH         LINE#         102
  C:91FEH         LINE#         103
  C:9213H         LINE#         104
  C:9213H         LINE#         105
  C:9215H         LINE#         106
  C:9215H         LINE#         107
  C:9215H         LINE#         108
  C:9216H         LINE#         109
  -------         ENDPROC       _MEMISEMPTY
  -------         PROC          GPIO_CONFIG
  -------         DO            
  X:107CH         SYMBOL        GPIO_InitStructure
  -------         ENDDO         
  C:7534H         LINE#         111
  C:7534H         LINE#         112
  C:7534H         LINE#         114
  C:753AH         LINE#         118
  C:753FH         LINE#         119
  C:754AH         LINE#         121
  C:7555H         LINE#         124
  C:7560H         LINE#         126
  C:7566H         LINE#         127
  C:7571H         LINE#         129
  C:7577H         LINE#         130
  C:7581H         LINE#         132
  C:7587H         LINE#         133
  C:7592H         LINE#         135
  C:7598H         LINE#         136
  C:75A3H         LINE#         138
  C:75A9H         LINE#         139
  C:75B4H         LINE#         142
  C:75BAH         LINE#         144
  C:75BEH         LINE#         145
  C:75C9H         LINE#         147
  C:75CFH         LINE#         148
  C:75DAH         LINE#         150
  C:75E0H         LINE#         151
  C:75EBH         LINE#         153
  C:75F1H         LINE#         154
  C:75FCH         LINE#         156
  C:7602H         LINE#         157
  C:760DH         LINE#         159
  C:760FH         LINE#         160
  C:7611H         LINE#         162
  C:7613H         LINE#         163
  C:7615H         LINE#         164
  C:7617H         LINE#         166
BL51 BANKED LINKER/LOCATER V6.22.2.0                                                  01/18/2022  14:53:23  PAGE 30


  C:7619H         LINE#         167
  C:761BH         LINE#         170
  -------         ENDPROC       GPIO_CONFIG
  -------         PROC          UART_CONFIG
  -------         DO            
  X:107CH         SYMBOL        COMx_InitStructure
  -------         ENDDO         
  C:8A4EH         LINE#         172
  C:8A4EH         LINE#         173
  C:8A4EH         LINE#         175
  C:8A54H         LINE#         176
  C:8A58H         LINE#         177
  C:8A60H         LINE#         178
  C:8A66H         LINE#         179
  C:8A69H         LINE#         180
  C:8A6CH         LINE#         181
  C:8A6EH         LINE#         182
  C:8A71H         LINE#         183
  C:8A7CH         LINE#         184
  C:8A85H         LINE#         187
  C:8A8BH         LINE#         188
  C:8A96H         LINE#         189
  C:8A9BH         LINE#         190
  -------         ENDPROC       UART_CONFIG
  -------         PROC          TIMER_CONFIG
  -------         DO            
  X:107CH         SYMBOL        TIM_InitStructure
  -------         ENDDO         
  C:8B4EH         LINE#         203
  C:8B4EH         LINE#         204
  C:8B4EH         LINE#         206
  C:8B53H         LINE#         207
  C:8B55H         LINE#         208
  C:8B58H         LINE#         209
  C:8B5BH         LINE#         210
  C:8B5DH         LINE#         211
  C:8B65H         LINE#         212
  C:8B69H         LINE#         214
  C:8B73H         LINE#         216
  C:8B7DH         LINE#         217
  C:8B88H         LINE#         219
  C:8B92H         LINE#         220
  -------         ENDPROC       TIMER_CONFIG
  -------         PROC          EXTI_CONFIG
  -------         DO            
  X:107CH         SYMBOL        Exti_InitStructure
  -------         ENDDO         
  C:9845H         LINE#         224
  C:9845H         LINE#         225
  C:9845H         LINE#         228
  C:984BH         LINE#         229
  C:9850H         LINE#         230
  C:9854H         LINE#         231
  -------         ENDPROC       EXTI_CONFIG
  -------         PROC          KEYSCAN
  -------         DO            
  X:1385H         SYMBOL        KeyStep
BL51 BANKED LINKER/LOCATER V6.22.2.0                                                  01/18/2022  14:53:23  PAGE 31


  X:1386H         SYMBOL        KeyTime
  X:107CH         SYMBOL        key
  -------         ENDDO         
  C:6E30H         LINE#         238
  C:6E30H         LINE#         239
  C:6E30H         LINE#         243
  C:6E50H         LINE#         244
  C:6E50H         LINE#         245
  C:6E50H         LINE#         246
  C:6E53H         LINE#         247
  C:6E5EH         LINE#         248
  C:6E5EH         LINE#         249
  C:6E64H         LINE#         250
  C:6E6AH         LINE#         251
  C:6E6AH         LINE#         252
  C:6E6DH         LINE#         253
  C:6E6DH         LINE#         254
  C:6E75H         LINE#         255
  C:6E75H         LINE#         256
  C:6E75H         LINE#         257
  C:6E78H         LINE#         258
  C:6E83H         LINE#         259
  C:6E83H         LINE#         260
  C:6E89H         LINE#         261
  C:6E89H         LINE#         262
  C:6E8CH         LINE#         263
  C:6E8CH         LINE#         264
  C:6E94H         LINE#         265
  C:6E97H         LINE#         266
  C:6E9DH         LINE#         267
  C:6EA0H         LINE#         268
  C:6EA0H         LINE#         269
  C:6EA6H         LINE#         270
  C:6EA9H         LINE#         271
  C:6EAFH         LINE#         272
  C:6EEAH         LINE#         273
  C:6EEAH         LINE#         274
  C:6EEAH         LINE#         275
  C:6EEDH         LINE#         276
  C:6EEDH         LINE#         277
  C:6EF0H         LINE#         278
  C:6EF0H         LINE#         279
  C:6EF3H         LINE#         280
  C:6EF3H         LINE#         281
  C:6EF6H         LINE#         282
  C:6EF6H         LINE#         283
  C:6EF9H         LINE#         284
  C:6EF9H         LINE#         285
  C:6EFCH         LINE#         286
  C:6EFCH         LINE#         287
  C:6EFFH         LINE#         288
  C:6EFFH         LINE#         289
  C:6F02H         LINE#         290
  C:6F02H         LINE#         291
  C:6F05H         LINE#         292
  C:6F05H         LINE#         293
  C:6F08H         LINE#         294
BL51 BANKED LINKER/LOCATER V6.22.2.0                                                  01/18/2022  14:53:23  PAGE 32


  C:6F08H         LINE#         295
  C:6F0BH         LINE#         296
  C:6F0BH         LINE#         297
  C:6F0EH         LINE#         298
  C:6F0EH         LINE#         299
  C:6F11H         LINE#         300
  C:6F11H         LINE#         301
  C:6F14H         LINE#         302
  C:6F14H         LINE#         303
  C:6F17H         LINE#         304
  C:6F17H         LINE#         305
  C:6F1AH         LINE#         306
  C:6F1AH         LINE#         307
  C:6F1AH         LINE#         308
  C:6F1AH         LINE#         309
  C:6F22H         LINE#         310
  C:6F22H         LINE#         311
  C:6F28H         LINE#         312
  C:6F2CH         LINE#         313
  C:6F2CH         LINE#         314
  C:6F2EH         LINE#         315
  C:6F2EH         LINE#         316
  C:6F36H         LINE#         317
  C:6F36H         LINE#         318
  C:6F3CH         LINE#         319
  C:6F3EH         LINE#         320
  C:6F46H         LINE#         321
  C:6F46H         LINE#         322
  C:6F4AH         LINE#         323
  C:6F4AH         LINE#         324
  C:6F4AH         LINE#         326
  C:6F4AH         LINE#         327
  C:6F4CH         LINE#         328
  -------         ENDPROC       KEYSCAN
  -------         PROC          SKEYSCAN
  -------         DO            
  X:1387H         SYMBOL        SkeyStep
  X:1388H         SYMBOL        SkeyTime
  D:0007H         SYMBOL        key
  -------         ENDDO         
  C:6955H         LINE#         333
  C:6955H         LINE#         334
  C:6955H         LINE#         338
  C:6955H         LINE#         339
  C:6962H         LINE#         340
  C:6962H         LINE#         341
  C:6962H         LINE#         342
  C:6969H         LINE#         343
  C:6971H         LINE#         344
  C:6979H         LINE#         345
  C:6981H         LINE#         346
  C:6987H         LINE#         348
  C:698EH         LINE#         349
  C:698EH         LINE#         350
  C:6994H         LINE#         351
  C:699AH         LINE#         352
  C:699AH         LINE#         353
BL51 BANKED LINKER/LOCATER V6.22.2.0                                                  01/18/2022  14:53:23  PAGE 33


  C:699CH         LINE#         354
  C:699CH         LINE#         355
  C:69A3H         LINE#         356
  C:69ABH         LINE#         357
  C:69B3H         LINE#         358
  C:69BBH         LINE#         359
  C:69C1H         LINE#         361
  C:69C8H         LINE#         362
  C:69C8H         LINE#         363
  C:69CDH         LINE#         364
  C:69CFH         LINE#         365
  C:69D7H         LINE#         366
  C:69D7H         LINE#         367
  C:69DBH         LINE#         368
  C:69E0H         LINE#         369
  C:69E0H         LINE#         370
  C:69E0H         LINE#         372
  C:69E0H         LINE#         373
  C:69EDH         LINE#         374
  C:69EDH         LINE#         376
  C:69FBH         LINE#         377
  C:69FBH         LINE#         378
  C:6A07H         LINE#         379
  C:6A10H         LINE#         380
  C:6A10H         LINE#         381
  C:6A24H         LINE#         382
  C:6A24H         LINE#         383
  C:6A30H         LINE#         384
  C:6A39H         LINE#         385
  C:6A39H         LINE#         386
  C:6A49H         LINE#         387
  C:6A49H         LINE#         388
  C:6A51H         LINE#         389
  C:6A5AH         LINE#         390
  C:6A5AH         LINE#         391
  C:6A5AH         LINE#         392
  C:6A5AH         LINE#         394
  C:6A5AH         LINE#         395
  C:6A5AH         LINE#         396
  C:6A5AH         LINE#         398
  C:6A5AH         LINE#         399
  C:6A62H         LINE#         400
  C:6A62H         LINE#         401
  C:6A6AH         LINE#         402
  C:6A6AH         LINE#         403
  C:6A74H         LINE#         404
  C:6A74H         LINE#         405
  C:6A82H         LINE#         406
  C:6A82H         LINE#         407
  C:6A87H         LINE#         408
  C:6A8AH         LINE#         409
  C:6A93H         LINE#         410
  C:6A93H         LINE#         411
  C:6A93H         LINE#         412
  C:6A93H         LINE#         413
  -------         ENDPROC       SKEYSCAN
  -------         PROC          _UNLOCK
BL51 BANKED LINKER/LOCATER V6.22.2.0                                                  01/18/2022  14:53:23  PAGE 34


  D:0007H         SYMBOL        idx
  D:0005H         SYMBOL        time
  B:0020H.0       SYMBOL        sound
  C:0026H         LINE#         416
  C:0026H         LINE#         417
  C:0026H         LINE#         418
  C:0032H         LINE#         419
  C:0038H         LINE#         420
  C:0038H         LINE#         421
  C:003AH         LINE#         422
  C:003CH         LINE#         423
  C:0042H         LINE#         424
  C:0042H         LINE#         425
  C:0044H         LINE#         426
  C:0044H         LINE#         427
  -------         ENDPROC       _UNLOCK
  -------         PROC          RELAYTASK
  C:985EH         LINE#         429
  C:985EH         LINE#         430
  C:985EH         LINE#         431
  C:9864H         LINE#         432
  C:9864H         LINE#         433
  C:9868H         LINE#         434
  C:9868H         LINE#         435
  C:986AH         LINE#         436
  C:986AH         LINE#         437
  C:986AH         LINE#         438
  C:9870H         LINE#         439
  C:9870H         LINE#         440
  C:9874H         LINE#         441
  C:9874H         LINE#         442
  C:9876H         LINE#         443
  C:9876H         LINE#         444
  C:9876H         LINE#         445
  -------         ENDPROC       RELAYTASK
  -------         ENDMOD        DRIVER

  -------         MODULE        LCD12864
  C:0000H         SYMBOL        _ICE_DUMMY_
  C:97F5H         PUBLIC        LcdClear
  D:0080H         PUBLIC        P0
  D:0090H         PUBLIC        P1
  D:00A0H         PUBLIC        P2
  X:089EH         PUBLIC        FlashTime
  D:00B0H         PUBLIC        P3
  C:85CDH         PUBLIC        _DisplayCsq
  D:00C0H         PUBLIC        P4
  D:00C8H         PUBLIC        P5
  C:0136H         PUBLIC        AsciiFont
  D:00E8H         PUBLIC        P6
  C:9065H         PUBLIC        FlashTask
  D:00F8H         PUBLIC        P7
  C:7E9BH         PUBLIC        _DisplayFl
  D:00A8H         PUBLIC        IE
  C:9AC1H         PUBLIC        LCDAddRow
  D:00B8H         PUBLIC        IP
  C:9B6DH         PUBLIC        _SetFlash
BL51 BANKED LINKER/LOCATER V6.22.2.0                                                  01/18/2022  14:53:23  PAGE 35


  C:83EFH         PUBLIC        _WriteLCDico
  B:0022H.6       PUBLIC        bRight2Left
  D:00D8H         PUBLIC        CCON
  C:96DAH         PUBLIC        _CheckUnicode
  X:08A0H         PUBLIC        mapGDRAM
  D:0098H         PUBLIC        SCON
  D:0088H         PUBLIC        TCON
  C:00A6H         PUBLIC        IcoFont
  B:00C8H.2       PUBLIC        P52
  B:00C8H.3       PUBLIC        P53
  B:00C0H.4       PUBLIC        P44
  B:0022H.7       PUBLIC        flg
  D:00F0H         PUBLIC        B
  C:98DBH         PUBLIC        _lcd_wcmd
  C:7D76H         PUBLIC        _BitBlt
  C:9680H         PUBLIC        _lcd_wdat
  D:00E0H         PUBLIC        ACC
  X:0CA0H         SYMBOL        lcdCol
  C:9966H         PUBLIC        _DisplayString
  C:975EH         PUBLIC        lcd_busy
  C:654EH         PUBLIC        _WriteLCD
  X:0CA1H         PUBLIC        Fl_X
  X:0CA2H         PUBLIC        Fl_Y
  X:0CA3H         SYMBOL        lcdRow
  C:9A9EH         PUBLIC        _DisplayIco
  C:0736H         PUBLIC        HebrewFont
  D:00D0H         PUBLIC        PSW
  C:957BH         PUBLIC        Init_12864
  -------         PROC          LCD_BUSY
  -------         DO            
  B:0020H.2       SYMBOL        result
  -------         ENDDO         
  C:975EH         LINE#         8
  C:975EH         LINE#         9
  C:975EH         LINE#         12
  C:9761H         LINE#         13
  C:9763H         LINE#         14
  C:9765H         LINE#         15
  C:9767H         LINE#         16
  C:9769H         LINE#         17
  C:9777H         LINE#         18
  C:977BH         LINE#         20
  C:977DH         LINE#         21
  -------         ENDPROC       LCD_BUSY
  -------         PROC          _LCD_WCMD
  D:0007H         SYMBOL        cmd
  C:98DBH         LINE#         27
  C:98DBH         LINE#         28
  C:98DBH         LINE#         29
  C:98E0H         LINE#         31
  C:98E2H         LINE#         32
  C:98E4H         LINE#         33
  C:98E6H         LINE#         34
  C:98E7H         LINE#         35
  C:98E8H         LINE#         36
  C:98EAH         LINE#         37
  C:98ECH         LINE#         39
BL51 BANKED LINKER/LOCATER V6.22.2.0                                                  01/18/2022  14:53:23  PAGE 36


  C:98EEH         LINE#         40
  C:98F0H         LINE#         41
  C:98F2H         LINE#         42
  -------         ENDPROC       _LCD_WCMD
  -------         PROC          L?0070
  -------         ENDPROC       L?0070
  -------         PROC          _LCD_WDAT
  D:0007H         SYMBOL        dat
  C:9680H         LINE#         49
  C:9680H         LINE#         50
  C:9680H         LINE#         51
  C:9685H         LINE#         53
  C:9687H         LINE#         54
  C:9689H         LINE#         55
  C:968BH         LINE#         56
  C:968DH         LINE#         57
  C:968FH         LINE#         59
  C:9691H         LINE#         60
  C:9693H         LINE#         61
  C:9695H         LINE#         62
  -------         ENDPROC       _LCD_WDAT
  -------         PROC          INIT_12864
  C:957BH         LINE#         63
  C:957BH         LINE#         64
  C:957BH         LINE#         65
  C:957DH         LINE#         67
  C:9582H         LINE#         69
  C:9584H         LINE#         70
  C:9587H         LINE#         71
  C:9589H         LINE#         72
  C:958EH         LINE#         73
  C:9590H         LINE#         74
  C:9595H         LINE#         75
  C:9597H         LINE#         76
  C:959CH         LINE#         77
  C:959EH         LINE#         78
  -------         ENDPROC       INIT_12864
  -------         PROC          LCDCLEAR
  C:97F5H         LINE#         80
  C:97F5H         LINE#         81
  C:97F5H         LINE#         82
  C:97FAH         LINE#         83
  C:97FCH         LINE#         85
  C:9809H         LINE#         87
  -------         ENDPROC       LCDCLEAR
  -------         PROC          _BITBLT
  X:1124H         SYMBOL        pBmp
  -------         DO            
  X:1127H         SYMBOL        i
  D:0006H         SYMBOL        j
  X:1128H         SYMBOL        pNextFrame
  -------         ENDDO         
  C:7D76H         LINE#         158
  C:7D81H         LINE#         159
  C:7D81H         LINE#         161
  C:7D93H         LINE#         163
  C:7DA5H         LINE#         164
BL51 BANKED LINKER/LOCATER V6.22.2.0                                                  01/18/2022  14:53:23  PAGE 37


  C:7DA5H         LINE#         165
  C:7DAAH         LINE#         166
  C:7DB1H         LINE#         167
  C:7DB6H         LINE#         168
  C:7DBBH         LINE#         170
  C:7DC1H         LINE#         172
  C:7DCDH         LINE#         173
  C:7DCDH         LINE#         174
  C:7DD3H         LINE#         175
  C:7DDDH         LINE#         176
  C:7DE0H         LINE#         177
  C:7DECH         LINE#         178
  C:7DECH         LINE#         179
  C:7DF2H         LINE#         180
  C:7DFCH         LINE#         181
  C:7DFFH         LINE#         183
  C:7E08H         LINE#         184
  -------         ENDPROC       _BITBLT
  -------         PROC          _DISPLAYFL
  D:0006H         SYMBOL        X
  D:0005H         SYMBOL        Y
  B:0020H.0       SYMBOL        e
  C:7E9BH         LINE#         186
  C:7E9DH         LINE#         187
  C:7E9DH         LINE#         189
  C:7EA2H         LINE#         190
  C:7EC0H         LINE#         191
  C:7EDAH         LINE#         192
  C:7EDFH         LINE#         193
  C:7EE3H         LINE#         194
  C:7EE3H         LINE#         195
  C:7F04H         LINE#         196
  C:7F04H         LINE#         197
  -------         ENDPROC       _DISPLAYFL
  -------         PROC          _CHECKUNICODE
  D:0001H         SYMBOL        pInfo
  C:96DAH         LINE#         204
  C:96DAH         LINE#         205
  C:96DAH         LINE#         206
  C:96E4H         LINE#         207
  C:96E4H         LINE#         208
  C:96EEH         LINE#         209
  C:96EEH         LINE#         210
  C:96F0H         LINE#         211
  C:96F0H         LINE#         212
  C:96F7H         LINE#         213
  C:96F9H         LINE#         214
  C:96FAH         LINE#         215
  -------         ENDPROC       _CHECKUNICODE
  -------         PROC          LCDADDROW
  C:9AC1H         LINE#         216
  C:9AC1H         LINE#         217
  C:9AC1H         LINE#         218
  C:9AC7H         LINE#         219
  C:9ACBH         LINE#         220
  C:9AD0H         LINE#         221
  -------         ENDPROC       LCDADDROW
BL51 BANKED LINKER/LOCATER V6.22.2.0                                                  01/18/2022  14:53:23  PAGE 38


  -------         PROC          _WRITELCD
  X:1124H         SYMBOL        pInfo
  -------         DO            
  X:1127H         SYMBOL        x
  D:0007H         SYMBOL        y
  X:1128H         SYMBOL        c
  X:1129H         SYMBOL        Font
  D:0006H         SYMBOL        iUnicode
  -------         ENDDO         
  C:654EH         LINE#         222
  C:6559H         LINE#         223
  C:6559H         LINE#         230
  C:655EH         LINE#         232
  C:656CH         LINE#         234
  C:6587H         LINE#         235
  C:6587H         LINE#         237
  C:658CH         LINE#         239
  C:6592H         LINE#         240
  C:659CH         LINE#         246
  C:659FH         LINE#         247
  C:659FH         LINE#         249
  C:65ADH         LINE#         250
  C:65B7H         LINE#         251
  C:65B7H         LINE#         252
  C:65C1H         LINE#         253
  C:65CFH         LINE#         254
  C:65D1H         LINE#         256
  C:65D1H         LINE#         257
  C:65DBH         LINE#         261
  C:65DBH         LINE#         266
  C:65DFH         LINE#         267
  C:65E2H         LINE#         268
  C:65E2H         LINE#         269
  C:65F5H         LINE#         270
  C:6607H         LINE#         271
  C:6629H         LINE#         272
  C:6629H         LINE#         276
  C:6629H         LINE#         277
  C:6629H         LINE#         278
  C:6629H         LINE#         279
  C:662FH         LINE#         280
  C:6636H         LINE#         281
  C:6636H         LINE#         282
  C:663BH         LINE#         283
  C:6640H         LINE#         284
  C:6640H         LINE#         286
  C:6643H         LINE#         287
  C:664DH         LINE#         288
  C:664DH         LINE#         289
  C:6659H         LINE#         290
  C:6659H         LINE#         291
  C:669AH         LINE#         292
  C:669DH         LINE#         293
  C:66A7H         LINE#         294
  C:66AAH         LINE#         296
  -------         ENDPROC       _WRITELCD
  -------         PROC          _WRITELCDICO
BL51 BANKED LINKER/LOCATER V6.22.2.0                                                  01/18/2022  14:53:23  PAGE 39


  X:1089H         SYMBOL        Row
  X:108AH         SYMBOL        Col
  D:0003H         SYMBOL        ico
  X:108CH         SYMBOL        mask
  -------         DO            
  D:0007H         SYMBOL        y
  X:108DH         SYMBOL        Font
  -------         ENDDO         
  C:83EFH         LINE#         298
  C:83F7H         LINE#         299
  C:83F7H         LINE#         303
  C:8410H         LINE#         304
  C:841CH         LINE#         305
  C:841CH         LINE#         306
  C:8463H         LINE#         307
  C:8466H         LINE#         308
  -------         ENDPROC       _WRITELCDICO
  -------         PROC          _DISPLAYSTRING
  D:0007H         SYMBOL        X
  D:0005H         SYMBOL        Y
  D:0001H         SYMBOL        ptr
  C:9966H         LINE#         310
  C:9966H         LINE#         311
  C:9966H         LINE#         312
  C:996BH         LINE#         313
  C:9970H         LINE#         314
  C:9973H         LINE#         315
  -------         ENDPROC       _DISPLAYSTRING
  -------         PROC          _DISPLAYICO
  D:0007H         SYMBOL        X
  D:0005H         SYMBOL        Y
  D:0003H         SYMBOL        ico
  C:9A9EH         LINE#         318
  C:9A9EH         LINE#         319
  C:9A9EH         LINE#         320
  C:9AA7H         LINE#         321
  -------         ENDPROC       _DISPLAYICO
  -------         PROC          _DISPLAYCSQ
  X:13A0H         SYMBOL        X
  X:13A1H         SYMBOL        Y
  D:0004H         SYMBOL        csq
  -------         DO            
  D:0006H         SYMBOL        i
  X:13A2H         SYMBOL        msk
  -------         ENDDO         
  C:85CDH         LINE#         323
  C:85D7H         LINE#         324
  C:85D7H         LINE#         326
  C:85DAH         LINE#         327
  C:85E0H         LINE#         328
  C:85E9H         LINE#         329
  C:85E9H         LINE#         330
  C:85EBH         LINE#         331
  C:85EBH         LINE#         332
  C:85F2H         LINE#         333
  C:85F2H         LINE#         334
  C:85FBH         LINE#         335
BL51 BANKED LINKER/LOCATER V6.22.2.0                                                  01/18/2022  14:53:23  PAGE 40


  C:85FEH         LINE#         336
  C:8601H         LINE#         337
  C:8623H         LINE#         338
  C:8637H         LINE#         339
  -------         ENDPROC       _DISPLAYCSQ
  -------         PROC          _SETFLASH
  D:0007H         SYMBOL        X
  D:0005H         SYMBOL        Y
  C:9B6DH         LINE#         346
  C:9B6DH         LINE#         347
  C:9B6DH         LINE#         348
  C:9B72H         LINE#         349
  C:9B75H         LINE#         350
  -------         ENDPROC       _SETFLASH
  -------         PROC          FLASHTASK
  C:9065H         LINE#         351
  C:9065H         LINE#         352
  C:9065H         LINE#         353
  C:9073H         LINE#         354
  C:9073H         LINE#         356
  C:9073H         LINE#         357
  C:9086H         LINE#         358
  C:9086H         LINE#         359
  C:908DH         LINE#         360
  C:9094H         LINE#         361
  C:9096H         LINE#         362
  C:9096H         LINE#         363
  -------         ENDPROC       FLASHTASK
  -------         ENDMOD        LCD12864

  -------         MODULE        GSM
  C:0000H         SYMBOL        _ICE_DUMMY_
  C:5C69H         PUBLIC        _AtCmdCb_cpin
  X:124EH         PUBLIC        StrSetVolum
  D:0080H         PUBLIC        P0
  D:0090H         PUBLIC        P1
  D:00A0H         PUBLIC        P2
  C:926FH         PUBLIC        _GSM_send_dtmf
  D:00B0H         PUBLIC        P3
  D:00C0H         PUBLIC        P4
  D:00C8H         PUBLIC        P5
  D:00E8H         PUBLIC        P6
  D:00F8H         PUBLIC        P7
  C:8269H         PUBLIC        _GSM_SetVolum
  C:2AA1H         PUBLIC        _ModemReceiveHandle
  D:00A8H         PUBLIC        IE
  C:92C5H         PUBLIC        GSM_GetCsq
  D:00B8H         PUBLIC        IP
  C:63E0H         PUBLIC        _AtCmdCb_csq
  X:1262H         PUBLIC        TalkTime
  D:00D8H         PUBLIC        CCON
  C:9877H         PUBLIC        GSM_Huangup
  C:8F99H         PUBLIC        _AtCmdCb_at
  B:0080H.0       PUBLIC        P00
  C:959FH         PUBLIC        GSM_Repower
  X:1264H         PUBLIC        GsmStatus
  D:0098H         PUBLIC        SCON
BL51 BANKED LINKER/LOCATER V6.22.2.0                                                  01/18/2022  14:53:23  PAGE 41


  B:00C0H.1       PUBLIC        P41
  D:0088H         PUBLIC        TCON
  B:00F8H.0       PUBLIC        P70
  B:0021H.2       PUBLIC        WaitCsq
  D:00F0H         PUBLIC        B
  C:3561H         SYMBOL        _?ix1000
  C:88D1H         PUBLIC        _GSM_Call
  D:00E0H         PUBLIC        ACC
  X:1265H         PUBLIC        CallInTime
  X:1267H         PUBLIC        CallOutTime
  B:0021H.3       PUBLIC        GsmCsqFlag
  X:1269H         PUBLIC        GsmInitTime
  X:126BH         PUBLIC        GsmCsq
  X:126CH         PUBLIC        PaOpenTime
  B:0021H.4       PUBLIC        GsmCallOk
  C:8FCCH         PUBLIC        _AtCmdCb_clcc
  X:126DH         PUBLIC        AtCmdBuf
  C:9696H         PUBLIC        GSM_StartInit
  X:12BBH         PUBLIC        AtCmdIdx
  C:356EH         PUBLIC        GSM_InitTask
  C:60F0H         PUBLIC        _AtCmdCb_creg
  X:12BCH         PUBLIC        AtCmdRetryTime
  D:00D0H         PUBLIC        PSW
  C:6D06H         PUBLIC        _GsmUARTCmd
  -------         PROC          _ATCMDCB_AT
  D:0001H         SYMBOL        pRspStr
  -------         DO            
  D:0001H         SYMBOL        p
  X:1249H         SYMBOL        count
  -------         ENDDO         
  C:8F99H         LINE#         21
  C:8F99H         LINE#         22
  C:8F99H         LINE#         26
  C:8F99H         LINE#         34
  C:8FB2H         LINE#         35
  C:8FB2H         LINE#         36
  C:8FB5H         LINE#         37
  C:8FB5H         LINE#         40
  C:8FC4H         LINE#         41
  C:8FC4H         LINE#         42
  C:8FC6H         LINE#         43
  C:8FC9H         LINE#         44
  C:8FC9H         LINE#         45
  C:8FCBH         LINE#         46
  -------         ENDPROC       _ATCMDCB_AT
  -------         PROC          _ATCMDCB_CPIN
  D:0001H         SYMBOL        pRspStr
  -------         DO            
  X:107CH         SYMBOL        rspValue
  C:352BH         SYMBOL        rspStrTable
  X:107DH         SYMBOL        rspType
  X:107FH         SYMBOL        n
  X:1080H         SYMBOL        stat
  X:1081H         SYMBOL        i
  X:1082H         SYMBOL        p
  X:124AH         SYMBOL        count
  -------         ENDDO         
BL51 BANKED LINKER/LOCATER V6.22.2.0                                                  01/18/2022  14:53:23  PAGE 42


  C:5C69H         LINE#         48
  C:5C69H         LINE#         49
  C:5C69H         LINE#         50
  C:5C6EH         LINE#         52
  C:5C74H         LINE#         53
  C:5C77H         LINE#         54
  C:5C79H         LINE#         55
  C:5C7BH         LINE#         56
  C:5C84H         LINE#         65
  C:5C9AH         LINE#         66
  C:5C9AH         LINE#         67
  C:5CD3H         LINE#         68
  C:5CD3H         LINE#         69
  C:5CE2H         LINE#         70
  C:5CE6H         LINE#         71
  C:5D47H         LINE#         72
  C:5D47H         LINE#         73
  C:5D49H         LINE#         74
  C:5D49H         LINE#         75
  C:5D52H         LINE#         79
  C:5D6BH         LINE#         80
  C:5D6BH         LINE#         81
  C:5D6BH         LINE#         82
  C:5D71H         LINE#         83
  C:5D76H         LINE#         85
  C:5D78H         LINE#         86
  C:5D78H         LINE#         87
  C:5D85H         LINE#         88
  C:5D85H         LINE#         89
  C:5D8BH         LINE#         90
  C:5D90H         LINE#         91
  C:5D92H         LINE#         92
  C:5D92H         LINE#         93
  C:5D97H         LINE#         94
  C:5D9DH         LINE#         95
  C:5D9DH         LINE#         96
  C:5DA3H         LINE#         98
  C:5DA5H         LINE#         99
  C:5DA5H         LINE#         100
  C:5DB2H         LINE#         101
  C:5DB2H         LINE#         102
  C:5DB8H         LINE#         103
  C:5DBDH         LINE#         104
  C:5DBFH         LINE#         105
  C:5DBFH         LINE#         106
  C:5DC4H         LINE#         107
  C:5DCAH         LINE#         108
  C:5DCAH         LINE#         109
  C:5DCCH         LINE#         111
  C:5DCCH         LINE#         112
  C:5DD2H         LINE#         114
  C:5DD8H         LINE#         115
  C:5DD8H         LINE#         116
  C:5DD8H         LINE#         117
  C:5DD8H         LINE#         118
  C:5DD8H         LINE#         120
  C:5DE9H         LINE#         121
BL51 BANKED LINKER/LOCATER V6.22.2.0                                                  01/18/2022  14:53:23  PAGE 43


  C:5DEEH         LINE#         122
  -------         ENDPROC       _ATCMDCB_CPIN
  -------         PROC          _ATCMDCB_CREG
  D:0001H         SYMBOL        pRspStr
  -------         DO            
  X:107CH         SYMBOL        rspValue
  C:3537H         SYMBOL        rspStrTable
  X:107DH         SYMBOL        rspType
  X:107FH         SYMBOL        n
  X:1080H         SYMBOL        stat
  X:1081H         SYMBOL        i
  X:1082H         SYMBOL        p
  D:0006H         SYMBOL        tmp
  X:124BH         SYMBOL        count
  -------         ENDDO         
  C:60F0H         LINE#         124
  C:60F0H         LINE#         125
  C:60F0H         LINE#         126
  C:60F5H         LINE#         128
  C:60FBH         LINE#         129
  C:60FEH         LINE#         130
  C:6100H         LINE#         131
  C:6102H         LINE#         132
  C:610BH         LINE#         142
  C:6121H         LINE#         143
  C:6121H         LINE#         144
  C:6152H         LINE#         145
  C:615DH         LINE#         146
  C:615DH         LINE#         147
  C:6166H         LINE#         148
  C:6175H         LINE#         149
  C:617CH         LINE#         150
  C:61DDH         LINE#         151
  C:61F6H         LINE#         152
  C:61F6H         LINE#         153
  C:61F8H         LINE#         154
  C:61F8H         LINE#         155
  C:6201H         LINE#         159
  C:6213H         LINE#         160
  C:6213H         LINE#         162
  C:6213H         LINE#         163
  C:6220H         LINE#         164
  C:6220H         LINE#         165
  C:6220H         LINE#         166
  C:6222H         LINE#         173
  C:6222H         LINE#         174
  C:622AH         LINE#         175
  C:622AH         LINE#         176
  C:622FH         LINE#         177
  C:622FH         LINE#         178
  C:6231H         LINE#         179
  C:6231H         LINE#         180
  C:623EH         LINE#         184
  C:6244H         LINE#         187
  C:6249H         LINE#         188
  C:624BH         LINE#         189
  C:624BH         LINE#         190
BL51 BANKED LINKER/LOCATER V6.22.2.0                                                  01/18/2022  14:53:23  PAGE 44


  C:6250H         LINE#         191
  C:6256H         LINE#         192
  C:6256H         LINE#         193
  C:6256H         LINE#         194
  C:6256H         LINE#         196
  C:6256H         LINE#         197
  C:6256H         LINE#         198
  C:6256H         LINE#         200
  C:6267H         LINE#         202
  C:626CH         LINE#         203
  -------         ENDPROC       _ATCMDCB_CREG
  -------         PROC          _ATCMDCB_CSQ
  D:0001H         SYMBOL        pRspStr
  -------         DO            
  X:107CH         SYMBOL        rspValue
  C:353DH         SYMBOL        rspStrTable
  X:107DH         SYMBOL        rspType
  X:107FH         SYMBOL        csq
  X:1080H         SYMBOL        stat
  X:1081H         SYMBOL        i
  X:1082H         SYMBOL        p
  D:0006H         SYMBOL        tmp
  X:124CH         SYMBOL        count
  -------         ENDDO         
  C:63E0H         LINE#         204
  C:63E0H         LINE#         205
  C:63E0H         LINE#         206
  C:63E5H         LINE#         208
  C:63EBH         LINE#         209
  C:63EEH         LINE#         210
  C:63F0H         LINE#         211
  C:63F2H         LINE#         212
  C:63FBH         LINE#         216
  C:63FDH         LINE#         224
  C:6413H         LINE#         225
  C:6413H         LINE#         226
  C:6444H         LINE#         227
  C:644FH         LINE#         228
  C:644FH         LINE#         229
  C:6458H         LINE#         230
  C:6467H         LINE#         231
  C:646EH         LINE#         232
  C:64CFH         LINE#         233
  C:64E8H         LINE#         234
  C:64E8H         LINE#         235
  C:64EAH         LINE#         236
  C:64EAH         LINE#         237
  C:64F3H         LINE#         241
  C:6505H         LINE#         242
  C:6505H         LINE#         244
  C:6505H         LINE#         245
  C:650DH         LINE#         246
  C:6513H         LINE#         247
  C:6518H         LINE#         248
  C:651AH         LINE#         249
  C:651AH         LINE#         250
  C:651FH         LINE#         251
BL51 BANKED LINKER/LOCATER V6.22.2.0                                                  01/18/2022  14:53:23  PAGE 45


  C:6525H         LINE#         252
  C:6525H         LINE#         253
  C:6527H         LINE#         255
  C:6527H         LINE#         256
  C:652FH         LINE#         257
  C:6531H         LINE#         258
  C:6537H         LINE#         259
  C:6537H         LINE#         261
  C:6537H         LINE#         262
  C:6537H         LINE#         263
  C:6537H         LINE#         265
  C:6548H         LINE#         267
  C:654DH         LINE#         268
  -------         ENDPROC       _ATCMDCB_CSQ
  -------         PROC          _ATCMDCB_CLCC
  D:0001H         SYMBOL        pRspStr
  -------         DO            
  D:0001H         SYMBOL        p
  X:124DH         SYMBOL        count
  -------         ENDDO         
  C:8FCCH         LINE#         270
  C:8FCCH         LINE#         271
  C:8FCCH         LINE#         275
  C:8FCCH         LINE#         277
  C:8FE5H         LINE#         278
  C:8FE5H         LINE#         279
  C:8FE8H         LINE#         280
  C:8FE8H         LINE#         281
  C:8FF7H         LINE#         282
  C:8FF7H         LINE#         283
  C:8FF9H         LINE#         284
  C:8FFCH         LINE#         285
  C:8FFCH         LINE#         286
  C:8FFEH         LINE#         287
  -------         ENDPROC       _ATCMDCB_CLCC
  -------         PROC          GSM_REPOWER
  C:959FH         LINE#         329
  C:959FH         LINE#         330
  C:959FH         LINE#         331
  C:95A8H         LINE#         332
  C:95AEH         LINE#         333
  C:95B8H         LINE#         336
  C:95BAH         LINE#         338
  -------         ENDPROC       GSM_REPOWER
  -------         PROC          GSM_STARTINIT
  C:9696H         LINE#         340
  C:9696H         LINE#         341
  C:9696H         LINE#         342
  C:9698H         LINE#         343
  C:96A2H         LINE#         344
  C:96A8H         LINE#         346
  C:96AEH         LINE#         347
  C:96B0H         LINE#         348
  -------         ENDPROC       GSM_STARTINIT
  -------         PROC          GSM_GETCSQ
  C:92C5H         LINE#         351
  C:92C5H         LINE#         352
BL51 BANKED LINKER/LOCATER V6.22.2.0                                                  01/18/2022  14:53:23  PAGE 46


  C:92C5H         LINE#         353
  C:92CDH         LINE#         354
  C:92CDH         LINE#         356
  C:92CDH         LINE#         357
  C:92D7H         LINE#         358
  C:92DDH         LINE#         359
  C:92E3H         LINE#         360
  C:92E5H         LINE#         361
  C:92EEH         LINE#         362
  -------         ENDPROC       GSM_GETCSQ
  -------         PROC          _GSM_SETVOLUM
  X:1088H         SYMBOL        volum
  C:8269H         LINE#         363
  C:826EH         LINE#         364
  C:826EH         LINE#         365
  C:8278H         LINE#         366
  C:827EH         LINE#         367
  C:8284H         LINE#         369
  C:829EH         LINE#         374
  C:82BBH         LINE#         375
  -------         ENDPROC       _GSM_SETVOLUM
  -------         PROC          _GSM_CALL
  X:1096H         SYMBOL        tel
  C:88D1H         LINE#         381
  C:88DCH         LINE#         382
  C:88DCH         LINE#         383
  C:88EDH         LINE#         384
  C:88EDH         LINE#         385
  C:88F6H         LINE#         386
  C:8904H         LINE#         387
  C:890DH         LINE#         388
  C:891AH         LINE#         389
  C:8922H         LINE#         390
  C:8928H         LINE#         391
  C:892AH         LINE#         394
  C:892FH         LINE#         395
  C:8931H         LINE#         396
  C:8933H         LINE#         397
  C:8933H         LINE#         398
  C:8934H         LINE#         399
  -------         ENDPROC       _GSM_CALL
  -------         PROC          GSM_HUANGUP
  C:9877H         LINE#         400
  C:9877H         LINE#         401
  C:9877H         LINE#         402
  C:9879H         LINE#         404
  C:9882H         LINE#         409
  C:9888H         LINE#         410
  C:988FH         LINE#         411
  -------         ENDPROC       GSM_HUANGUP
  -------         PROC          GSM_INITTASK
  C:356EH         LINE#         413
  C:356EH         LINE#         414
  C:356EH         LINE#         415
  C:35A2H         LINE#         416
  C:35A2H         LINE#         417
  C:35A2H         LINE#         418
BL51 BANKED LINKER/LOCATER V6.22.2.0                                                  01/18/2022  14:53:23  PAGE 47


  C:35B3H         LINE#         419
  C:35B3H         LINE#         420
  C:35B5H         LINE#         421
  C:35BFH         LINE#         422
  C:35C4H         LINE#         423
  C:35C8H         LINE#         424
  C:35C8H         LINE#         425
  C:35C9H         LINE#         426
  C:35C9H         LINE#         427
  C:35DAH         LINE#         428
  C:35DAH         LINE#         429
  C:35DDH         LINE#         430
  C:35DDH         LINE#         431
  C:35DDH         LINE#         432
  C:35DDH         LINE#         433
  C:35EEH         LINE#         434
  C:35EEH         LINE#         435
  C:35F0H         LINE#         436
  C:35FAH         LINE#         437
  C:3600H         LINE#         438
  C:3606H         LINE#         439
  C:3606H         LINE#         440
  C:3609H         LINE#         441
  C:3609H         LINE#         442
  C:361AH         LINE#         443
  C:361AH         LINE#         444
  C:361CH         LINE#         445
  C:3626H         LINE#         446
  C:362CH         LINE#         447
  C:3632H         LINE#         448
  C:3632H         LINE#         449
  C:3635H         LINE#         450
  C:3635H         LINE#         451
  C:3646H         LINE#         452
  C:3646H         LINE#         454
  C:364CH         LINE#         455
  C:3651H         LINE#         456
  C:3653H         LINE#         459
  C:3672H         LINE#         463
  C:3680H         LINE#         465
  C:369CH         LINE#         466
  C:36A6H         LINE#         467
  C:36ACH         LINE#         468
  C:36ACH         LINE#         469
  C:36AEH         LINE#         470
  C:36AEH         LINE#         471
  C:36BFH         LINE#         472
  C:36BFH         LINE#         473
  C:36D2H         LINE#         474
  C:36D2H         LINE#         475
  C:36EAH         LINE#         476
  C:36F4H         LINE#         477
  C:370DH         LINE#         478
  C:370DH         LINE#         480
  C:370DH         LINE#         481
  C:3739H         LINE#         482
  C:373CH         LINE#         483
BL51 BANKED LINKER/LOCATER V6.22.2.0                                                  01/18/2022  14:53:23  PAGE 48


  C:373CH         LINE#         484
  C:373CH         LINE#         485
  C:373CH         LINE#         486
  C:373CH         LINE#         487
  C:374DH         LINE#         488
  C:374DH         LINE#         489
  C:3750H         LINE#         490
  C:3750H         LINE#         491
  C:3750H         LINE#         492
  C:3750H         LINE#         493
  C:3761H         LINE#         494
  C:3761H         LINE#         495
  C:376BH         LINE#         496
  C:3783H         LINE#         497
  C:3791H         LINE#         498
  C:3791H         LINE#         499
  C:3794H         LINE#         500
  C:379BH         LINE#         510
  C:37BAH         LINE#         511
  C:37BAH         LINE#         512
  C:37C0H         LINE#         513
  C:37CAH         LINE#         515
  C:37CAH         LINE#         517
  C:37CDH         LINE#         518
  C:37D6H         LINE#         519
  C:37D6H         LINE#         521
  C:37D6H         LINE#         522
  C:37DFH         LINE#         525
  C:37DFH         LINE#         526
  C:37DFH         LINE#         527
  C:37DFH         LINE#         528
  C:37DFH         LINE#         529
  C:37F0H         LINE#         530
  C:37F0H         LINE#         531
  C:37FAH         LINE#         532
  C:380BH         LINE#         533
  C:380BH         LINE#         534
  C:3814H         LINE#         535
  C:381AH         LINE#         536
  C:3820H         LINE#         538
  C:3822H         LINE#         540
  C:3831H         LINE#         541
  C:383AH         LINE#         542
  C:383DH         LINE#         543
  C:383DH         LINE#         545
  C:383DH         LINE#         549
  C:383DH         LINE#         550
  C:383DH         LINE#         551
  C:383DH         LINE#         552
  C:383DH         LINE#         553
  C:384BH         LINE#         554
  C:384BH         LINE#         555
  C:3855H         LINE#         561
  C:3855H         LINE#         562
  C:3856H         LINE#         563
  C:3856H         LINE#         564
  C:3864H         LINE#         565
BL51 BANKED LINKER/LOCATER V6.22.2.0                                                  01/18/2022  14:53:23  PAGE 49


  C:3864H         LINE#         566
  C:386EH         LINE#         567
  C:387CH         LINE#         568
  C:387CH         LINE#         569
  C:3889H         LINE#         570
  C:3889H         LINE#         571
  C:388CH         LINE#         572
  C:3899H         LINE#         573
  C:3899H         LINE#         574
  C:38A0H         LINE#         576
  C:38A0H         LINE#         577
  C:38A0H         LINE#         578
  C:38A3H         LINE#         579
  C:38A6H         LINE#         580
  C:38A6H         LINE#         581
  C:38A6H         LINE#         582
  C:38A6H         LINE#         583
  C:38A6H         LINE#         584
  C:38A6H         LINE#         585
  C:38A6H         LINE#         586
  -------         ENDPROC       GSM_INITTASK
  -------         PROC          _MODEMRECEIVEHANDLE
  D:0001H         SYMBOL        buf
  -------         DO            
  C:3543H         SYMBOL        rspStrTable
  X:107FH         SYMBOL        rspType
  X:1081H         SYMBOL        i
  X:1083H         SYMBOL        p
  X:1086H         SYMBOL        j
  X:1087H         SYMBOL        stat
  -------         ENDDO         
  C:2AA1H         LINE#         588
  C:2AA1H         LINE#         589
  C:2AA1H         LINE#         601
  C:2AA9H         LINE#         602
  C:2AAEH         LINE#         603
  C:2AB7H         LINE#         606
  C:2AD0H         LINE#         607
  C:2AD0H         LINE#         608
  C:2B0EH         LINE#         609
  C:2B0EH         LINE#         610
  C:2B1DH         LINE#         611
  C:2B1FH         LINE#         612
  C:2B1FH         LINE#         613
  C:2B2FH         LINE#         614
  C:2B6BH         LINE#         615
  C:2B6BH         LINE#         616
  C:2B6BH         LINE#         617
  C:2B6BH         LINE#         618
  C:2B6BH         LINE#         619
  C:2B7EH         LINE#         620
  C:2B7EH         LINE#         622
  C:2B81H         LINE#         623
  C:2B8AH         LINE#         624
  C:2B8AH         LINE#         625
  C:2B8DH         LINE#         626
  C:2B8DH         LINE#         627
BL51 BANKED LINKER/LOCATER V6.22.2.0                                                  01/18/2022  14:53:23  PAGE 50


  C:2B8DH         LINE#         629
  C:2BB4H         LINE#         630
  C:2BB4H         LINE#         631
  C:2BBAH         LINE#         632
  C:2BC0H         LINE#         634
  C:2BC0H         LINE#         635
  C:2BCBH         LINE#         636
  C:2BCBH         LINE#         638
  C:2BCBH         LINE#         639
  C:2BCBH         LINE#         640
  C:2BCBH         LINE#         641
  C:2BCEH         LINE#         642
  C:2BCEH         LINE#         645
  C:2BD9H         LINE#         646
  C:2BD9H         LINE#         647
  C:2BDCH         LINE#         649
  C:2BE4H         LINE#         650
  C:2BE4H         LINE#         651
  C:2BECH         LINE#         652
  C:2BEDH         LINE#         654
  C:2BEDH         LINE#         655
  C:2BF0H         LINE#         656
  C:2BF0H         LINE#         657
  C:2BF0H         LINE#         669
  C:2BF0H         LINE#         670
  C:2BF0H         LINE#         671
  C:2BF0H         LINE#         672
  C:2C1EH         LINE#         673
  C:2C2DH         LINE#         674
  C:2C2DH         LINE#         675
  C:2C52H         LINE#         676
  C:2C92H         LINE#         677
  C:2CA3H         LINE#         679
  C:2CA9H         LINE#         680
  C:2CA9H         LINE#         681
  C:2CAFH         LINE#         682
  C:2CB5H         LINE#         684
  C:2CBCH         LINE#         685
  C:2CCBH         LINE#         686
  C:2CD4H         LINE#         687
  C:2CD7H         LINE#         688
  C:2CD9H         LINE#         689
  C:2CDAH         LINE#         690
  C:2CE2H         LINE#         691
  C:2CE2H         LINE#         692
  C:2CE5H         LINE#         693
  C:2CE5H         LINE#         694
  C:2CE7H         LINE#         695
  C:2CF4H         LINE#         696
  C:2CF4H         LINE#         698
  C:2D01H         LINE#         699
  C:2D01H         LINE#         700
  C:2D0AH         LINE#         701
  C:2D0CH         LINE#         702
  C:2D0CH         LINE#         704
  C:2D0DH         LINE#         705
  C:2D18H         LINE#         706
BL51 BANKED LINKER/LOCATER V6.22.2.0                                                  01/18/2022  14:53:23  PAGE 51


  C:2D18H         LINE#         707
  C:2D23H         LINE#         708
  C:2D23H         LINE#         710
  C:2D23H         LINE#         711
  C:2D26H         LINE#         712
  C:2D29H         LINE#         713
  C:2D29H         LINE#         714
  C:2D29H         LINE#         715
  C:2D29H         LINE#         716
  C:2D29H         LINE#         717
  C:2D29H         LINE#         718
  C:2D29H         LINE#         726
  C:2D29H         LINE#         727
  C:2D29H         LINE#         728
  C:2D29H         LINE#         729
  C:2D57H         LINE#         730
  C:2D66H         LINE#         731
  C:2D66H         LINE#         732
  C:2D69H         LINE#         733
  C:2D69H         LINE#         734
  C:2D69H         LINE#         735
  C:2D69H         LINE#         736
  C:2D6BH         LINE#         737
  C:2D6BH         LINE#         738
  C:2D6BH         LINE#         739
  C:2D6BH         LINE#         740
  C:2D6BH         LINE#         741
  C:2D6BH         LINE#         742
  C:2D99H         LINE#         743
  C:2DA8H         LINE#         744
  C:2DA8H         LINE#         745
  C:2DCDH         LINE#         746
  C:2DF5H         LINE#         747
  C:2E00H         LINE#         748
  C:2E0AH         LINE#         749
  C:2E0DH         LINE#         750
  C:2E0DH         LINE#         751
  C:2E0DH         LINE#         752
  C:2E0DH         LINE#         753
  C:2E0DH         LINE#         754
  C:2E0DH         LINE#         755
  C:2E3BH         LINE#         756
  C:2E47H         LINE#         757
  C:2E47H         LINE#         758
  C:2E6CH         LINE#         759
  C:2E94H         LINE#         760
  C:2E9EH         LINE#         761
  C:2EABH         LINE#         762
  C:2EABH         LINE#         763
  C:2EABH         LINE#         764
  C:2EABH         LINE#         765
  C:2EABH         LINE#         766
  C:2EABH         LINE#         767
  -------         ENDPROC       _MODEMRECEIVEHANDLE
  -------         PROC          _GSMUARTCMD
  X:107CH         SYMBOL        buf
  D:0004H         SYMBOL        len
BL51 BANKED LINKER/LOCATER V6.22.2.0                                                  01/18/2022  14:53:23  PAGE 52


  -------         DO            
  D:0007H         SYMBOL        CmdRes
  -------         ENDDO         
  C:6D06H         LINE#         769
  C:6D11H         LINE#         770
  C:6D11H         LINE#         772
  C:6D28H         LINE#         773
  C:6D44H         LINE#         774
  C:6D44H         LINE#         775
  C:6D5DH         LINE#         776
  C:6D5DH         LINE#         777
  C:6D89H         LINE#         778
  C:6D99H         LINE#         779
  C:6D99H         LINE#         780
  C:6D99H         LINE#         781
  C:6D99H         LINE#         782
  C:6D9EH         LINE#         783
  C:6DACH         LINE#         784
  C:6DACH         LINE#         785
  C:6DAFH         LINE#         786
  C:6DC8H         LINE#         787
  C:6DD2H         LINE#         788
  C:6DEBH         LINE#         789
  C:6DEBH         LINE#         791
  C:6DEBH         LINE#         792
  C:6DF5H         LINE#         793
  C:6DFBH         LINE#         794
  C:6E03H         LINE#         795
  C:6E03H         LINE#         796
  C:6E03H         LINE#         797
  C:6E03H         LINE#         798
  C:6E03H         LINE#         799
  C:6E03H         LINE#         801
  C:6E05H         LINE#         802
  C:6E05H         LINE#         804
  C:6E05H         LINE#         805
  C:6E05H         LINE#         806
  C:6E0DH         LINE#         807
  C:6E0DH         LINE#         808
  C:6E17H         LINE#         809
  C:6E1DH         LINE#         810
  C:6E1EH         LINE#         812
  C:6E1EH         LINE#         813
  C:6E21H         LINE#         814
  C:6E21H         LINE#         815
  C:6E21H         LINE#         816
  C:6E21H         LINE#         817
  C:6E21H         LINE#         818
  C:6E21H         LINE#         820
  C:6E21H         LINE#         821
  C:6E2FH         LINE#         822
  C:6E2FH         LINE#         823
  -------         ENDPROC       _GSMUARTCMD
  -------         PROC          _GSM_SEND_DTMF
  X:107EH         SYMBOL        k
  -------         DO            
  X:107FH         SYMBOL        dtmf_cmd
BL51 BANKED LINKER/LOCATER V6.22.2.0                                                  01/18/2022  14:53:23  PAGE 53


  -------         ENDDO         
  C:926FH         LINE#         825
  C:9274H         LINE#         826
  C:9274H         LINE#         827
  C:9287H         LINE#         828
  C:9291H         LINE#         831
  -------         ENDPROC       _GSM_SEND_DTMF
  -------         ENDMOD        GSM

  -------         MODULE        NAMELIST
  C:0000H         SYMBOL        _ICE_DUMMY_
  D:0080H         PUBLIC        P0
  D:0090H         PUBLIC        P1
  D:00A0H         PUBLIC        P2
  B:0023H.2       SYMBOL        NameEditSaved
  D:00B0H         PUBLIC        P3
  D:00C0H         PUBLIC        P4
  D:00C8H         PUBLIC        P5
  C:4910H         PUBLIC        _NameDeleteKey
  D:00E8H         PUBLIC        P6
  D:00F8H         PUBLIC        P7
  C:8E19H         PUBLIC        _WriteNameItemByIdx
  X:12BEH         PUBLIC        EditChar
  C:9AB0H         PUBLIC        _DelNameItemByRoom
  C:96B8H         PUBLIC        _ShowNameByIdx
  C:77C9H         PUBLIC        NameEditChageType
  C:000EH         PUBLIC        ClearNameList
  D:00A8H         PUBLIC        IE
  C:86B2H         PUBLIC        _DelNameItemByIdx
  C:8BEAH         PUBLIC        _GetNameItemByRoom
  C:997CH         PUBLIC        DeleteAllNameCon
  D:00B8H         PUBLIC        IP
  X:12BFH         PUBLIC        EditTime
  X:12C1H         PUBLIC        NameEditItem
  C:84DFH         PUBLIC        _AddNameItem
  C:960BH         PUBLIC        SaveNameCount
  D:00D8H         PUBLIC        CCON
  C:41CAH         PUBLIC        _ShowName
  X:1311H         SYMBOL        NameEditType
  X:1312H         SYMBOL        NameEditIdx
  D:0098H         PUBLIC        SCON
  D:0088H         PUBLIC        TCON
  C:1878H         PUBLIC        _NameEditKey
  C:9A52H         PUBLIC        InitNameList
  C:942FH         PUBLIC        EditNameItemCon
  D:00F0H         PUBLIC        B
  C:7247H         PUBLIC        HBtab
  D:00E0H         PUBLIC        ACC
  C:735AH         PUBLIC        _CallByNameItem
  C:7FB8H         PUBLIC        NameSetCon
  C:96FBH         PUBLIC        _NameSetKey
  C:990AH         PUBLIC        _NameDelAllKey
  C:1394H         PUBLIC        _RevNamelist
  C:912BH         PUBLIC        _ReadNameItemByIdx
  D:00D0H         PUBLIC        PSW
  C:9454H         PUBLIC        DeleteNameCon
  -------         PROC          SAVENAMECOUNT
BL51 BANKED LINKER/LOCATER V6.22.2.0                                                  01/18/2022  14:53:23  PAGE 54


  C:960BH         LINE#         10
  C:960BH         LINE#         11
  C:960BH         LINE#         12
  -------         ENDPROC       SAVENAMECOUNT
  -------         PROC          CLEARNAMELIST
  C:000EH         LINE#         15
  C:000EH         LINE#         16
  C:000EH         LINE#         17
  C:0015H         LINE#         18
  -------         ENDPROC       CLEARNAMELIST
  -------         PROC          INITNAMELIST
  C:9A52H         LINE#         21
  C:9A52H         LINE#         22
  C:9A52H         LINE#         23
  C:9A61H         LINE#         24
  C:9A61H         LINE#         25
  C:9A64H         LINE#         26
  C:9A64H         LINE#         27
  -------         ENDPROC       INITNAMELIST
  -------         PROC          L?0247
  -------         ENDPROC       L?0247
  -------         PROC          _WRITENAMEITEMBYIDX
  D:0006H         SYMBOL        idx
  X:1122H         SYMBOL        pItem
  -------         DO            
  D:0006H         SYMBOL        addr
  -------         ENDDO         
  C:8E19H         LINE#         30
  C:8E24H         LINE#         31
  C:8E24H         LINE#         32
  C:8E24H         LINE#         33
  C:8E2BH         LINE#         34
  -------         ENDPROC       _WRITENAMEITEMBYIDX
  -------         PROC          _READNAMEITEMBYIDX
  D:0006H         SYMBOL        idx
  X:1122H         SYMBOL        pItem
  -------         DO            
  D:0006H         SYMBOL        addr
  -------         ENDDO         
  C:912BH         LINE#         39
  C:9136H         LINE#         40
  C:9136H         LINE#         41
  C:9136H         LINE#         42
  C:913DH         LINE#         43
  -------         ENDPROC       _READNAMEITEMBYIDX
  -------         PROC          _GETNAMEITEMBYROOM
  D:0006H         SYMBOL        room
  X:10D0H         SYMBOL        pItem
  -------         DO            
  X:10D3H         SYMBOL        idx
  -------         ENDDO         
  C:8BEAH         LINE#         47
  C:8BF5H         LINE#         48
  C:8BF5H         LINE#         49
  C:8BFBH         LINE#         50
  C:8C08H         LINE#         51
  C:8C0FH         LINE#         52
BL51 BANKED LINKER/LOCATER V6.22.2.0                                                  01/18/2022  14:53:23  PAGE 55


  C:8C0FH         LINE#         53
  C:8C25H         LINE#         54
  C:8C2EH         LINE#         55
  C:8C2EH         LINE#         56
  C:8C32H         LINE#         57
  -------         ENDPROC       _GETNAMEITEMBYROOM
  -------         PROC          _ADDNAMEITEM
  X:10D5H         SYMBOL        pItem
  -------         DO            
  X:10D8H         SYMBOL        idx
  -------         ENDDO         
  C:84DFH         LINE#         58
  C:84EAH         LINE#         59
  C:84EAH         LINE#         60
  C:84F0H         LINE#         61
  C:8503H         LINE#         62
  C:850AH         LINE#         63
  C:850AH         LINE#         64
  C:8515H         LINE#         65
  C:851EH         LINE#         66
  C:851EH         LINE#         67
  C:852EH         LINE#         68
  C:852EH         LINE#         69
  C:8531H         LINE#         70
  C:853FH         LINE#         71
  C:8542H         LINE#         72
  C:8551H         LINE#         73
  C:8551H         LINE#         74
  C:8555H         LINE#         75
  -------         ENDPROC       _ADDNAMEITEM
  -------         PROC          _DELNAMEITEMBYIDX
  X:10D0H         SYMBOL        idx
  -------         DO            
  X:10D2H         SYMBOL        tmpItem
  -------         ENDDO         
  C:86B2H         LINE#         76
  C:86BAH         LINE#         77
  C:86BAH         LINE#         79
  C:86C8H         LINE#         80
  C:86C8H         LINE#         81
  C:86DCH         LINE#         82
  C:86DCH         LINE#         83
  C:86EAH         LINE#         84
  C:86EDH         LINE#         85
  C:86EDH         LINE#         87
  C:86EDH         LINE#         88
  C:86FBH         LINE#         89
  C:86FEH         LINE#         90
  C:870FH         LINE#         91
  C:8720H         LINE#         92
  C:8720H         LINE#         93
  C:8720H         LINE#         94
  -------         ENDPROC       _DELNAMEITEMBYIDX
  -------         PROC          _DELNAMEITEMBYROOM
  D:0006H         SYMBOL        room
  -------         DO            
  D:0006H         SYMBOL        idx
BL51 BANKED LINKER/LOCATER V6.22.2.0                                                  01/18/2022  14:53:23  PAGE 56


  -------         ENDDO         
  C:9AB0H         LINE#         95
  C:9AB0H         LINE#         96
  C:9AB0H         LINE#         97
  C:9AB5H         LINE#         98
  C:9ABDH         LINE#         99
  C:9ABDH         LINE#         100
  C:9AC0H         LINE#         101
  C:9AC0H         LINE#         102
  -------         ENDPROC       _DELNAMEITEMBYROOM
  -------         PROC          _SHOWNAME
  X:10D0H         SYMBOL        pItem
  B:0020H.0       SYMBOL        tel
  -------         DO            
  X:10D3H         SYMBOL        Disbuf
  X:1123H         SYMBOL        i
  -------         ENDDO         
  C:41CAH         LINE#         109
  C:41D5H         LINE#         110
  C:41D5H         LINE#         113
  C:41D8H         LINE#         115
  C:41DEH         LINE#         116
  C:41DEH         LINE#         117
  C:41F4H         LINE#         118
  C:41F4H         LINE#         119
  C:421BH         LINE#         120
  C:422CH         LINE#         121
  C:4285H         LINE#         123
  C:42A1H         LINE#         124
  C:42A1H         LINE#         126
  C:42B8H         LINE#         130
  C:42B8H         LINE#         131
  C:42C1H         LINE#         132
  C:42C1H         LINE#         134
  C:42C1H         LINE#         135
  C:42DBH         LINE#         136
  C:42DBH         LINE#         138
  C:42E8H         LINE#         139
  C:4317H         LINE#         140
  C:4340H         LINE#         142
  C:4354H         LINE#         143
  C:4354H         LINE#         145
  C:4360H         LINE#         149
  C:4360H         LINE#         150
  C:4362H         LINE#         152
  C:4362H         LINE#         153
  C:436FH         LINE#         154
  C:4383H         LINE#         155
  C:4383H         LINE#         157
  C:4392H         LINE#         161
  C:4392H         LINE#         162
  C:4392H         LINE#         164
  C:43D0H         LINE#         165
  C:43DDH         LINE#         166
  C:43F3H         LINE#         167
  C:43F3H         LINE#         169
  C:440BH         LINE#         170
BL51 BANKED LINKER/LOCATER V6.22.2.0                                                  01/18/2022  14:53:23  PAGE 57


  C:4423H         LINE#         171
  C:442CH         LINE#         172
  C:442CH         LINE#         173
  C:4435H         LINE#         174
  C:4437H         LINE#         176
  C:4437H         LINE#         177
  C:4446H         LINE#         178
  C:4446H         LINE#         182
  C:4446H         LINE#         183
  C:4446H         LINE#         184
  -------         ENDPROC       _SHOWNAME
  -------         PROC          EDITNAMEITEMCON
  C:942FH         LINE#         186
  C:942FH         LINE#         187
  C:942FH         LINE#         188
  C:943CH         LINE#         189
  C:9441H         LINE#         190
  C:9443H         LINE#         191
  C:9449H         LINE#         192
  -------         ENDPROC       EDITNAMEITEMCON
  -------         PROC          NAMEEDITCHAGETYPE
  -------         DO            
  X:107EH         SYMBOL        tmp
  X:1080H         SYMBOL        tmpItem
  -------         ENDDO         
  C:77C9H         LINE#         194
  C:77C9H         LINE#         195
  C:77C9H         LINE#         198
  C:77E3H         LINE#         199
  C:77E3H         LINE#         200
  C:77E3H         LINE#         201
  C:77E8H         LINE#         202
  C:77EAH         LINE#         203
  C:77F7H         LINE#         204
  C:780AH         LINE#         205
  C:780AH         LINE#         206
  C:7810H         LINE#         207
  C:781FH         LINE#         208
  C:7821H         LINE#         209
  C:7821H         LINE#         210
  C:7821H         LINE#         211
  C:7831H         LINE#         212
  C:7842H         LINE#         213
  C:7842H         LINE#         214
  C:7860H         LINE#         215
  C:7860H         LINE#         216
  C:7866H         LINE#         217
  C:7868H         LINE#         218
  C:7868H         LINE#         219
  C:7868H         LINE#         220
  C:7868H         LINE#         221
  C:7882H         LINE#         222
  C:7883H         LINE#         223
  C:7883H         LINE#         224
  C:7886H         LINE#         225
  C:7888H         LINE#         226
  C:7888H         LINE#         227
BL51 BANKED LINKER/LOCATER V6.22.2.0                                                  01/18/2022  14:53:23  PAGE 58


  C:7888H         LINE#         228
  -------         ENDPROC       NAMEEDITCHAGETYPE
  -------         PROC          _NAMEEDITKEY
  X:107DH         SYMBOL        key
  -------         DO            
  X:12BDH         SYMBOL        OldKey
  D:0006H         SYMBOL        HBtmp
  -------         ENDDO         
  C:1878H         LINE#         230
  C:187DH         LINE#         231
  C:187DH         LINE#         237
  C:1884H         LINE#         238
  C:1884H         LINE#         239
  C:188CH         LINE#         240
  C:188CH         LINE#         241
  C:188FH         LINE#         242
  C:188FH         LINE#         243
  C:189BH         LINE#         244
  C:18A0H         LINE#         245
  C:18A2H         LINE#         247
  C:18A2H         LINE#         248
  C:18C4H         LINE#         251
  C:18C4H         LINE#         252
  C:18D5H         LINE#         253
  C:18D5H         LINE#         254
  C:18D8H         LINE#         255
  C:18DAH         LINE#         257
  C:18DAH         LINE#         258
  C:18DDH         LINE#         259
  C:18DDH         LINE#         260
  C:18EAH         LINE#         261
  C:18ECH         LINE#         263
  C:18ECH         LINE#         264
  C:18EFH         LINE#         265
  C:18EFH         LINE#         266
  C:18F2H         LINE#         268
  C:18F2H         LINE#         269
  C:18F2H         LINE#         270
  C:18F8H         LINE#         271
  C:1900H         LINE#         272
  C:1903H         LINE#         273
  C:1908H         LINE#         274
  C:190CH         LINE#         275
  C:1917H         LINE#         276
  C:1918H         LINE#         278
  C:1918H         LINE#         279
  C:1918H         LINE#         280
  C:1920H         LINE#         281
  C:1920H         LINE#         282
  C:192DH         LINE#         283
  C:192DH         LINE#         284
  C:1930H         LINE#         285
  C:1932H         LINE#         287
  C:1932H         LINE#         288
  C:1937H         LINE#         289
  C:1937H         LINE#         290
  C:1937H         LINE#         291
BL51 BANKED LINKER/LOCATER V6.22.2.0                                                  01/18/2022  14:53:23  PAGE 59


  C:1937H         LINE#         292
  C:1937H         LINE#         293
  C:1939H         LINE#         294
  C:1941H         LINE#         295
  C:1941H         LINE#         296
  C:194EH         LINE#         297
  C:194EH         LINE#         298
  C:1951H         LINE#         299
  C:1953H         LINE#         301
  C:1953H         LINE#         302
  C:1959H         LINE#         303
  C:1959H         LINE#         304
  C:195CH         LINE#         305
  C:195CH         LINE#         306
  C:195CH         LINE#         307
  C:195FH         LINE#         308
  C:196AH         LINE#         309
  C:196AH         LINE#         310
  C:1984H         LINE#         311
  C:1984H         LINE#         312
  C:1984H         LINE#         313
  C:1991H         LINE#         314
  C:1991H         LINE#         315
  C:1994H         LINE#         316
  C:19ABH         LINE#         317
  C:19AEH         LINE#         319
  C:19AEH         LINE#         320
  C:19B1H         LINE#         322
  C:19B1H         LINE#         323
  C:19B1H         LINE#         324
  C:19B1H         LINE#         325
  C:19CCH         LINE#         326
  C:19CCH         LINE#         327
  C:19D6H         LINE#         328
  C:19D6H         LINE#         329
  C:19E5H         LINE#         330
  C:19EBH         LINE#         331
  C:1A00H         LINE#         332
  C:1A00H         LINE#         333
  C:1A0CH         LINE#         334
  C:1A12H         LINE#         335
  C:1A12H         LINE#         336
  C:1A14H         LINE#         338
  C:1A14H         LINE#         339
  C:1A19H         LINE#         340
  C:1A1CH         LINE#         341
  C:1A1CH         LINE#         342
  C:1A1CH         LINE#         343
  C:1A2CH         LINE#         344
  C:1A34H         LINE#         345
  C:1A36H         LINE#         346
  C:1A36H         LINE#         347
  C:1A36H         LINE#         348
  C:1A36H         LINE#         349
  C:1A43H         LINE#         350
  C:1A43H         LINE#         351
  C:1A46H         LINE#         352
BL51 BANKED LINKER/LOCATER V6.22.2.0                                                  01/18/2022  14:53:23  PAGE 60


  C:1A65H         LINE#         353
  C:1A67H         LINE#         355
  C:1A67H         LINE#         356
  C:1A6CH         LINE#         357
  C:1A6CH         LINE#         358
  C:1A6CH         LINE#         359
  C:1A6EH         LINE#         360
  C:1A6EH         LINE#         361
  C:1A73H         LINE#         362
  C:1A76H         LINE#         363
  C:1A76H         LINE#         364
  C:1A76H         LINE#         365
  C:1A76H         LINE#         366
  C:1A76H         LINE#         367
  C:1A78H         LINE#         368
  C:1A80H         LINE#         369
  C:1A80H         LINE#         370
  C:1A83H         LINE#         372
  C:1A83H         LINE#         373
  C:1AA1H         LINE#         374
  C:1AA1H         LINE#         375
  C:1AAAH         LINE#         376
  C:1AAAH         LINE#         377
  C:1AB0H         LINE#         378
  C:1AB0H         LINE#         379
  C:1AB6H         LINE#         380
  C:1ABBH         LINE#         381
  C:1ABFH         LINE#         382
  C:1ABFH         LINE#         383
  C:1ADDH         LINE#         384
  C:1ADDH         LINE#         385
  C:1AF2H         LINE#         386
  C:1AF2H         LINE#         387
  C:1AF2H         LINE#         388
  C:1AFFH         LINE#         389
  C:1AFFH         LINE#         390
  C:1B16H         LINE#         391
  C:1B28H         LINE#         392
  C:1B2EH         LINE#         393
  C:1B2EH         LINE#         394
  C:1B3BH         LINE#         395
  C:1B3BH         LINE#         396
  C:1B3FH         LINE#         397
  C:1B3FH         LINE#         398
  C:1B42H         LINE#         399
  C:1B42H         LINE#         400
  C:1B42H         LINE#         401
  C:1B55H         LINE#         402
  C:1B55H         LINE#         403
  C:1B71H         LINE#         404
  C:1B71H         LINE#         406
  C:1B71H         LINE#         407
  C:1B71H         LINE#         408
  C:1B8DH         LINE#         409
  C:1B8DH         LINE#         410
  C:1B96H         LINE#         411
  C:1B96H         LINE#         412
BL51 BANKED LINKER/LOCATER V6.22.2.0                                                  01/18/2022  14:53:23  PAGE 61


  C:1B9CH         LINE#         413
  C:1B9CH         LINE#         414
  C:1BA2H         LINE#         415
  C:1BA7H         LINE#         416
  C:1BA7H         LINE#         417
  C:1BAAH         LINE#         418
  C:1BAAH         LINE#         419
  C:1BB2H         LINE#         420
  C:1BB5H         LINE#         421
  C:1BC6H         LINE#         422
  C:1BC6H         LINE#         423
  C:1BD7H         LINE#         424
  C:1BFEH         LINE#         425
  C:1C01H         LINE#         426
  C:1C07H         LINE#         427
  C:1C07H         LINE#         428
  C:1C17H         LINE#         429
  C:1C1DH         LINE#         430
  C:1C1FH         LINE#         432
  C:1C1FH         LINE#         433
  C:1C2FH         LINE#         434
  C:1C36H         LINE#         435
  C:1C3FH         LINE#         436
  C:1C3FH         LINE#         437
  C:1C4CH         LINE#         438
  C:1C5EH         LINE#         439
  C:1C64H         LINE#         440
  C:1C76H         LINE#         441
  C:1C7BH         LINE#         442
  C:1C8DH         LINE#         444
  C:1CA0H         LINE#         445
  C:1CA2H         LINE#         447
  C:1CA2H         LINE#         448
  C:1CCCH         LINE#         449
  C:1CCCH         LINE#         450
  C:1CCCH         LINE#         451
  C:1CD2H         LINE#         452
  C:1CDAH         LINE#         453
  C:1CE2H         LINE#         454
  C:1CE2H         LINE#         455
  C:1CE4H         LINE#         456
  C:1CE4H         LINE#         457
  C:1CE4H         LINE#         458
  C:1CE4H         LINE#         459
  C:1CF1H         LINE#         460
  C:1CF1H         LINE#         461
  C:1D1CH         LINE#         462
  C:1D1CH         LINE#         463
  C:1D1CH         LINE#         464
  C:1D1CH         LINE#         465
  C:1D1CH         LINE#         467
  C:1D24H         LINE#         468
  C:1D40H         LINE#         469
  -------         ENDPROC       _NAMEEDITKEY
  -------         PROC          DELETENAMECON
  C:9454H         LINE#         471
  C:9454H         LINE#         472
BL51 BANKED LINKER/LOCATER V6.22.2.0                                                  01/18/2022  14:53:23  PAGE 62


  C:9454H         LINE#         473
  C:9461H         LINE#         474
  C:9466H         LINE#         475
  C:9468H         LINE#         476
  C:946EH         LINE#         477
  -------         ENDPROC       DELETENAMECON
  -------         PROC          _NAMEDELETEKEY
  X:107DH         SYMBOL        key
  -------         DO            
  X:107EH         SYMBOL        tmp
  X:1080H         SYMBOL        tmpItem
  -------         ENDDO         
  C:4910H         LINE#         480
  C:4915H         LINE#         481
  C:4915H         LINE#         484
  C:491CH         LINE#         485
  C:491CH         LINE#         486
  C:4924H         LINE#         487
  C:4924H         LINE#         488
  C:4927H         LINE#         489
  C:4927H         LINE#         490
  C:4933H         LINE#         491
  C:4938H         LINE#         492
  C:493CH         LINE#         493
  C:493EH         LINE#         495
  C:493EH         LINE#         496
  C:4949H         LINE#         497
  C:494BH         LINE#         498
  C:494EH         LINE#         500
  C:494EH         LINE#         501
  C:494EH         LINE#         502
  C:4954H         LINE#         503
  C:495DH         LINE#         504
  C:496DH         LINE#         505
  C:496DH         LINE#         506
  C:496DH         LINE#         507
  C:4972H         LINE#         508
  C:497FH         LINE#         509
  C:498FH         LINE#         510
  C:498FH         LINE#         511
  C:4995H         LINE#         512
  C:49A4H         LINE#         513
  C:49A6H         LINE#         514
  C:49A6H         LINE#         515
  C:49A6H         LINE#         516
  C:49BFH         LINE#         517
  C:49BFH         LINE#         518
  C:49DDH         LINE#         519
  C:49DDH         LINE#         520
  C:49EBH         LINE#         521
  C:49EEH         LINE#         522
  C:49EEH         LINE#         523
  C:49F1H         LINE#         524
  C:49F4H         LINE#         526
  C:49F4H         LINE#         527
  C:49F4H         LINE#         528
  C:49F4H         LINE#         529
BL51 BANKED LINKER/LOCATER V6.22.2.0                                                  01/18/2022  14:53:23  PAGE 63


  C:49F7H         LINE#         530
  C:4A02H         LINE#         531
  C:4A02H         LINE#         532
  C:4A13H         LINE#         533
  C:4A13H         LINE#         534
  C:4A13H         LINE#         535
  C:4A20H         LINE#         536
  C:4A20H         LINE#         537
  C:4A23H         LINE#         538
  C:4A3AH         LINE#         539
  C:4A3DH         LINE#         541
  C:4A3DH         LINE#         542
  C:4A40H         LINE#         544
  C:4A40H         LINE#         545
  C:4A40H         LINE#         546
  C:4A40H         LINE#         547
  C:4A45H         LINE#         548
  C:4A49H         LINE#         549
  C:4A58H         LINE#         550
  C:4A5DH         LINE#         551
  C:4A6DH         LINE#         552
  C:4A6DH         LINE#         553
  C:4A73H         LINE#         554
  C:4A82H         LINE#         555
  C:4A84H         LINE#         556
  C:4A84H         LINE#         557
  C:4A84H         LINE#         558
  C:4A89H         LINE#         559
  C:4A8DH         LINE#         560
  C:4A9CH         LINE#         561
  C:4AA1H         LINE#         562
  C:4AB1H         LINE#         563
  C:4AB1H         LINE#         564
  C:4AB7H         LINE#         565
  C:4AC6H         LINE#         566
  C:4AC8H         LINE#         567
  C:4AC8H         LINE#         568
  C:4AC8H         LINE#         569
  C:4ACDH         LINE#         570
  C:4AD1H         LINE#         571
  C:4AD3H         LINE#         572
  C:4ADBH         LINE#         573
  C:4ADBH         LINE#         574
  C:4ADEH         LINE#         576
  C:4ADEH         LINE#         577
  C:4AFCH         LINE#         578
  C:4AFCH         LINE#         579
  C:4B07H         LINE#         580
  C:4B07H         LINE#         581
  C:4B1EH         LINE#         582
  C:4B30H         LINE#         583
  C:4B36H         LINE#         584
  C:4B36H         LINE#         585
  C:4B40H         LINE#         586
  C:4B40H         LINE#         587
  C:4B44H         LINE#         588
  C:4B44H         LINE#         589
BL51 BANKED LINKER/LOCATER V6.22.2.0                                                  01/18/2022  14:53:23  PAGE 64


  C:4B44H         LINE#         590
  C:4B4FH         LINE#         591
  -------         ENDPROC       _NAMEDELETEKEY
  -------         PROC          DELETEALLNAMECON
  C:997CH         LINE#         593
  C:997CH         LINE#         594
  C:997CH         LINE#         595
  C:9982H         LINE#         596
  C:9985H         LINE#         597
  -------         ENDPROC       DELETEALLNAMECON
  -------         PROC          _NAMEDELALLKEY
  D:0007H         SYMBOL        key
  C:990AH         LINE#         599
  C:990AH         LINE#         600
  C:990AH         LINE#         601
  C:9917H         LINE#         602
  C:9917H         LINE#         603
  C:9917H         LINE#         604
  C:991AH         LINE#         605
  C:991DH         LINE#         606
  C:991DH         LINE#         607
  C:991DH         LINE#         608
  C:991DH         LINE#         609
  C:9920H         LINE#         610
  C:9920H         LINE#         611
  C:9920H         LINE#         612
  -------         ENDPROC       _NAMEDELALLKEY
  -------         PROC          NAMESETCON
  -------         DO            
  X:10D0H         SYMBOL        Disbuf
  -------         ENDDO         
  C:7FB8H         LINE#         614
  C:7FB8H         LINE#         615
  C:7FB8H         LINE#         617
  C:7FBEH         LINE#         618
  C:7FC1H         LINE#         619
  C:7FCDH         LINE#         620
  C:7FDAH         LINE#         621
  C:7FE7H         LINE#         622
  C:7FF4H         LINE#         623
  C:801AH         LINE#         624
  -------         ENDPROC       NAMESETCON
  -------         PROC          _NAMESETKEY
  D:0007H         SYMBOL        key
  C:96FBH         LINE#         626
  C:96FBH         LINE#         627
  C:96FBH         LINE#         628
  C:970FH         LINE#         629
  C:970FH         LINE#         630
  C:970FH         LINE#         631
  C:9712H         LINE#         632
  C:9712H         LINE#         633
  C:9712H         LINE#         634
  C:9715H         LINE#         635
  C:9715H         LINE#         636
  C:9715H         LINE#         637
  C:9718H         LINE#         638
BL51 BANKED LINKER/LOCATER V6.22.2.0                                                  01/18/2022  14:53:23  PAGE 65


  C:9718H         LINE#         639
  C:9718H         LINE#         640
  C:9718H         LINE#         641
  C:971BH         LINE#         642
  C:971BH         LINE#         643
  C:971BH         LINE#         644
  -------         ENDPROC       _NAMESETKEY
  -------         PROC          _SHOWNAMEBYIDX
  D:0006H         SYMBOL        idx
  -------         DO            
  X:107EH         SYMBOL        tmpItem
  -------         ENDDO         
  C:96B8H         LINE#         646
  C:96B8H         LINE#         647
  C:96B8H         LINE#         649
  C:96C5H         LINE#         650
  C:96C5H         LINE#         651
  C:96CEH         LINE#         652
  C:96D9H         LINE#         653
  C:96D9H         LINE#         654
  -------         ENDPROC       _SHOWNAMEBYIDX
  -------         PROC          _CALLBYNAMEITEM
  X:107EH         SYMBOL        NameItem
  X:1081H         SYMBOL        telIdx
  -------         DO            
  X:1082H         SYMBOL        Disbuf
  -------         ENDDO         
  C:735AH         LINE#         693
  C:736AH         LINE#         694
  C:736AH         LINE#         697
  C:738CH         LINE#         698
  C:738CH         LINE#         699
  C:73B0H         LINE#         700
  C:73B0H         LINE#         701
  C:73B3H         LINE#         703
  C:73CCH         LINE#         704
  C:73CCH         LINE#         705
  C:73FAH         LINE#         706
  C:73FCH         LINE#         708
  C:73FCH         LINE#         709
  C:7437H         LINE#         710
  C:7437H         LINE#         711
  C:7444H         LINE#         712
  C:7446H         LINE#         713
  C:7446H         LINE#         714
  C:7448H         LINE#         715
  C:7448H         LINE#         716
  C:7449H         LINE#         717
  -------         ENDPROC       _CALLBYNAMEITEM
  -------         PROC          _REVNAMELIST
  D:0001H         SYMBOL        buf
  -------         DO            
  X:107CH         SYMBOL        i
  X:107EH         SYMBOL        cnt
  X:1080H         SYMBOL        j
  X:1082H         SYMBOL        tmpItem
  X:10D2H         SYMBOL        p
BL51 BANKED LINKER/LOCATER V6.22.2.0                                                  01/18/2022  14:53:23  PAGE 66


  -------         ENDDO         
  C:1394H         LINE#         719
  C:1394H         LINE#         720
  C:1394H         LINE#         724
  C:139FH         LINE#         726
  C:13A7H         LINE#         727
  C:13A7H         LINE#         728
  C:13B0H         LINE#         729
  C:13BBH         LINE#         731
  C:13BBH         LINE#         732
  C:13C4H         LINE#         733
  C:13E8H         LINE#         734
  C:13EFH         LINE#         735
  C:13EFH         LINE#         736
  C:1401H         LINE#         737
  C:1429H         LINE#         738
  C:1429H         LINE#         739
  C:1441H         LINE#         740
  C:1466H         LINE#         741
  C:1466H         LINE#         742
  C:148AH         LINE#         743
  C:1494H         LINE#         744
  C:1494H         LINE#         745
  C:14A6H         LINE#         747
  C:14B3H         LINE#         748
  C:14DBH         LINE#         750
  C:14FFH         LINE#         751
  C:1509H         LINE#         752
  C:1509H         LINE#         753
  C:151BH         LINE#         755
  C:1522H         LINE#         756
  C:1546H         LINE#         757
  C:1546H         LINE#         758
  C:1564H         LINE#         759
  C:1572H         LINE#         760
  C:1574H         LINE#         761
  C:1586H         LINE#         762
  C:1586H         LINE#         764
  C:15AAH         LINE#         765
  C:15B4H         LINE#         766
  C:15B4H         LINE#         767
  C:15C6H         LINE#         769
  C:15CDH         LINE#         770
  C:15F1H         LINE#         771
  C:15F1H         LINE#         772
  C:160FH         LINE#         773
  C:161DH         LINE#         774
  C:161FH         LINE#         775
  C:1631H         LINE#         776
  C:1631H         LINE#         778
  C:1655H         LINE#         779
  C:165FH         LINE#         780
  C:165FH         LINE#         781
  C:1671H         LINE#         783
  C:1678H         LINE#         784
  C:169CH         LINE#         785
  C:169CH         LINE#         786
BL51 BANKED LINKER/LOCATER V6.22.2.0                                                  01/18/2022  14:53:23  PAGE 67


  C:16BAH         LINE#         787
  C:16C8H         LINE#         788
  C:16CAH         LINE#         789
  C:16DCH         LINE#         790
  C:16DCH         LINE#         792
  C:1700H         LINE#         793
  C:170AH         LINE#         794
  C:170AH         LINE#         795
  C:171CH         LINE#         797
  C:1723H         LINE#         798
  C:1747H         LINE#         799
  C:1747H         LINE#         800
  C:1765H         LINE#         801
  C:1773H         LINE#         802
  C:1775H         LINE#         803
  C:1787H         LINE#         804
  C:1787H         LINE#         805
  C:179AH         LINE#         806
  C:1801H         LINE#         807
  C:1807H         LINE#         808
  C:1807H         LINE#         810
  C:1813H         LINE#         811
  C:1813H         LINE#         812
  C:1813H         LINE#         813
  C:1813H         LINE#         814
  C:1824H         LINE#         815
  C:1838H         LINE#         816
  C:1838H         LINE#         817
  C:1848H         LINE#         818
  C:184AH         LINE#         820
  C:184AH         LINE#         821
  C:1871H         LINE#         822
  C:1871H         LINE#         823
  C:1877H         LINE#         824
  -------         ENDPROC       _REVNAMELIST
  -------         ENDMOD        NAMELIST

  -------         MODULE        EEPROM
  C:0000H         SYMBOL        _ICE_DUMMY_
  C:99BEH         PUBLIC        IIC_stop
  D:0080H         PUBLIC        P0
  D:0090H         PUBLIC        P1
  D:00A0H         PUBLIC        P2
  D:00B0H         PUBLIC        P3
  D:00C0H         PUBLIC        P4
  D:00C8H         PUBLIC        P5
  D:00E8H         PUBLIC        P6
  D:00F8H         PUBLIC        P7
  D:00A8H         PUBLIC        IE
  D:00B8H         PUBLIC        IP
  C:8935H         PUBLIC        _readBuf_at24c02
  D:00D8H         PUBLIC        CCON
  C:9A65H         PUBLIC        IIC_Aack
  C:9992H         PUBLIC        _IIC_delayms
  C:8043H         PUBLIC        _writeBuf_at24c02
  D:0098H         PUBLIC        SCON
  D:0088H         PUBLIC        TCON
BL51 BANKED LINKER/LOCATER V6.22.2.0                                                  01/18/2022  14:53:23  PAGE 68


  B:00F8H.1       PUBLIC        P71
  B:00F8H.2       PUBLIC        P72
  B:00F8H.3       PUBLIC        P73
  D:00F0H         PUBLIC        B
  D:00E0H         PUBLIC        ACC
  C:008EH         PUBLIC        IIC_nack
  C:92F7H         PUBLIC        IIC_ack
  C:99A8H         PUBLIC        IIC_start
  C:8F2EH         PUBLIC        IIC_read_byte
  C:8D08H         PUBLIC        _IIC_send_byte
  D:00D0H         PUBLIC        PSW
  -------         PROC          _IIC_DELAYMS
  D:0007H         SYMBOL        t
  -------         DO            
  D:0006H         SYMBOL        j
  -------         ENDDO         
  C:9992H         LINE#         13
  C:9992H         LINE#         14
  C:9992H         LINE#         16
  C:9998H         LINE#         17
  C:99A7H         LINE#         18
  -------         ENDPROC       _IIC_DELAYMS
  -------         PROC          IIC_START
  C:99A8H         LINE#         19
  C:99A8H         LINE#         20
  C:99A8H         LINE#         21
  C:99AAH         LINE#         22
  C:99AFH         LINE#         23
  C:99B1H         LINE#         24
  C:99B6H         LINE#         25
  C:99B8H         LINE#         26
  C:99BDH         LINE#         27
  -------         ENDPROC       IIC_START
  -------         PROC          IIC_STOP
  C:99BEH         LINE#         29
  C:99BEH         LINE#         30
  C:99BEH         LINE#         31
  C:99C0H         LINE#         32
  C:99C5H         LINE#         33
  C:99C7H         LINE#         34
  C:99CCH         LINE#         35
  C:99CEH         LINE#         36
  C:99D3H         LINE#         37
  -------         ENDPROC       IIC_STOP
  -------         PROC          L?0033
  -------         ENDPROC       L?0033
  -------         PROC          IIC_ACK
  -------         DO            
  D:0007H         SYMBOL        i
  -------         ENDDO         
  C:92F7H         LINE#         39
  C:92F7H         LINE#         40
  C:92F7H         LINE#         41
  C:92F9H         LINE#         42
  C:92FBH         LINE#         43
  C:9300H         LINE#         44
  C:9310H         LINE#         45
BL51 BANKED LINKER/LOCATER V6.22.2.0                                                  01/18/2022  14:53:23  PAGE 69


  C:9312H         LINE#         46
  C:9317H         LINE#         47
  -------         ENDPROC       IIC_ACK
  -------         PROC          IIC_NACK
  C:008EH         LINE#         49
  C:008EH         LINE#         50
  C:008EH         LINE#         51
  C:0090H         LINE#         52
  C:0092H         LINE#         53
  C:0097H         LINE#         54
  C:0099H         LINE#         55
  C:009EH         LINE#         56
  C:00A0H         LINE#         57
  C:00A2H         LINE#         58
  -------         ENDPROC       IIC_NACK
  -------         PROC          IIC_AACK
  C:9A65H         LINE#         60
  C:9A65H         LINE#         61
  C:9A65H         LINE#         62
  C:9A67H         LINE#         63
  C:9A69H         LINE#         64
  C:9A6EH         LINE#         65
  C:9A70H         LINE#         66
  C:9A75H         LINE#         67
  C:9A77H         LINE#         68
  -------         ENDPROC       IIC_AACK
  -------         PROC          _IIC_SEND_BYTE
  D:0007H         SYMBOL        date
  -------         DO            
  D:0006H         SYMBOL        i
  D:0007H         SYMBOL        temp
  -------         ENDDO         
  C:8D08H         LINE#         72
  C:8D08H         LINE#         73
  C:8D08H         LINE#         75
  C:8D08H         LINE#         76
  C:8D14H         LINE#         77
  C:8D14H         LINE#         78
  C:8D16H         LINE#         79
  C:8D1BH         LINE#         80
  C:8D27H         LINE#         81
  C:8D2BH         LINE#         82
  C:8D30H         LINE#         83
  C:8D32H         LINE#         84
  C:8D37H         LINE#         85
  C:8D39H         LINE#         86
  C:8D3CH         LINE#         87
  C:8D3EH         LINE#         88
  C:8D43H         LINE#         89
  C:8D45H         LINE#         90
  C:8D4AH         LINE#         93
  -------         ENDPROC       _IIC_SEND_BYTE
  -------         PROC          IIC_READ_BYTE
  -------         DO            
  D:0006H         SYMBOL        i
  D:0007H         SYMBOL        k
  -------         ENDDO         
BL51 BANKED LINKER/LOCATER V6.22.2.0                                                  01/18/2022  14:53:23  PAGE 70


  C:8F2EH         LINE#         95
  C:8F2EH         LINE#         96
  C:8F2EH         LINE#         97
  C:8F2EH         LINE#         98
  C:8F30H         LINE#         99
  C:8F35H         LINE#         100
  C:8F37H         LINE#         101
  C:8F3CH         LINE#         102
  C:8F48H         LINE#         103
  C:8F48H         LINE#         104
  C:8F4AH         LINE#         105
  C:8F4FH         LINE#         106
  C:8F53H         LINE#         107
  C:8F59H         LINE#         108
  C:8F5BH         LINE#         109
  C:8F60H         LINE#         110
  C:8F63H         LINE#         111
  C:8F63H         LINE#         112
  -------         ENDPROC       IIC_READ_BYTE
  -------         PROC          _WRITEBUF_AT24C02
  X:1125H         SYMBOL        address
  X:1127H         SYMBOL        buf
  X:112AH         SYMBOL        len
  C:8043H         LINE#         150
  C:8054H         LINE#         151
  C:8054H         LINE#         152
  C:8056H         LINE#         153
  C:8056H         LINE#         154
  C:8056H         LINE#         155
  C:8056H         LINE#         156
  C:8056H         LINE#         157
  C:8056H         LINE#         158
  C:8056H         LINE#         159
  C:8058H         LINE#         160
  C:8066H         LINE#         161
  C:8066H         LINE#         162
  C:807DH         LINE#         163
  C:8080H         LINE#         164
  C:808EH         LINE#         165
  C:80A5H         LINE#         166
  C:80A5H         LINE#         167
  C:80A8H         LINE#         168
  C:80ADH         LINE#         169
  C:80ADH         LINE#         170
  C:80ADH         LINE#         171
  C:80B0H         LINE#         172
  C:80B8H         LINE#         173
  C:80BBH         LINE#         174
  C:80C1H         LINE#         175
  C:80C4H         LINE#         176
  C:80C4H         LINE#         177
  C:80C6H         LINE#         178
  C:80C9H         LINE#         179
  -------         ENDPROC       _WRITEBUF_AT24C02
  -------         PROC          _READBUF_AT24C02
  D:0004H         SYMBOL        address
  D:0001H         SYMBOL        buf
BL51 BANKED LINKER/LOCATER V6.22.2.0                                                  01/18/2022  14:53:23  PAGE 71


  X:112AH         SYMBOL        len
  -------         DO            
  X:112CH         SYMBOL        dat
  -------         ENDDO         
  C:8935H         LINE#         182
  C:8939H         LINE#         183
  C:8939H         LINE#         185
  C:8939H         LINE#         186
  C:8939H         LINE#         187
  C:893CH         LINE#         188
  C:8941H         LINE#         189
  C:8944H         LINE#         190
  C:8949H         LINE#         191
  C:894CH         LINE#         192
  C:894FH         LINE#         193
  C:8954H         LINE#         194
  C:8957H         LINE#         195
  C:8966H         LINE#         196
  C:8966H         LINE#         197
  C:8972H         LINE#         198
  C:8979H         LINE#         199
  C:897CH         LINE#         200
  C:8983H         LINE#         201
  C:8985H         LINE#         202
  C:898CH         LINE#         203
  C:898FH         LINE#         204
  C:8992H         LINE#         205
  C:8997H         LINE#         206
  -------         ENDPROC       _READBUF_AT24C02
  -------         ENDMOD        EEPROM

  -------         MODULE        SYSSTATUS
  C:0000H         SYMBOL        _ICE_DUMMY_
  D:0080H         PUBLIC        P0
  D:0090H         PUBLIC        P1
  C:8AFAH         PUBLIC        _ReadRoomByIdx
  D:00A0H         PUBLIC        P2
  D:00B0H         PUBLIC        P3
  D:00C0H         PUBLIC        P4
  D:00C8H         PUBLIC        P5
  D:00E8H         PUBLIC        P6
  D:00F8H         PUBLIC        P7
  D:00A8H         PUBLIC        IE
  C:6F4DH         PUBLIC        _InputSysPsw
  X:11CFH         PUBLIC        IdleTime
  X:11D1H         PUBLIC        NameItemCall
  X:1221H         PUBLIC        Volum
  D:00B8H         PUBLIC        IP
  D:00D8H         PUBLIC        CCON
  C:81E4H         PUBLIC        _GetIdxByRoom
  X:1222H         PUBLIC        MainShow
  C:979EH         PUBLIC        InputSysPswCon
  X:1223H         PUBLIC        InputRoom
  X:1225H         PUBLIC        InputLen
  D:0098H         PUBLIC        SCON
  D:0088H         PUBLIC        TCON
  B:00E8H.1       PUBLIC        P61
BL51 BANKED LINKER/LOCATER V6.22.2.0                                                  01/18/2022  14:53:23  PAGE 72


  X:1226H         PUBLIC        InputIdx
  X:1227H         PUBLIC        InputMax
  C:87FFH         PUBLIC        _SysCard
  C:7934H         PUBLIC        InitUserPara
  D:00F0H         PUBLIC        B
  X:1229H         PUBLIC        UsrPara
  C:53B3H         PUBLIC        _SaveSubPara
  C:5AC8H         PUBLIC        _SysSubSetKey
  C:8EBFH         PUBLIC        SysSettingCon
  X:1231H         PUBLIC        SysPara
  D:00E0H         PUBLIC        ACC
  X:1241H         PUBLIC        NameListIdx
  X:1243H         PUBLIC        SysStatus
  X:1244H         PUBLIC        CallTleIdx
  C:761CH         PUBLIC        _SysSettingKey
  X:1245H         PUBLIC        InputPsw
  C:918BH         PUBLIC        _InputRoomCon
  C:51CEH         PUBLIC        ShowSubPara
  C:886AH         PUBLIC        ShowInputRoom
  C:6BD3H         PUBLIC        InitSysPara
  C:9318H         PUBLIC        SysIdleCon
  C:5F72H         PUBLIC        _SysKey
  C:6804H         PUBLIC        _SysIdleKey
  C:82F2H         PUBLIC        ShowInputPsw
  C:705BH         PUBLIC        _SysInputRoom
  C:8998H         PUBLIC        _SysTalkKey
  D:00D0H         PUBLIC        PSW
  C:626DH         PUBLIC        _SubSetCon
  -------         PROC          INITSYSPARA
  B:0020H.0       SYMBOL        rst
  C:6BD3H         LINE#         22
  C:6BD3H         LINE#         23
  C:6BD3H         LINE#         24
  C:6BE8H         LINE#         25
  C:6BF7H         LINE#         26
  C:6BF7H         LINE#         27
  C:6C01H         LINE#         28
  C:6C08H         LINE#         29
  C:6C0CH         LINE#         30
  C:6C10H         LINE#         31
  C:6C14H         LINE#         32
  C:6C16H         LINE#         33
  C:6C1AH         LINE#         34
  C:6C1EH         LINE#         35
  C:6C21H         LINE#         36
  C:6C25H         LINE#         37
  C:6C2DH         LINE#         38
  C:6C42H         LINE#         39
  C:6C42H         LINE#         41
  C:6C5AH         LINE#         42
  C:6C6BH         LINE#         43
  C:6C7CH         LINE#         44
  C:6C8DH         LINE#         45
  C:6C9EH         LINE#         46
  C:6CAFH         LINE#         47
  C:6CC0H         LINE#         48
  C:6CD1H         LINE#         49
BL51 BANKED LINKER/LOCATER V6.22.2.0                                                  01/18/2022  14:53:23  PAGE 73


  C:6CE2H         LINE#         51
  C:6CEFH         LINE#         52
  C:6CEFH         LINE#         53
  C:6CF2H         LINE#         54
  C:6CF2H         LINE#         55
  C:6CFAH         LINE#         59
  C:6D00H         LINE#         60
  C:6D00H         LINE#         61
  C:6D02H         LINE#         62
  C:6D03H         LINE#         64
  C:6D03H         LINE#         65
  C:6D05H         LINE#         66
  C:6D05H         LINE#         67
  -------         ENDPROC       INITSYSPARA
  -------         PROC          INITUSERPARA
  C:7934H         LINE#         69
  C:7934H         LINE#         70
  C:7934H         LINE#         71
  C:794AH         LINE#         72
  C:7958H         LINE#         73
  C:7958H         LINE#         74
  C:7962H         LINE#         75
  C:7967H         LINE#         76
  C:796BH         LINE#         77
  C:796FH         LINE#         78
  C:7984H         LINE#         79
  C:7984H         LINE#         81
  C:799CH         LINE#         82
  C:79B4H         LINE#         83
  C:79CCH         LINE#         85
  C:79CFH         LINE#         86
  C:79D2H         LINE#         87
  -------         ENDPROC       INITUSERPARA
  -------         PROC          _READROOMBYIDX
  D:0006H         SYMBOL        idx
  D:0005H         SYMBOL        type
  -------         DO            
  X:10E1H         SYMBOL        room
  D:0006H         SYMBOL        addr
  -------         ENDDO         
  C:8AFAH         LINE#         90
  C:8AFAH         LINE#         91
  C:8AFAH         LINE#         93
  C:8AFAH         LINE#         94
  C:8B06H         LINE#         95
  C:8B06H         LINE#         96
  C:8B06H         LINE#         97
  C:8B0DH         LINE#         98
  C:8B14H         LINE#         99
  C:8B16H         LINE#         100
  C:8B16H         LINE#         101
  C:8B20H         LINE#         102
  C:8B22H         LINE#         103
  C:8B24H         LINE#         104
  C:8B24H         LINE#         105
  C:8B2BH         LINE#         106
  C:8B33H         LINE#         107
BL51 BANKED LINKER/LOCATER V6.22.2.0                                                  01/18/2022  14:53:23  PAGE 74


  C:8B33H         LINE#         108
  C:8B33H         LINE#         111
  C:8B45H         LINE#         112
  C:8B4DH         LINE#         113
  -------         ENDPROC       _READROOMBYIDX
  -------         PROC          _GETIDXBYROOM
  X:10DAH         SYMBOL        room
  X:10DCH         SYMBOL        type
  -------         DO            
  X:10DDH         SYMBOL        i
  D:0006H         SYMBOL        DstRoom
  X:10DFH         SYMBOL        iMax
  -------         ENDDO         
  C:81E4H         LINE#         115
  C:81EFH         LINE#         116
  C:81EFH         LINE#         117
  C:81F4H         LINE#         120
  C:8200H         LINE#         121
  C:8200H         LINE#         122
  C:8200H         LINE#         123
  C:8203H         LINE#         124
  C:8205H         LINE#         125
  C:8205H         LINE#         126
  C:8208H         LINE#         127
  C:820AH         LINE#         128
  C:820AH         LINE#         129
  C:8219H         LINE#         130
  C:8219H         LINE#         131
  C:8219H         LINE#         132
  C:822FH         LINE#         133
  C:822FH         LINE#         134
  C:8237H         LINE#         135
  C:8243H         LINE#         136
  C:8243H         LINE#         137
  C:824CH         LINE#         138
  C:824CH         LINE#         139
  C:8254H         LINE#         140
  C:8254H         LINE#         141
  C:8254H         LINE#         142
  C:8254H         LINE#         143
  C:8262H         LINE#         144
  C:8264H         LINE#         145
  C:8268H         LINE#         146
  -------         ENDPROC       _GETIDXBYROOM
  -------         PROC          SYSIDLECON
  C:9318H         LINE#         151
  C:9318H         LINE#         152
  C:9318H         LINE#         153
  C:931EH         LINE#         154
  C:9326H         LINE#         155
  C:932DH         LINE#         156
  C:9331H         LINE#         157
  C:9337H         LINE#         158
  C:933DH         LINE#         159
  -------         ENDPROC       SYSIDLECON
  -------         PROC          SYSSETTINGCON
  C:8EBFH         LINE#         161
BL51 BANKED LINKER/LOCATER V6.22.2.0                                                  01/18/2022  14:53:23  PAGE 75


  C:8EBFH         LINE#         162
  C:8EBFH         LINE#         163
  C:8EC5H         LINE#         164
  C:8EC8H         LINE#         165
  C:8ED5H         LINE#         166
  C:8EE2H         LINE#         167
  C:8EEBH         LINE#         168
  C:8EF2H         LINE#         169
  C:8EF6H         LINE#         170
  -------         ENDPROC       SYSSETTINGCON
  -------         PROC          SHOWINPUTROOM
  -------         DO            
  X:107EH         SYMBOL        Disbuf
  -------         ENDDO         
  C:886AH         LINE#         172
  C:886AH         LINE#         173
  C:886AH         LINE#         175
  C:886DH         LINE#         176
  C:887AH         LINE#         177
  C:888AH         LINE#         178
  C:888AH         LINE#         180
  C:88A7H         LINE#         181
  C:88D0H         LINE#         182
  C:88D0H         LINE#         188
  -------         ENDPROC       SHOWINPUTROOM
  -------         PROC          _INPUTROOMCON
  D:0007H         SYMBOL        key
  C:918BH         LINE#         189
  C:918BH         LINE#         190
  C:918BH         LINE#         191
  C:9191H         LINE#         192
  C:919BH         LINE#         193
  C:91A1H         LINE#         194
  C:91A4H         LINE#         195
  C:91A4H         LINE#         196
  C:91A5H         LINE#         197
  C:91A5H         LINE#         198
  C:91A8H         LINE#         199
  C:91B5H         LINE#         200
  -------         ENDPROC       _INPUTROOMCON
  -------         PROC          _SYSINPUTROOM
  X:107DH         SYMBOL        key
  C:705BH         LINE#         203
  C:7060H         LINE#         204
  C:7060H         LINE#         205
  C:706BH         LINE#         206
  C:706BH         LINE#         207
  C:706BH         LINE#         208
  C:707BH         LINE#         209
  C:707BH         LINE#         210
  C:708CH         LINE#         211
  C:708CH         LINE#         212
  C:7091H         LINE#         213
  C:709DH         LINE#         214
  C:709DH         LINE#         215
  C:70A3H         LINE#         216
  C:70A4H         LINE#         217
BL51 BANKED LINKER/LOCATER V6.22.2.0                                                  01/18/2022  14:53:23  PAGE 76


  C:70B0H         LINE#         218
  C:70B0H         LINE#         219
  C:70B3H         LINE#         220
  C:70B3H         LINE#         221
  C:70B5H         LINE#         223
  C:70B5H         LINE#         224
  C:70B8H         LINE#         225
  C:70C1H         LINE#         226
  C:70C2H         LINE#         228
  C:70C2H         LINE#         229
  C:70C2H         LINE#         230
  C:70C5H         LINE#         231
  C:70CAH         LINE#         232
  C:70D3H         LINE#         233
  C:70DAH         LINE#         234
  C:70DEH         LINE#         235
  C:70E0H         LINE#         236
  C:70E0H         LINE#         237
  C:70EDH         LINE#         238
  C:70EDH         LINE#         239
  C:70F0H         LINE#         240
  C:7107H         LINE#         241
  C:710AH         LINE#         242
  C:710CH         LINE#         244
  C:710CH         LINE#         246
  C:710FH         LINE#         248
  C:7112H         LINE#         249
  C:7112H         LINE#         250
  C:7112H         LINE#         251
  C:7112H         LINE#         252
  C:7128H         LINE#         253
  C:7128H         LINE#         254
  C:7135H         LINE#         255
  C:7135H         LINE#         256
  C:7138H         LINE#         257
  C:714FH         LINE#         258
  C:7161H         LINE#         259
  C:7164H         LINE#         260
  C:7164H         LINE#         261
  C:7164H         LINE#         262
  -------         ENDPROC       _SYSINPUTROOM
  -------         PROC          L?0293
  -------         ENDPROC       L?0293
  -------         PROC          SHOWINPUTPSW
  -------         DO            
  X:107EH         SYMBOL        Disbuf
  D:0005H         SYMBOL        i
  D:0006H         SYMBOL        l
  -------         ENDDO         
  C:82F2H         LINE#         265
  C:82F2H         LINE#         266
  C:82F2H         LINE#         269
  C:82F5H         LINE#         271
  C:82FDH         LINE#         272
  C:82FDH         LINE#         273
  C:8309H         LINE#         274
  C:8309H         LINE#         287
BL51 BANKED LINKER/LOCATER V6.22.2.0                                                  01/18/2022  14:53:23  PAGE 77


  C:8320H         LINE#         289
  C:832CH         LINE#         290
  C:832CH         LINE#         291
  C:833FH         LINE#         292
  C:8342H         LINE#         293
  C:8354H         LINE#         298
  C:8360H         LINE#         300
  -------         ENDPROC       SHOWINPUTPSW
  -------         PROC          INPUTSYSPSWCON
  C:979EH         LINE#         305
  C:979EH         LINE#         306
  C:979EH         LINE#         307
  C:97A4H         LINE#         308
  C:97AEH         LINE#         309
  C:97B3H         LINE#         310
  C:97B6H         LINE#         311
  -------         ENDPROC       INPUTSYSPSWCON
  -------         PROC          _INPUTSYSPSW
  X:107DH         SYMBOL        key
  C:6F4DH         LINE#         314
  C:6F52H         LINE#         315
  C:6F52H         LINE#         316
  C:6F64H         LINE#         317
  C:6F64H         LINE#         318
  C:6F64H         LINE#         319
  C:6F85H         LINE#         320
  C:6F85H         LINE#         321
  C:6FA1H         LINE#         322
  C:6FA1H         LINE#         323
  C:6FA4H         LINE#         325
  C:6FA4H         LINE#         326
  C:6FA4H         LINE#         327
  C:6FA7H         LINE#         328
  C:6FACH         LINE#         329
  C:6FB6H         LINE#         330
  C:6FBBH         LINE#         331
  C:6FBDH         LINE#         332
  C:6FBDH         LINE#         333
  C:6FCAH         LINE#         334
  C:6FCAH         LINE#         335
  C:6FCDH         LINE#         336
  C:6FE4H         LINE#         337
  C:6FE7H         LINE#         338
  C:6FE9H         LINE#         340
  C:6FE9H         LINE#         343
  C:6FECH         LINE#         345
  C:6FECH         LINE#         346
  C:6FECH         LINE#         347
  C:6FEEH         LINE#         348
  C:6FEEH         LINE#         349
  C:6FF1H         LINE#         350
  C:6FF1H         LINE#         351
  C:6FF1H         LINE#         352
  C:7007H         LINE#         353
  C:7007H         LINE#         354
  C:7014H         LINE#         355
  C:7014H         LINE#         356
BL51 BANKED LINKER/LOCATER V6.22.2.0                                                  01/18/2022  14:53:23  PAGE 78


  C:7017H         LINE#         357
  C:7034H         LINE#         358
  C:7057H         LINE#         359
  C:705AH         LINE#         360
  C:705AH         LINE#         361
  C:705AH         LINE#         362
  -------         ENDPROC       _INPUTSYSPSW
  -------         PROC          _SYSIDLEKEY
  X:107DH         SYMBOL        key
  C:6804H         LINE#         364
  C:6809H         LINE#         365
  C:6809H         LINE#         366
  C:6823H         LINE#         367
  C:6823H         LINE#         368
  C:6823H         LINE#         374
  C:6823H         LINE#         375
  C:6826H         LINE#         376
  C:6826H         LINE#         377
  C:6829H         LINE#         378
  C:6829H         LINE#         379
  C:682CH         LINE#         380
  C:682FH         LINE#         381
  C:682FH         LINE#         382
  C:6832H         LINE#         383
  C:6835H         LINE#         384
  C:6835H         LINE#         385
  C:6848H         LINE#         386
  C:6848H         LINE#         387
  C:685DH         LINE#         388
  C:685DH         LINE#         389
  C:6869H         LINE#         390
  C:686BH         LINE#         392
  C:686BH         LINE#         393
  C:6872H         LINE#         394
  C:6872H         LINE#         395
  C:6872H         LINE#         396
  C:6872H         LINE#         397
  C:6874H         LINE#         398
  C:6874H         LINE#         399
  C:6887H         LINE#         400
  C:6887H         LINE#         401
  C:6894H         LINE#         402
  C:6894H         LINE#         403
  C:689CH         LINE#         404
  C:689CH         LINE#         405
  C:68A7H         LINE#         406
  C:68A9H         LINE#         408
  C:68A9H         LINE#         409
  C:68B7H         LINE#         410
  C:68B7H         LINE#         411
  C:68B9H         LINE#         413
  C:68B9H         LINE#         414
  C:68CDH         LINE#         415
  C:68CDH         LINE#         416
  C:68D8H         LINE#         417
  C:68D8H         LINE#         418
  C:68DAH         LINE#         419
BL51 BANKED LINKER/LOCATER V6.22.2.0                                                  01/18/2022  14:53:23  PAGE 79


  C:68DAH         LINE#         420
  C:68F0H         LINE#         421
  C:68F0H         LINE#         422
  C:68F5H         LINE#         423
  C:68FEH         LINE#         424
  C:690BH         LINE#         425
  C:690BH         LINE#         426
  C:6911H         LINE#         427
  C:6913H         LINE#         428
  C:691FH         LINE#         429
  C:691FH         LINE#         430
  C:6922H         LINE#         431
  C:6922H         LINE#         432
  C:6924H         LINE#         434
  C:6924H         LINE#         435
  C:6927H         LINE#         436
  C:6930H         LINE#         437
  C:6930H         LINE#         438
  C:6932H         LINE#         440
  C:6932H         LINE#         441
  C:6937H         LINE#         442
  C:6937H         LINE#         443
  C:6937H         LINE#         444
  C:6937H         LINE#         445
  C:6951H         LINE#         446
  C:6951H         LINE#         447
  C:6954H         LINE#         448
  C:6954H         LINE#         449
  -------         ENDPROC       _SYSIDLEKEY
  -------         PROC          _SYSSETTINGKEY
  X:107DH         SYMBOL        key
  C:761CH         LINE#         451
  C:7621H         LINE#         452
  C:7621H         LINE#         453
  C:7634H         LINE#         454
  C:7634H         LINE#         455
  C:7641H         LINE#         456
  C:7641H         LINE#         457
  C:7644H         LINE#         458
  C:765BH         LINE#         459
  C:766EH         LINE#         460
  C:767EH         LINE#         461
  C:767EH         LINE#         462
  C:767FH         LINE#         463
  C:767FH         LINE#         464
  C:767FH         LINE#         465
  C:7681H         LINE#         467
  C:7681H         LINE#         468
  C:768EH         LINE#         469
  C:7694H         LINE#         470
  C:7694H         LINE#         471
  C:7695H         LINE#         472
  C:769DH         LINE#         473
  C:769DH         LINE#         474
  C:769DH         LINE#         475
  C:769FH         LINE#         476
  C:76A7H         LINE#         477
BL51 BANKED LINKER/LOCATER V6.22.2.0                                                  01/18/2022  14:53:23  PAGE 80


  C:76A7H         LINE#         478
  C:76AAH         LINE#         479
  C:76AAH         LINE#         480
  C:76B2H         LINE#         481
  C:76B2H         LINE#         482
  C:76CAH         LINE#         483
  C:76CAH         LINE#         484
  C:76D0H         LINE#         486
  C:76D0H         LINE#         487
  C:76ECH         LINE#         488
  C:76ECH         LINE#         489
  C:76ECH         LINE#         490
  C:76EFH         LINE#         491
  C:76EFH         LINE#         492
  C:76EFH         LINE#         493
  C:76F2H         LINE#         494
  C:76F2H         LINE#         495
  C:76F2H         LINE#         496
  C:76F5H         LINE#         497
  C:76F5H         LINE#         498
  C:76F5H         LINE#         499
  C:76F8H         LINE#         500
  C:76F8H         LINE#         501
  C:76F8H         LINE#         502
  C:76FDH         LINE#         503
  C:76FDH         LINE#         514
  C:76FDH         LINE#         515
  C:76FDH         LINE#         543
  -------         ENDPROC       _SYSSETTINGKEY
  -------         PROC          _SYSTALKKEY
  X:107DH         SYMBOL        key
  C:8998H         LINE#         545
  C:899DH         LINE#         546
  C:899DH         LINE#         548
  C:89B0H         LINE#         549
  C:89B0H         LINE#         550
  C:89B5H         LINE#         552
  C:89B5H         LINE#         553
  C:89C7H         LINE#         554
  C:89C7H         LINE#         555
  C:89C7H         LINE#         556
  C:89C7H         LINE#         557
  C:89CAH         LINE#         558
  C:89CDH         LINE#         559
  C:89CDH         LINE#         560
  C:89CDH         LINE#         561
  C:89DAH         LINE#         562
  C:89DAH         LINE#         563
  C:89DCH         LINE#         564
  C:89DCH         LINE#         565
  C:89DCH         LINE#         566
  C:89DEH         LINE#         567
  C:89DEH         LINE#         568
  C:89EBH         LINE#         569
  C:89EBH         LINE#         570
  C:89EEH         LINE#         571
  C:89F3H         LINE#         572
BL51 BANKED LINKER/LOCATER V6.22.2.0                                                  01/18/2022  14:53:23  PAGE 81


  C:89F3H         LINE#         573
  C:89F3H         LINE#         574
  C:89F3H         LINE#         575
  -------         ENDPROC       _SYSTALKKEY
  -------         PROC          SHOWSUBPARA
  -------         DO            
  X:107EH         SYMBOL        Disbuf
  -------         ENDDO         
  C:51CEH         LINE#         579
  C:51CEH         LINE#         580
  C:51CEH         LINE#         582
  C:51D1H         LINE#         583
  C:5208H         LINE#         584
  C:5208H         LINE#         585
  C:5208H         LINE#         586
  C:5221H         LINE#         587
  C:5224H         LINE#         588
  C:5224H         LINE#         589
  C:523DH         LINE#         590
  C:5240H         LINE#         591
  C:5240H         LINE#         592
  C:5259H         LINE#         593
  C:525CH         LINE#         594
  C:525CH         LINE#         595
  C:5275H         LINE#         596
  C:5278H         LINE#         597
  C:5278H         LINE#         598
  C:529BH         LINE#         599
  C:52A5H         LINE#         600
  C:52A5H         LINE#         601
  C:52A7H         LINE#         602
  C:52A9H         LINE#         604
  C:52A9H         LINE#         605
  C:52ABH         LINE#         606
  C:52ABH         LINE#         607
  C:52ADH         LINE#         608
  C:52ADH         LINE#         609
  C:52C6H         LINE#         610
  C:52C8H         LINE#         611
  C:52C8H         LINE#         612
  C:52E1H         LINE#         613
  C:52E3H         LINE#         614
  C:52E3H         LINE#         615
  C:52FCH         LINE#         616
  C:52FEH         LINE#         617
  C:52FEH         LINE#         618
  C:5321H         LINE#         619
  C:5321H         LINE#         620
  C:5321H         LINE#         621
  C:5334H         LINE#         622
  C:5334H         LINE#         625
  C:5341H         LINE#         626
  C:535DH         LINE#         628
  C:535DH         LINE#         633
  C:536AH         LINE#         634
  C:537AH         LINE#         635
  C:537AH         LINE#         636
BL51 BANKED LINKER/LOCATER V6.22.2.0                                                  01/18/2022  14:53:23  PAGE 82


  C:5397H         LINE#         637
  C:53B2H         LINE#         638
  C:53B2H         LINE#         640
  -------         ENDPROC       SHOWSUBPARA
  -------         PROC          _SUBSETCON
  D:0007H         SYMBOL        type
  -------         DO            
  D:0006H         SYMBOL        tmp
  -------         ENDDO         
  C:626DH         LINE#         642
  C:626DH         LINE#         643
  C:626DH         LINE#         645
  C:6272H         LINE#         646
  C:62A5H         LINE#         647
  C:62A5H         LINE#         648
  C:62A5H         LINE#         649
  C:62ABH         LINE#         650
  C:62B5H         LINE#         651
  C:62C0H         LINE#         652
  C:62C3H         LINE#         653
  C:62C3H         LINE#         654
  C:62C9H         LINE#         655
  C:62D1H         LINE#         656
  C:62DAH         LINE#         657
  C:62DDH         LINE#         658
  C:62DDH         LINE#         659
  C:62E3H         LINE#         660
  C:62ECH         LINE#         661
  C:62F5H         LINE#         662
  C:62F8H         LINE#         663
  C:62F8H         LINE#         664
  C:62FEH         LINE#         665
  C:6306H         LINE#         666
  C:630FH         LINE#         667
  C:6312H         LINE#         668
  C:6312H         LINE#         669
  C:6318H         LINE#         670
  C:6320H         LINE#         671
  C:6329H         LINE#         672
  C:632BH         LINE#         673
  C:632BH         LINE#         674
  C:6331H         LINE#         675
  C:633AH         LINE#         676
  C:6343H         LINE#         677
  C:6345H         LINE#         678
  C:6345H         LINE#         679
  C:634BH         LINE#         680
  C:6354H         LINE#         681
  C:635DH         LINE#         682
  C:635FH         LINE#         683
  C:635FH         LINE#         684
  C:6365H         LINE#         685
  C:636EH         LINE#         686
  C:6377H         LINE#         687
  C:6379H         LINE#         688
  C:6379H         LINE#         689
  C:637FH         LINE#         690
BL51 BANKED LINKER/LOCATER V6.22.2.0                                                  01/18/2022  14:53:23  PAGE 83


  C:6388H         LINE#         691
  C:6395H         LINE#         692
  C:6395H         LINE#         693
  C:6395H         LINE#         694
  C:639AH         LINE#         695
  C:63A2H         LINE#         696
  C:63ABH         LINE#         697
  C:63ABH         LINE#         698
  C:63B1H         LINE#         699
  C:63B8H         LINE#         700
  C:63BAH         LINE#         701
  C:63D7H         LINE#         702
  C:63D7H         LINE#         703
  C:63DDH         LINE#         704
  C:63DDH         LINE#         705
  -------         ENDPROC       _SUBSETCON
  -------         PROC          _SAVESUBPARA
  D:0007H         SYMBOL        type
  X:107EH         SYMBOL        dat
  C:53B3H         LINE#         708
  C:53BBH         LINE#         709
  C:53BBH         LINE#         710
  C:53EFH         LINE#         711
  C:53EFH         LINE#         712
  C:53EFH         LINE#         713
  C:53FEH         LINE#         714
  C:5417H         LINE#         715
  C:541AH         LINE#         716
  C:541AH         LINE#         717
  C:5423H         LINE#         718
  C:543BH         LINE#         719
  C:543EH         LINE#         720
  C:543EH         LINE#         721
  C:5447H         LINE#         722
  C:545FH         LINE#         723
  C:5462H         LINE#         724
  C:5462H         LINE#         725
  C:5476H         LINE#         726
  C:548EH         LINE#         727
  C:5491H         LINE#         728
  C:5491H         LINE#         729
  C:54A5H         LINE#         730
  C:54BDH         LINE#         731
  C:54C0H         LINE#         732
  C:54C0H         LINE#         733
  C:54C9H         LINE#         734
  C:54E1H         LINE#         735
  C:54E3H         LINE#         736
  C:54E3H         LINE#         737
  C:54F6H         LINE#         738
  C:54F6H         LINE#         739
  C:54FBH         LINE#         740
  C:5512H         LINE#         741
  C:5512H         LINE#         742
  C:5514H         LINE#         743
  C:5514H         LINE#         744
  C:5524H         LINE#         745
BL51 BANKED LINKER/LOCATER V6.22.2.0                                                  01/18/2022  14:53:23  PAGE 84


  C:5524H         LINE#         746
  C:5529H         LINE#         747
  C:5544H         LINE#         748
  C:5544H         LINE#         749
  C:5546H         LINE#         750
  C:5546H         LINE#         751
  C:5556H         LINE#         752
  C:5556H         LINE#         753
  C:555BH         LINE#         754
  C:5576H         LINE#         755
  C:557EH         LINE#         756
  C:557EH         LINE#         757
  C:557EH         LINE#         758
  C:557EH         LINE#         759
  -------         ENDPROC       _SAVESUBPARA
  -------         PROC          _SYSSUBSETKEY
  X:107DH         SYMBOL        key
  C:5AC8H         LINE#         762
  C:5ACDH         LINE#         763
  C:5ACDH         LINE#         764
  C:5AD5H         LINE#         765
  C:5AD5H         LINE#         766
  C:5AD8H         LINE#         768
  C:5AD8H         LINE#         769
  C:5AE8H         LINE#         770
  C:5AE8H         LINE#         771
  C:5AE8H         LINE#         772
  C:5B01H         LINE#         773
  C:5B01H         LINE#         774
  C:5B07H         LINE#         775
  C:5B07H         LINE#         776
  C:5B09H         LINE#         777
  C:5B0BH         LINE#         779
  C:5B0BH         LINE#         780
  C:5B0DH         LINE#         781
  C:5B0DH         LINE#         782
  C:5B0FH         LINE#         784
  C:5B0FH         LINE#         786
  C:5B15H         LINE#         787
  C:5B2CH         LINE#         788
  C:5B2FH         LINE#         789
  C:5B31H         LINE#         790
  C:5B31H         LINE#         791
  C:5B33H         LINE#         793
  C:5B33H         LINE#         794
  C:5B40H         LINE#         795
  C:5B40H         LINE#         796
  C:5B50H         LINE#         797
  C:5B56H         LINE#         798
  C:5B57H         LINE#         800
  C:5B57H         LINE#         801
  C:5B5AH         LINE#         802
  C:5B5AH         LINE#         804
  C:5B5AH         LINE#         805
  C:5B78H         LINE#         806
  C:5B78H         LINE#         807
  C:5B8BH         LINE#         808
BL51 BANKED LINKER/LOCATER V6.22.2.0                                                  01/18/2022  14:53:23  PAGE 85


  C:5B8BH         LINE#         809
  C:5B91H         LINE#         810
  C:5B9AH         LINE#         811
  C:5B9DH         LINE#         812
  C:5BABH         LINE#         813
  C:5BABH         LINE#         814
  C:5BBCH         LINE#         815
  C:5BBCH         LINE#         816
  C:5BC2H         LINE#         817
  C:5BC8H         LINE#         818
  C:5BC8H         LINE#         819
  C:5BCBH         LINE#         820
  C:5BD3H         LINE#         821
  C:5BD3H         LINE#         822
  C:5BF2H         LINE#         823
  C:5BF2H         LINE#         824
  C:5BF8H         LINE#         825
  C:5BFCH         LINE#         826
  C:5BFCH         LINE#         827
  C:5BFEH         LINE#         828
  C:5C26H         LINE#         829
  C:5C26H         LINE#         830
  C:5C2CH         LINE#         831
  C:5C34H         LINE#         832
  C:5C45H         LINE#         833
  C:5C45H         LINE#         834
  C:5C54H         LINE#         835
  C:5C56H         LINE#         837
  C:5C56H         LINE#         838
  C:5C65H         LINE#         839
  C:5C65H         LINE#         840
  C:5C65H         LINE#         841
  C:5C65H         LINE#         842
  C:5C68H         LINE#         843
  -------         ENDPROC       _SYSSUBSETKEY
  -------         PROC          _SYSKEY
  X:107CH         SYMBOL        Key
  C:5F72H         LINE#         845
  C:5F77H         LINE#         846
  C:5F77H         LINE#         847
  C:5F80H         LINE#         848
  C:5FF2H         LINE#         849
  C:5FF2H         LINE#         850
  C:5FF2H         LINE#         851
  C:5FFAH         LINE#         852
  C:5FFDH         LINE#         853
  C:5FFDH         LINE#         854
  C:6005H         LINE#         855
  C:6008H         LINE#         856
  C:6008H         LINE#         857
  C:6010H         LINE#         858
  C:6013H         LINE#         859
  C:6013H         LINE#         860
  C:601BH         LINE#         861
  C:601EH         LINE#         862
  C:601EH         LINE#         863
  C:6026H         LINE#         864
BL51 BANKED LINKER/LOCATER V6.22.2.0                                                  01/18/2022  14:53:23  PAGE 86


  C:6029H         LINE#         865
  C:6029H         LINE#         866
  C:6031H         LINE#         867
  C:6034H         LINE#         868
  C:6034H         LINE#         869
  C:603CH         LINE#         870
  C:603FH         LINE#         871
  C:603FH         LINE#         872
  C:6047H         LINE#         873
  C:6049H         LINE#         874
  C:6049H         LINE#         875
  C:6051H         LINE#         876
  C:6053H         LINE#         877
  C:6053H         LINE#         878
  C:605BH         LINE#         879
  C:605DH         LINE#         880
  C:605DH         LINE#         881
  C:6065H         LINE#         882
  C:6067H         LINE#         883
  C:6067H         LINE#         884
  C:606FH         LINE#         885
  C:6071H         LINE#         886
  C:6071H         LINE#         887
  C:6079H         LINE#         888
  C:607BH         LINE#         889
  C:607BH         LINE#         890
  C:6083H         LINE#         891
  C:6085H         LINE#         892
  C:6085H         LINE#         893
  C:608DH         LINE#         894
  C:608FH         LINE#         895
  C:608FH         LINE#         896
  C:6097H         LINE#         897
  C:6099H         LINE#         898
  C:6099H         LINE#         899
  C:60A1H         LINE#         900
  C:60A3H         LINE#         901
  C:60A3H         LINE#         902
  C:60ABH         LINE#         903
  C:60ADH         LINE#         904
  C:60ADH         LINE#         905
  C:60ADH         LINE#         906
  C:60B5H         LINE#         907
  C:60B7H         LINE#         908
  C:60B7H         LINE#         909
  C:60B7H         LINE#         910
  C:60B7H         LINE#         911
  C:60B7H         LINE#         912
  C:60B7H         LINE#         913
  C:60B7H         LINE#         914
  C:60B7H         LINE#         915
  C:60B7H         LINE#         916
  C:60B7H         LINE#         917
  C:60BFH         LINE#         918
  C:60BFH         LINE#         919
  C:60BFH         LINE#         920
  C:60E6H         LINE#         921
BL51 BANKED LINKER/LOCATER V6.22.2.0                                                  01/18/2022  14:53:23  PAGE 87


  C:60E6H         LINE#         922
  C:60EFH         LINE#         923
  C:60EFH         LINE#         924
  -------         ENDPROC       _SYSKEY
  -------         PROC          _SYSCARD
  X:107CH         SYMBOL        card
  C:87FFH         LINE#         926
  C:880AH         LINE#         927
  C:880AH         LINE#         928
  C:881DH         LINE#         929
  C:881DH         LINE#         930
  C:881DH         LINE#         931
  C:881DH         LINE#         932
  C:882BH         LINE#         933
  C:882BH         LINE#         934
  C:882BH         LINE#         935
  C:882BH         LINE#         936
  C:882BH         LINE#         937
  C:882BH         LINE#         938
  C:882BH         LINE#         939
  C:8841H         LINE#         940
  C:8841H         LINE#         941
  C:884DH         LINE#         942
  C:884FH         LINE#         944
  C:884FH         LINE#         945
  C:8852H         LINE#         946
  C:8852H         LINE#         947
  C:8860H         LINE#         948
  C:8860H         LINE#         949
  C:8869H         LINE#         950
  C:8869H         LINE#         951
  C:8869H         LINE#         953
  C:8869H         LINE#         954
  -------         ENDPROC       _SYSCARD
  -------         ENDMOD        SYSSTATUS

  -------         MODULE        UNLOCKPASSWORD
  C:0000H         SYMBOL        _ICE_DUMMY_
  D:0080H         PUBLIC        P0
  D:0090H         PUBLIC        P1
  D:00A0H         PUBLIC        P2
  D:00B0H         PUBLIC        P3
  D:00C0H         PUBLIC        P4
  D:00C8H         PUBLIC        P5
  D:00E8H         PUBLIC        P6
  D:00F8H         PUBLIC        P7
  C:80CEH         PUBLIC        PswSetCon
  D:00A8H         PUBLIC        IE
  C:97D8H         PUBLIC        SaveSysPsw
  C:971CH         PUBLIC        _PswSetKey
  C:9921H         PUBLIC        _PswDelAllKey
  D:00B8H         PUBLIC        IP
  C:8467H         PUBLIC        _CheckPsw
  C:97BBH         PUBLIC        _ReadPswByIdx
  D:00D8H         PUBLIC        CCON
  C:9B4FH         PUBLIC        ClearPsw
  C:94E8H         PUBLIC        EditSysPswCon
BL51 BANKED LINKER/LOCATER V6.22.2.0                                                  01/18/2022  14:53:23  PAGE 88


  C:939EH         PUBLIC        _WritePswByIdx
  C:9479H         PUBLIC        _DelPswByRoom
  C:3EEFH         PUBLIC        _SysPswEditKey
  D:0098H         PUBLIC        SCON
  C:94C3H         PUBLIC        DeletePswCon
  D:0088H         PUBLIC        TCON
  C:8721H         PUBLIC        _DelPswByIdx
  C:8C33H         PUBLIC        _GetPswByRoom
  C:590DH         PUBLIC        _PswDeleteKey
  D:00F0H         PUBLIC        B
  D:00E0H         PUBLIC        ACC
  C:99D4H         PUBLIC        DeleteAllPswCon
  C:9A78H         PUBLIC        InitPsw
  X:1379H         PUBLIC        PswEditItem
  C:836FH         PUBLIC        _AddPswItem
  X:1383H         SYMBOL        PswEditMidx
  C:962EH         PUBLIC        SavePswCount
  C:38AFH         PUBLIC        _ShowPsw
  C:949EH         PUBLIC        EditPswCon
  X:1384H         SYMBOL        PswEditIdx
  C:265BH         PUBLIC        _PswEditKey
  C:95C3H         PUBLIC        InputPswCon
  C:66ABH         PUBLIC        _PswInputKey
  D:00D0H         PUBLIC        PSW
  -------         PROC          SAVEPSWCOUNT
  C:962EH         LINE#         11
  C:962EH         LINE#         12
  C:962EH         LINE#         13
  -------         ENDPROC       SAVEPSWCOUNT
  -------         PROC          CLEARPSW
  C:9B4FH         LINE#         16
  C:9B4FH         LINE#         17
  C:9B4FH         LINE#         18
  C:9B56H         LINE#         19
  -------         ENDPROC       CLEARPSW
  -------         PROC          INITPSW
  C:9A78H         LINE#         22
  C:9A78H         LINE#         23
  C:9A78H         LINE#         24
  C:9A87H         LINE#         25
  C:9A87H         LINE#         26
  C:9A8AH         LINE#         27
  C:9A8AH         LINE#         28
  -------         ENDPROC       INITPSW
  -------         PROC          L?0239
  -------         ENDPROC       L?0239
  -------         PROC          _WRITEPSWBYIDX
  D:0006H         SYMBOL        idx
  D:0001H         SYMBOL        pItem
  -------         DO            
  D:0006H         SYMBOL        addr
  -------         ENDDO         
  C:939EH         LINE#         30
  C:939EH         LINE#         31
  C:939EH         LINE#         32
  C:939EH         LINE#         33
  C:93A8H         LINE#         34
BL51 BANKED LINKER/LOCATER V6.22.2.0                                                  01/18/2022  14:53:23  PAGE 89


  -------         ENDPROC       _WRITEPSWBYIDX
  -------         PROC          _READPSWBYIDX
  D:0006H         SYMBOL        idx
  D:0001H         SYMBOL        pItem
  -------         DO            
  D:0006H         SYMBOL        addr
  -------         ENDDO         
  C:97BBH         LINE#         37
  C:97BBH         LINE#         38
  C:97BBH         LINE#         39
  C:97BBH         LINE#         40
  C:97C5H         LINE#         41
  -------         ENDPROC       _READPSWBYIDX
  -------         PROC          _GETPSWBYROOM
  D:0006H         SYMBOL        room
  X:1398H         SYMBOL        pItem
  -------         DO            
  X:139BH         SYMBOL        idx
  -------         ENDDO         
  C:8C33H         LINE#         44
  C:8C3EH         LINE#         45
  C:8C3EH         LINE#         46
  C:8C44H         LINE#         47
  C:8C51H         LINE#         48
  C:8C58H         LINE#         49
  C:8C58H         LINE#         50
  C:8C6EH         LINE#         51
  C:8C77H         LINE#         52
  C:8C77H         LINE#         53
  C:8C7BH         LINE#         54
  -------         ENDPROC       _GETPSWBYROOM
  -------         PROC          _CHECKPSW
  X:107EH         SYMBOL        psw
  -------         DO            
  X:1080H         SYMBOL        i
  X:1082H         SYMBOL        pItem
  -------         ENDDO         
  C:8467H         LINE#         56
  C:846FH         LINE#         57
  C:846FH         LINE#         58
  C:8474H         LINE#         60
  C:8485H         LINE#         61
  C:848FH         LINE#         62
  C:848FH         LINE#         63
  C:8491H         LINE#         64
  C:8491H         LINE#         65
  C:84AEH         LINE#         66
  C:84AEH         LINE#         67
  C:84B7H         LINE#         68
  C:84CBH         LINE#         69
  C:84CBH         LINE#         70
  C:84CDH         LINE#         71
  C:84CDH         LINE#         72
  C:84DDH         LINE#         73
  C:84DEH         LINE#         74
  -------         ENDPROC       _CHECKPSW
  -------         PROC          _ADDPSWITEM
BL51 BANKED LINKER/LOCATER V6.22.2.0                                                  01/18/2022  14:53:23  PAGE 90


  X:1084H         SYMBOL        pItem
  -------         DO            
  X:1087H         SYMBOL        idx
  -------         ENDDO         
  C:836FH         LINE#         76
  C:837AH         LINE#         77
  C:837AH         LINE#         78
  C:8380H         LINE#         79
  C:8393H         LINE#         81
  C:839AH         LINE#         82
  C:839AH         LINE#         83
  C:83A3H         LINE#         84
  C:83AEH         LINE#         85
  C:83B7H         LINE#         86
  C:83B7H         LINE#         87
  C:83C7H         LINE#         88
  C:83C7H         LINE#         90
  C:83CAH         LINE#         91
  C:83D8H         LINE#         92
  C:83DBH         LINE#         93
  C:83EAH         LINE#         94
  C:83EAH         LINE#         96
  C:83EEH         LINE#         97
  -------         ENDPROC       _ADDPSWITEM
  -------         PROC          _DELPSWBYIDX
  X:1082H         SYMBOL        idx
  -------         DO            
  X:1084H         SYMBOL        tmpItem
  -------         ENDDO         
  C:8721H         LINE#         99
  C:8729H         LINE#         100
  C:8729H         LINE#         102
  C:8737H         LINE#         103
  C:8737H         LINE#         104
  C:874BH         LINE#         105
  C:874BH         LINE#         106
  C:8759H         LINE#         107
  C:875CH         LINE#         108
  C:875CH         LINE#         110
  C:875CH         LINE#         111
  C:876AH         LINE#         112
  C:876DH         LINE#         113
  C:877EH         LINE#         114
  C:878FH         LINE#         115
  C:878FH         LINE#         116
  C:878FH         LINE#         117
  -------         ENDPROC       _DELPSWBYIDX
  -------         PROC          _DELPSWBYROOM
  X:1080H         SYMBOL        room
  -------         DO            
  D:0006H         SYMBOL        idx
  -------         ENDDO         
  C:9479H         LINE#         119
  C:9481H         LINE#         120
  C:9481H         LINE#         121
  C:9483H         LINE#         122
  C:948BH         LINE#         123
BL51 BANKED LINKER/LOCATER V6.22.2.0                                                  01/18/2022  14:53:23  PAGE 91


  C:948BH         LINE#         124
  C:948EH         LINE#         125
  C:949BH         LINE#         126
  C:949DH         LINE#         127
  -------         ENDPROC       _DELPSWBYROOM
  C:38A7H         SYMBOL        L?0238
  -------         PROC          L?0237
  -------         ENDPROC       L?0237
  C:38A7H         SYMBOL        L?0238
  -------         PROC          _SHOWPSW
  X:1084H         SYMBOL        pItem
  B:0020H.0       SYMBOL        edit
  -------         DO            
  X:1087H         SYMBOL        Disbuf
  X:10A7H         SYMBOL        i
  X:10A8H         SYMBOL        tmp
  -------         ENDDO         
  C:38AFH         LINE#         133
  C:38BAH         LINE#         134
  C:38BAH         LINE#         137
  C:38BDH         LINE#         138
  C:38C5H         LINE#         139
  C:38C5H         LINE#         140
  C:38D0H         LINE#         141
  C:38D3H         LINE#         142
  C:38DEH         LINE#         144
  C:38DEH         LINE#         145
  C:38FFH         LINE#         146
  C:38FFH         LINE#         149
  C:3902H         LINE#         150
  C:3931H         LINE#         151
  C:3957H         LINE#         152
  C:3959H         LINE#         154
  C:3959H         LINE#         155
  C:395CH         LINE#         157
  C:395CH         LINE#         159
  C:3962H         LINE#         160
  C:3962H         LINE#         163
  C:3975H         LINE#         167
  C:3975H         LINE#         168
  C:3975H         LINE#         169
  C:397BH         LINE#         170
  C:397BH         LINE#         171
  C:399AH         LINE#         172
  C:399AH         LINE#         175
  C:39BCH         LINE#         176
  C:39D0H         LINE#         177
  C:39EEH         LINE#         178
  C:39EEH         LINE#         179
  C:3A08H         LINE#         180
  C:3A25H         LINE#         181
  C:3A2DH         LINE#         182
  C:3A46H         LINE#         183
  C:3A52H         LINE#         184
  C:3A67H         LINE#         185
  C:3A67H         LINE#         188
  C:3A67H         LINE#         192
BL51 BANKED LINKER/LOCATER V6.22.2.0                                                  01/18/2022  14:53:23  PAGE 92


  C:3A67H         LINE#         193
  C:3A69H         LINE#         195
  C:3A69H         LINE#         196
  C:3A76H         LINE#         197
  C:3A8BH         LINE#         198
  C:3A8BH         LINE#         201
  C:3A9EH         LINE#         205
  C:3A9EH         LINE#         206
  C:3A9EH         LINE#         207
  C:3AA9H         LINE#         208
  C:3AA9H         LINE#         209
  C:3AC8H         LINE#         210
  C:3AC8H         LINE#         213
  C:3AEAH         LINE#         214
  C:3AFEH         LINE#         215
  C:3B1CH         LINE#         216
  C:3B1CH         LINE#         217
  C:3B36H         LINE#         218
  C:3B53H         LINE#         219
  C:3B5BH         LINE#         220
  C:3B74H         LINE#         221
  C:3B80H         LINE#         222
  C:3B95H         LINE#         223
  C:3B95H         LINE#         226
  C:3B95H         LINE#         230
  C:3B95H         LINE#         231
  C:3B97H         LINE#         233
  C:3B97H         LINE#         234
  C:3BA4H         LINE#         235
  C:3BB9H         LINE#         236
  C:3BB9H         LINE#         239
  C:3BCCH         LINE#         243
  C:3BCCH         LINE#         244
  C:3BCCH         LINE#         245
  C:3BCCH         LINE#         246
  C:3BCCH         LINE#         247
  -------         ENDPROC       _SHOWPSW
  -------         PROC          EDITPSWCON
  C:949EH         LINE#         249
  C:949EH         LINE#         250
  C:949EH         LINE#         251
  C:94ABH         LINE#         252
  C:94B0H         LINE#         253
  C:94B2H         LINE#         254
  C:94B8H         LINE#         255
  -------         ENDPROC       EDITPSWCON
  -------         PROC          _PSWEDITKEY
  X:107DH         SYMBOL        key
  -------         DO            
  X:107EH         SYMBOL        tmp
  X:1080H         SYMBOL        tmpItem
  B:0021H.5       SYMBOL        Saved
  -------         ENDDO         
  C:265BH         LINE#         258
  C:2660H         LINE#         259
  C:2660H         LINE#         263
  C:2667H         LINE#         264
BL51 BANKED LINKER/LOCATER V6.22.2.0                                                  01/18/2022  14:53:23  PAGE 93


  C:2667H         LINE#         265
  C:2672H         LINE#         266
  C:2672H         LINE#         267
  C:2675H         LINE#         268
  C:2675H         LINE#         269
  C:2681H         LINE#         270
  C:2686H         LINE#         271
  C:2689H         LINE#         273
  C:2689H         LINE#         274
  C:26D0H         LINE#         277
  C:26D0H         LINE#         278
  C:26DFH         LINE#         279
  C:26F0H         LINE#         280
  C:2701H         LINE#         281
  C:2701H         LINE#         282
  C:2704H         LINE#         283
  C:2706H         LINE#         285
  C:2706H         LINE#         286
  C:2709H         LINE#         287
  C:2709H         LINE#         288
  C:2716H         LINE#         289
  C:2718H         LINE#         290
  C:2722H         LINE#         291
  C:272CH         LINE#         292
  C:272DH         LINE#         294
  C:272DH         LINE#         295
  C:2730H         LINE#         296
  C:2730H         LINE#         298
  C:2730H         LINE#         299
  C:2730H         LINE#         300
  C:2736H         LINE#         301
  C:273BH         LINE#         302
  C:273EH         LINE#         303
  C:274FH         LINE#         304
  C:274FH         LINE#         305
  C:274FH         LINE#         306
  C:2754H         LINE#         307
  C:2761H         LINE#         308
  C:2774H         LINE#         309
  C:2774H         LINE#         310
  C:277AH         LINE#         311
  C:2789H         LINE#         312
  C:278BH         LINE#         313
  C:278BH         LINE#         314
  C:278BH         LINE#         315
  C:278EH         LINE#         316
  C:278EH         LINE#         323
  C:2790H         LINE#         324
  C:2790H         LINE#         325
  C:279AH         LINE#         326
  C:279FH         LINE#         333
  C:27A2H         LINE#         334
  C:27A2H         LINE#         335
  C:27A5H         LINE#         336
  C:27A8H         LINE#         338
  C:27A8H         LINE#         339
  C:27A8H         LINE#         340
BL51 BANKED LINKER/LOCATER V6.22.2.0                                                  01/18/2022  14:53:23  PAGE 94


  C:27B3H         LINE#         341
  C:27B3H         LINE#         342
  C:27CDH         LINE#         343
  C:27CDH         LINE#         344
  C:27CDH         LINE#         345
  C:27DAH         LINE#         346
  C:27DAH         LINE#         347
  C:27DDH         LINE#         348
  C:27F4H         LINE#         349
  C:27F7H         LINE#         351
  C:27F7H         LINE#         352
  C:27FAH         LINE#         354
  C:27FAH         LINE#         355
  C:27FAH         LINE#         356
  C:27FAH         LINE#         357
  C:2807H         LINE#         358
  C:2807H         LINE#         359
  C:280AH         LINE#         360
  C:2824H         LINE#         361
  C:2826H         LINE#         363
  C:2826H         LINE#         364
  C:282CH         LINE#         365
  C:282FH         LINE#         366
  C:283CH         LINE#         367
  C:284FH         LINE#         368
  C:284FH         LINE#         369
  C:2855H         LINE#         370
  C:2864H         LINE#         371
  C:2866H         LINE#         372
  C:2866H         LINE#         373
  C:2866H         LINE#         374
  C:2866H         LINE#         375
  C:2873H         LINE#         376
  C:2873H         LINE#         377
  C:2876H         LINE#         378
  C:2893H         LINE#         379
  C:2896H         LINE#         381
  C:2896H         LINE#         382
  C:289CH         LINE#         383
  C:289FH         LINE#         384
  C:28AEH         LINE#         385
  C:28BEH         LINE#         386
  C:28BEH         LINE#         387
  C:28C4H         LINE#         388
  C:28D3H         LINE#         389
  C:28D5H         LINE#         390
  C:28D5H         LINE#         391
  C:28D5H         LINE#         392
  C:28D5H         LINE#         393
  C:28DAH         LINE#         394
  C:28DCH         LINE#         395
  C:28E9H         LINE#         396
  C:28F9H         LINE#         397
  C:28F9H         LINE#         398
  C:28FFH         LINE#         399
  C:290EH         LINE#         400
  C:2910H         LINE#         401
BL51 BANKED LINKER/LOCATER V6.22.2.0                                                  01/18/2022  14:53:23  PAGE 95


  C:2910H         LINE#         402
  C:2910H         LINE#         403
  C:2910H         LINE#         404
  C:2918H         LINE#         405
  C:2918H         LINE#         406
  C:291BH         LINE#         408
  C:291BH         LINE#         410
  C:2939H         LINE#         411
  C:2939H         LINE#         412
  C:294DH         LINE#         413
  C:294DH         LINE#         414
  C:294DH         LINE#         415
  C:295AH         LINE#         416
  C:295AH         LINE#         417
  C:2971H         LINE#         418
  C:2984H         LINE#         419
  C:298AH         LINE#         420
  C:2999H         LINE#         421
  C:2999H         LINE#         422
  C:299EH         LINE#         423
  C:29A3H         LINE#         424
  C:29A3H         LINE#         425
  C:29A3H         LINE#         426
  C:29B0H         LINE#         427
  C:29B0H         LINE#         428
  C:29B0H         LINE#         429
  C:29B0H         LINE#         430
  C:29B3H         LINE#         431
  C:29B3H         LINE#         432
  C:29C0H         LINE#         433
  C:29C0H         LINE#         434
  C:29DDH         LINE#         435
  C:2A06H         LINE#         436
  C:2A0CH         LINE#         437
  C:2A0CH         LINE#         438
  C:2A25H         LINE#         439
  C:2A25H         LINE#         440
  C:2A25H         LINE#         441
  C:2A25H         LINE#         442
  C:2A27H         LINE#         443
  C:2A27H         LINE#         444
  C:2A34H         LINE#         445
  C:2A34H         LINE#         446
  C:2A51H         LINE#         447
  C:2A7AH         LINE#         448
  C:2A80H         LINE#         449
  C:2A80H         LINE#         450
  C:2A99H         LINE#         451
  C:2A99H         LINE#         452
  C:2A9DH         LINE#         453
  C:2A9DH         LINE#         454
  C:2A9DH         LINE#         455
  C:2A9DH         LINE#         456
  C:2A9DH         LINE#         457
  C:2AA0H         LINE#         458
  -------         ENDPROC       _PSWEDITKEY
  -------         PROC          DELETEPSWCON
BL51 BANKED LINKER/LOCATER V6.22.2.0                                                  01/18/2022  14:53:23  PAGE 96


  C:94C3H         LINE#         460
  C:94C3H         LINE#         461
  C:94C3H         LINE#         462
  C:94D0H         LINE#         463
  C:94D5H         LINE#         464
  C:94D7H         LINE#         465
  C:94DDH         LINE#         466
  -------         ENDPROC       DELETEPSWCON
  -------         PROC          _PSWDELETEKEY
  X:107DH         SYMBOL        key
  -------         DO            
  X:107EH         SYMBOL        tmp
  B:0021H.6       SYMBOL        Saved
  -------         ENDDO         
  C:590DH         LINE#         469
  C:5912H         LINE#         470
  C:5912H         LINE#         473
  C:5919H         LINE#         474
  C:5919H         LINE#         475
  C:5921H         LINE#         476
  C:5921H         LINE#         477
  C:5924H         LINE#         478
  C:5924H         LINE#         479
  C:5930H         LINE#         480
  C:5935H         LINE#         481
  C:5937H         LINE#         483
  C:5937H         LINE#         484
  C:594AH         LINE#         485
  C:594AH         LINE#         486
  C:594DH         LINE#         487
  C:595AH         LINE#         488
  C:595CH         LINE#         489
  C:595FH         LINE#         490
  C:595FH         LINE#         492
  C:595FH         LINE#         493
  C:595FH         LINE#         494
  C:5965H         LINE#         495
  C:596AH         LINE#         496
  C:596DH         LINE#         497
  C:5977H         LINE#         498
  C:5977H         LINE#         499
  C:5977H         LINE#         500
  C:597CH         LINE#         501
  C:5989H         LINE#         502
  C:599CH         LINE#         503
  C:599CH         LINE#         504
  C:59A2H         LINE#         505
  C:59B1H         LINE#         506
  C:59B3H         LINE#         507
  C:59B3H         LINE#         508
  C:59B3H         LINE#         509
  C:59B6H         LINE#         510
  C:59B9H         LINE#         512
  C:59B9H         LINE#         513
  C:59B9H         LINE#         514
  C:59C1H         LINE#         515
  C:59C1H         LINE#         516
BL51 BANKED LINKER/LOCATER V6.22.2.0                                                  01/18/2022  14:53:23  PAGE 97


  C:59CBH         LINE#         517
  C:59CBH         LINE#         518
  C:59CBH         LINE#         519
  C:59D8H         LINE#         520
  C:59D8H         LINE#         521
  C:59DBH         LINE#         522
  C:59F2H         LINE#         523
  C:59F4H         LINE#         528
  C:59F4H         LINE#         529
  C:59F4H         LINE#         530
  C:59F4H         LINE#         531
  C:59F9H         LINE#         532
  C:59FBH         LINE#         533
  C:5A08H         LINE#         534
  C:5A18H         LINE#         535
  C:5A18H         LINE#         536
  C:5A1EH         LINE#         537
  C:5A2DH         LINE#         538
  C:5A2FH         LINE#         539
  C:5A2FH         LINE#         540
  C:5A2FH         LINE#         541
  C:5A2FH         LINE#         542
  C:5A37H         LINE#         543
  C:5A37H         LINE#         544
  C:5A3AH         LINE#         546
  C:5A3AH         LINE#         548
  C:5A52H         LINE#         549
  C:5A52H         LINE#         550
  C:5A58H         LINE#         551
  C:5A58H         LINE#         552
  C:5A58H         LINE#         553
  C:5A65H         LINE#         554
  C:5A65H         LINE#         555
  C:5A7CH         LINE#         556
  C:5A8FH         LINE#         557
  C:5A95H         LINE#         558
  C:5AA4H         LINE#         559
  C:5AA4H         LINE#         560
  C:5AA9H         LINE#         561
  C:5AAEH         LINE#         562
  C:5AAEH         LINE#         563
  C:5AAEH         LINE#         564
  C:5AB8H         LINE#         565
  C:5AB8H         LINE#         566
  C:5ABCH         LINE#         567
  C:5ABCH         LINE#         568
  C:5ABCH         LINE#         569
  C:5ABCH         LINE#         570
  C:5ABCH         LINE#         571
  C:5AC7H         LINE#         572
  -------         ENDPROC       _PSWDELETEKEY
  -------         PROC          DELETEALLPSWCON
  C:99D4H         LINE#         574
  C:99D4H         LINE#         575
  C:99D4H         LINE#         576
  C:99DAH         LINE#         577
  C:99DDH         LINE#         578
BL51 BANKED LINKER/LOCATER V6.22.2.0                                                  01/18/2022  14:53:23  PAGE 98


  -------         ENDPROC       DELETEALLPSWCON
  -------         PROC          _PSWDELALLKEY
  D:0007H         SYMBOL        key
  C:9921H         LINE#         580
  C:9921H         LINE#         581
  C:9921H         LINE#         582
  C:992EH         LINE#         583
  C:992EH         LINE#         584
  C:992EH         LINE#         585
  C:9931H         LINE#         586
  C:9934H         LINE#         587
  C:9934H         LINE#         588
  C:9934H         LINE#         589
  C:9934H         LINE#         590
  C:9937H         LINE#         591
  C:9937H         LINE#         592
  C:9937H         LINE#         593
  -------         ENDPROC       _PSWDELALLKEY
  -------         PROC          PSWSETCON
  -------         DO            
  X:1084H         SYMBOL        Disbuf
  -------         ENDDO         
  C:80CEH         LINE#         595
  C:80CEH         LINE#         596
  C:80CEH         LINE#         599
  C:80D4H         LINE#         601
  C:80D7H         LINE#         602
  C:80E3H         LINE#         603
  C:80F0H         LINE#         604
  C:80FDH         LINE#         605
  C:810AH         LINE#         606
  C:8130H         LINE#         607
  -------         ENDPROC       PSWSETCON
  -------         PROC          _PSWSETKEY
  D:0007H         SYMBOL        key
  C:971CH         LINE#         610
  C:971CH         LINE#         611
  C:971CH         LINE#         612
  C:9730H         LINE#         613
  C:9730H         LINE#         614
  C:9730H         LINE#         615
  C:9733H         LINE#         616
  C:9733H         LINE#         617
  C:9733H         LINE#         618
  C:9736H         LINE#         619
  C:9736H         LINE#         620
  C:9736H         LINE#         621
  C:9739H         LINE#         622
  C:9739H         LINE#         623
  C:9739H         LINE#         624
  C:9739H         LINE#         625
  C:973CH         LINE#         626
  C:973CH         LINE#         627
  C:973CH         LINE#         628
  -------         ENDPROC       _PSWSETKEY
  -------         PROC          INPUTPSWCON
  C:95C3H         LINE#         630
BL51 BANKED LINKER/LOCATER V6.22.2.0                                                  01/18/2022  14:53:23  PAGE 99


  C:95C3H         LINE#         631
  C:95C3H         LINE#         632
  C:95D0H         LINE#         633
  C:95D6H         LINE#         634
  C:95D9H         LINE#         635
  C:95DFH         LINE#         636
  C:95E2H         LINE#         638
  -------         ENDPROC       INPUTPSWCON
  -------         PROC          _PSWINPUTKEY
  X:107DH         SYMBOL        key
  C:66ABH         LINE#         641
  C:66B0H         LINE#         642
  C:66B0H         LINE#         643
  C:66B4H         LINE#         644
  C:66B4H         LINE#         645
  C:66BBH         LINE#         646
  C:66BBH         LINE#         662
  C:66BBH         LINE#         663
  C:66C8H         LINE#         664
  C:66C8H         LINE#         665
  C:66CBH         LINE#         666
  C:66E8H         LINE#         667
  C:66EAH         LINE#         680
  C:66EAH         LINE#         681
  C:66EAH         LINE#         682
  C:66EAH         LINE#         683
  C:66EAH         LINE#         684
  C:66F2H         LINE#         685
  C:66F2H         LINE#         686
  C:66F5H         LINE#         688
  C:66F5H         LINE#         690
  C:6713H         LINE#         691
  C:6713H         LINE#         692
  C:671DH         LINE#         693
  C:671DH         LINE#         706
  C:671DH         LINE#         707
  C:672AH         LINE#         708
  C:672AH         LINE#         709
  C:6747H         LINE#         710
  C:6770H         LINE#         711
  C:6776H         LINE#         712
  C:6776H         LINE#         713
  C:678FH         LINE#         714
  C:678FH         LINE#         715
  C:6793H         LINE#         716
  C:6793H         LINE#         720
  C:679BH         LINE#         721
  C:679BH         LINE#         723
  C:679BH         LINE#         725
  C:67AAH         LINE#         726
  C:67AAH         LINE#         727
  C:67B6H         LINE#         728
  C:67BFH         LINE#         729
  C:67C9H         LINE#         730
  C:67D0H         LINE#         731
  C:67D4H         LINE#         732
  C:67DAH         LINE#         734
BL51 BANKED LINKER/LOCATER V6.22.2.0                                                  01/18/2022  14:53:23  PAGE 100


  C:67DAH         LINE#         736
  C:67DAH         LINE#         737
  C:67E4H         LINE#         738
  C:67E9H         LINE#         739
  C:67EEH         LINE#         740
  C:67F1H         LINE#         741
  C:67F6H         LINE#         742
  C:67FFH         LINE#         743
  C:67FFH         LINE#         744
  C:6800H         LINE#         755
  C:6800H         LINE#         756
  C:6800H         LINE#         757
  C:6800H         LINE#         758
  C:6800H         LINE#         759
  C:6803H         LINE#         760
  -------         ENDPROC       _PSWINPUTKEY
  -------         PROC          EDITSYSPSWCON
  C:94E8H         LINE#         763
  C:94E8H         LINE#         764
  C:94E8H         LINE#         765
  C:94F5H         LINE#         766
  C:94FAH         LINE#         767
  C:94FCH         LINE#         768
  C:9502H         LINE#         769
  -------         ENDPROC       EDITSYSPSWCON
  -------         PROC          SAVESYSPSW
  C:97D8H         LINE#         771
  C:97D8H         LINE#         772
  C:97D8H         LINE#         773
  -------         ENDPROC       SAVESYSPSW
  -------         PROC          _SYSPSWEDITKEY
  X:107DH         SYMBOL        key
  -------         DO            
  D:0006H         SYMBOL        tmp
  B:0021H.7       SYMBOL        Saved
  -------         ENDDO         
  C:3EEFH         LINE#         776
  C:3EF4H         LINE#         777
  C:3EF4H         LINE#         780
  C:3EFBH         LINE#         781
  C:3EFBH         LINE#         782
  C:3F06H         LINE#         783
  C:3F06H         LINE#         784
  C:3F09H         LINE#         785
  C:3F09H         LINE#         786
  C:3F15H         LINE#         787
  C:3F1AH         LINE#         788
  C:3F1DH         LINE#         790
  C:3F1DH         LINE#         791
  C:3F53H         LINE#         793
  C:3F53H         LINE#         794
  C:3F67H         LINE#         795
  C:3F6AH         LINE#         796
  C:3F6DH         LINE#         797
  C:3F7AH         LINE#         798
  C:3F7CH         LINE#         799
  C:3F86H         LINE#         800
BL51 BANKED LINKER/LOCATER V6.22.2.0                                                  01/18/2022  14:53:23  PAGE 101


  C:3F90H         LINE#         801
  C:3F91H         LINE#         803
  C:3F91H         LINE#         804
  C:3F9BH         LINE#         805
  C:3FA5H         LINE#         806
  C:3FA8H         LINE#         807
  C:3FA8H         LINE#         809
  C:3FA8H         LINE#         810
  C:3FA8H         LINE#         811
  C:3FB9H         LINE#         812
  C:3FB9H         LINE#         814
  C:3FB9H         LINE#         815
  C:3FBFH         LINE#         816
  C:3FC8H         LINE#         817
  C:3FCBH         LINE#         818
  C:3FD9H         LINE#         819
  C:3FD9H         LINE#         820
  C:3FD9H         LINE#         821
  C:3FDCH         LINE#         822
  C:3FDCH         LINE#         823
  C:3FDEH         LINE#         824
  C:3FDEH         LINE#         825
  C:3FE8H         LINE#         826
  C:3FEDH         LINE#         827
  C:3FF0H         LINE#         828
  C:3FF0H         LINE#         829
  C:3FF3H         LINE#         830
  C:3FF6H         LINE#         832
  C:3FF6H         LINE#         833
  C:3FF6H         LINE#         834
  C:4001H         LINE#         835
  C:4001H         LINE#         836
  C:4015H         LINE#         837
  C:4015H         LINE#         838
  C:4015H         LINE#         839
  C:4022H         LINE#         840
  C:4022H         LINE#         841
  C:4025H         LINE#         842
  C:403FH         LINE#         843
  C:4041H         LINE#         845
  C:4041H         LINE#         846
  C:4043H         LINE#         848
  C:4043H         LINE#         849
  C:4043H         LINE#         850
  C:4043H         LINE#         851
  C:4050H         LINE#         852
  C:4050H         LINE#         853
  C:4053H         LINE#         854
  C:4070H         LINE#         855
  C:4072H         LINE#         857
  C:4072H         LINE#         858
  C:4078H         LINE#         859
  C:407BH         LINE#         860
  C:4085H         LINE#         861
  C:408EH         LINE#         862
  C:408EH         LINE#         863
  C:4094H         LINE#         864
BL51 BANKED LINKER/LOCATER V6.22.2.0                                                  01/18/2022  14:53:23  PAGE 102


  C:409BH         LINE#         865
  C:409DH         LINE#         866
  C:409DH         LINE#         867
  C:409DH         LINE#         868
  C:409DH         LINE#         869
  C:40A2H         LINE#         870
  C:40A4H         LINE#         871
  C:40A6H         LINE#         872
  C:40A6H         LINE#         873
  C:40A6H         LINE#         874
  C:40AEH         LINE#         875
  C:40AEH         LINE#         876
  C:40B1H         LINE#         878
  C:40B1H         LINE#         880
  C:40CFH         LINE#         881
  C:40CFH         LINE#         882
  C:40DCH         LINE#         883
  C:40DCH         LINE#         884
  C:40DCH         LINE#         885
  C:40E9H         LINE#         886
  C:40E9H         LINE#         887
  C:4106H         LINE#         888
  C:412FH         LINE#         889
  C:4135H         LINE#         890
  C:4135H         LINE#         891
  C:414EH         LINE#         892
  C:414EH         LINE#         893
  C:414EH         LINE#         894
  C:414EH         LINE#         895
  C:4150H         LINE#         896
  C:4150H         LINE#         897
  C:415DH         LINE#         898
  C:415DH         LINE#         899
  C:417AH         LINE#         900
  C:41A3H         LINE#         901
  C:41A9H         LINE#         902
  C:41A9H         LINE#         903
  C:41C2H         LINE#         904
  C:41C2H         LINE#         905
  C:41C6H         LINE#         906
  C:41C6H         LINE#         907
  C:41C6H         LINE#         908
  C:41C6H         LINE#         909
  C:41C6H         LINE#         910
  C:41C9H         LINE#         911
  -------         ENDPROC       _SYSPSWEDITKEY
  -------         ENDMOD        UNLOCKPASSWORD

  -------         MODULE        SYSSTRING
  C:0000H         SYMBOL        _ICE_DUMMY_
  C:22A4H         PUBLIC        StrTabErr
  C:233EH         PUBLIC        StrTabListCount
  D:0080H         PUBLIC        P0
  C:2297H         PUBLIC        StrTabSaveOK
  D:0090H         PUBLIC        P1
  D:00A0H         PUBLIC        P2
  C:239DH         PUBLIC        StrTabDelAllCard
BL51 BANKED LINKER/LOCATER V6.22.2.0                                                  01/18/2022  14:53:23  PAGE 103


  D:00B0H         PUBLIC        P3
  D:00C0H         PUBLIC        P4
  D:00C8H         PUBLIC        P5
  C:22C8H         PUBLIC        StrTabDelOK
  C:226FH         PUBLIC        StrTabNum
  D:00E8H         PUBLIC        P6
  D:00F8H         PUBLIC        P7
  C:9AD1H         PUBLIC        ShowConfirmSave
  C:2249H         PUBLIC        StrTabDelAllName
  C:25D0H         PUBLIC        StrTabMain1
  C:25E6H         PUBLIC        StrTabMain2
  C:9AE1H         PUBLIC        ShowConfirmDel
  D:00A8H         PUBLIC        IE
  C:2602H         PUBLIC        StrTabMain3
  C:261BH         PUBLIC        StrTabMain4
  C:24B3H         PUBLIC        StrTabOn
  C:9890H         PUBLIC        ShowUnlock
  C:9B01H         PUBLIC        ShowDeleteOK
  D:00B8H         PUBLIC        IP
  C:262FH         PUBLIC        StrTabRoomErr
  C:246EH         PUBLIC        StrTabCamrea
  C:2508H         PUBLIC        StrTabSimCardBusy
  C:249FH         PUBLIC        StrTabUnlockKey2
  D:00D8H         PUBLIC        CCON
  C:24C5H         PUBLIC        StrTabGsmErr
  C:9B31H         PUBLIC        ShowReset
  C:7A75H         PUBLIC        _ShowMain
  C:24F3H         PUBLIC        StrTabNotSimCard
  C:21EBH         PUBLIC        FhChar
  C:235FH         PUBLIC        StrTabCardSet1
  C:2375H         PUBLIC        StrTabCardSet2
  C:255AH         PUBLIC        StrTabGsmCsqGood
  C:238DH         PUBLIC        StrTabCardSet3
  D:0098H         PUBLIC        SCON
  D:0088H         PUBLIC        TCON
  C:2211H         PUBLIC        StrTabNameSet1
  C:222AH         PUBLIC        StrTabNameSet2
  C:2238H         PUBLIC        StrTabNameSet3
  C:2540H         PUBLIC        StrTabGsmCsqMed
  X:1365H         PUBLIC        DisBuf
  C:232AH         PUBLIC        StrTabPsw1
  D:00F0H         PUBLIC        B
  C:22D4H         PUBLIC        StrTabDelAllPsw
  C:2336H         PUBLIC        StrTabPsw2
  C:21F6H         PUBLIC        StrTabSysSet
  C:23DDH         PUBLIC        StrTabUnlock
  C:8D4BH         PUBLIC        ShowTalkTime
  D:00E0H         PUBLIC        ACC
  C:9A15H         PUBLIC        ShowCardErr
  C:256EH         PUBLIC        StrTabMainA1
  C:9AF1H         PUBLIC        ShowErr
  C:2587H         PUBLIC        StrTabMainA2
  C:259FH         PUBLIC        StrTabMainA3
  C:9A00H         PUBLIC        ShowSaveOK
  C:23B8H         PUBLIC        StrTabCard
  C:25BAH         PUBLIC        StrTabMainA4
  C:2518H         PUBLIC        StrTabGsmCsqErr
BL51 BANKED LINKER/LOCATER V6.22.2.0                                                  01/18/2022  14:53:23  PAGE 104


  C:234BH         PUBLIC        StrTabSysPsw
  C:2408H         PUBLIC        StrTabCall
  C:247AH         PUBLIC        StrTabRelay
  C:2276H         PUBLIC        StrTabName
  C:2651H         PUBLIC        StrTabReset
  C:252AH         PUBLIC        StrTabGsmCsqLow
  C:2647H         PUBLIC        StrTabTalk
  C:2440H         PUBLIC        StrTabCallTime
  C:22B2H         PUBLIC        StrTabDel
  C:23F2H         PUBLIC        StrTabTalkValum
  C:2453H         PUBLIC        StrTabTone
  C:9B21H         PUBLIC        ShowRoomErr
  C:248BH         PUBLIC        StrTabUnlockKey
  C:22EFH         PUBLIC        StrTabPswSet1
  C:24BCH         PUBLIC        StrTabOff
  C:2306H         PUBLIC        StrTabPswSet2
  C:231AH         PUBLIC        StrTabPswSet3
  C:2264H         PUBLIC        StrTabRoom
  C:24E3H         PUBLIC        StrTabSimCardReady
  C:2414H         PUBLIC        StrTabTalkTime
  C:220CH         PUBLIC        StrTabSysSet1
  C:7BAFH         PUBLIC        ShowGsmCsq
  C:2281H         PUBLIC        StrTabMakeSure
  C:9B11H         PUBLIC        ShowGsmErr
  C:2427H         PUBLIC        StrTabRingTime
  C:227CH         PUBLIC        StrTabTel
  D:00D0H         PUBLIC        PSW
  C:23C4H         PUBLIC        StrTabCardErr
  -------         PROC          SHOWCONFIRMSAVE
  C:9AD1H         LINE#         166
  C:9AD1H         LINE#         167
  C:9AD1H         LINE#         168
  C:9AD4H         LINE#         169
  -------         ENDPROC       SHOWCONFIRMSAVE
  -------         PROC          SHOWCONFIRMDEL
  C:9AE1H         LINE#         171
  C:9AE1H         LINE#         172
  C:9AE1H         LINE#         173
  C:9AE4H         LINE#         174
  -------         ENDPROC       SHOWCONFIRMDEL
  -------         PROC          SHOWSAVEOK
  C:9A00H         LINE#         176
  C:9A00H         LINE#         177
  C:9A00H         LINE#         178
  C:9A03H         LINE#         179
  C:9A10H         LINE#         180
  -------         ENDPROC       SHOWSAVEOK
  -------         PROC          SHOWERR
  C:9AF1H         LINE#         182
  C:9AF1H         LINE#         183
  C:9AF1H         LINE#         184
  C:9AF4H         LINE#         185
  -------         ENDPROC       SHOWERR
  -------         PROC          SHOWDELETEOK
  C:9B01H         LINE#         187
  C:9B01H         LINE#         188
  C:9B01H         LINE#         189
BL51 BANKED LINKER/LOCATER V6.22.2.0                                                  01/18/2022  14:53:23  PAGE 105


  C:9B04H         LINE#         190
  -------         ENDPROC       SHOWDELETEOK
  -------         PROC          SHOWCARDERR
  C:9A15H         LINE#         193
  C:9A15H         LINE#         194
  C:9A15H         LINE#         195
  C:9A18H         LINE#         196
  C:9A25H         LINE#         197
  -------         ENDPROC       SHOWCARDERR
  -------         PROC          SHOWUNLOCK
  B:0020H.1       SYMBOL        Sound
  C:9890H         LINE#         199
  C:9890H         LINE#         200
  C:9890H         LINE#         201
  C:9893H         LINE#         202
  C:98A0H         LINE#         203
  C:98A3H         LINE#         204
  C:98A3H         LINE#         205
  C:98A8H         LINE#         206
  C:98A8H         LINE#         207
  -------         ENDPROC       SHOWUNLOCK
  -------         PROC          SHOWGSMERR
  C:9B11H         LINE#         209
  C:9B11H         LINE#         210
  C:9B11H         LINE#         211
  C:9B14H         LINE#         212
  -------         ENDPROC       SHOWGSMERR
  -------         PROC          SHOWROOMERR
  C:9B21H         LINE#         215
  C:9B21H         LINE#         216
  C:9B21H         LINE#         217
  C:9B24H         LINE#         218
  -------         ENDPROC       SHOWROOMERR
  -------         PROC          SHOWGSMCSQ
  C:7BAFH         LINE#         221
  C:7BAFH         LINE#         222
  C:7BAFH         LINE#         223
  C:7BBAH         LINE#         224
  C:7BBAH         LINE#         226
  C:7BBAH         LINE#         227
  C:7BC6H         LINE#         228
  C:7BCEH         LINE#         229
  C:7BCEH         LINE#         230
  C:7BD6H         LINE#         232
  C:7BD6H         LINE#         233
  C:7BDEH         LINE#         234
  C:7BDEH         LINE#         235
  C:7BE6H         LINE#         237
  C:7BE6H         LINE#         238
  C:7BEEH         LINE#         239
  C:7BEEH         LINE#         240
  C:7BF6H         LINE#         242
  C:7BF6H         LINE#         243
  C:7C08H         LINE#         244
  C:7C08H         LINE#         245
  C:7C11H         LINE#         249
  C:7C11H         LINE#         252
BL51 BANKED LINKER/LOCATER V6.22.2.0                                                  01/18/2022  14:53:23  PAGE 106


  C:7C1EH         LINE#         253
  C:7C1EH         LINE#         254
  C:7C25H         LINE#         255
  C:7C27H         LINE#         256
  C:7C36H         LINE#         257
  C:7C36H         LINE#         258
  C:7C3AH         LINE#         259
  C:7C3CH         LINE#         261
  C:7C3CH         LINE#         262
  C:7C47H         LINE#         263
  C:7C47H         LINE#         275
  -------         ENDPROC       SHOWGSMCSQ
  -------         PROC          _SHOWMAIN
  X:1088H         SYMBOL        first
  C:7A75H         LINE#         277
  C:7A7AH         LINE#         278
  C:7A7AH         LINE#         280
  C:7A83H         LINE#         281
  C:7A83H         LINE#         283
  C:7A83H         LINE#         291
  C:7A86H         LINE#         292
  C:7A8EH         LINE#         293
  C:7A8EH         LINE#         294
  C:7A97H         LINE#         295
  C:7AA4H         LINE#         296
  C:7AB1H         LINE#         297
  C:7ABAH         LINE#         298
  C:7AC7H         LINE#         299
  C:7AD0H         LINE#         300
  C:7AD0H         LINE#         302
  C:7AD0H         LINE#         304
  C:7ADAH         LINE#         305
  C:7AE2H         LINE#         306
  C:7AEBH         LINE#         308
  C:7AF8H         LINE#         309
  C:7B01H         LINE#         311
  C:7B0EH         LINE#         316
  C:7B11H         LINE#         317
  C:7B11H         LINE#         342
  -------         ENDPROC       _SHOWMAIN
  -------         PROC          SHOWTALKTIME
  C:8D4BH         LINE#         344
  C:8D4BH         LINE#         345
  C:8D4BH         LINE#         346
  C:8D4EH         LINE#         348
  C:8D5BH         LINE#         349
  C:8D81H         LINE#         350
  -------         ENDPROC       SHOWTALKTIME
  -------         PROC          SHOWRESET
  C:9B31H         LINE#         356
  C:9B31H         LINE#         357
  C:9B31H         LINE#         358
  C:9B34H         LINE#         359
  -------         ENDPROC       SHOWRESET
  -------         ENDMOD        SYSSTRING

  -------         MODULE        CARD
BL51 BANKED LINKER/LOCATER V6.22.2.0                                                  01/18/2022  14:53:23  PAGE 107


  C:0000H         SYMBOL        _ICE_DUMMY_
  C:5581H         PUBLIC        _CardDeleteKey
  D:0080H         PUBLIC        P0
  D:0090H         PUBLIC        P1
  D:00A0H         PUBLIC        P2
  D:00B0H         PUBLIC        P3
  D:00C0H         PUBLIC        P4
  D:00C8H         PUBLIC        P5
  D:00E8H         PUBLIC        P6
  D:00F8H         PUBLIC        P7
  D:00A8H         PUBLIC        IE
  C:99EAH         PUBLIC        DeleteAllCardCon
  C:9A8BH         PUBLIC        InitCard
  X:1390H         PUBLIC        CardEditItem
  C:744AH         PUBLIC        _AddCardItem
  D:00B8H         PUBLIC        IP
  X:1396H         SYMBOL        CardEditMidx
  C:9651H         PUBLIC        SaveCardCount
  C:46BEH         PUBLIC        _ShowCard
  D:00D8H         PUBLIC        CCON
  C:9532H         PUBLIC        EditCardCon
  X:1397H         SYMBOL        CardEditIdx
  C:574AH         PUBLIC        _CardEditKey
  D:0098H         PUBLIC        SCON
  D:0088H         PUBLIC        TCON
  C:8E49H         PUBLIC        _CardEditCardIn
  D:00F0H         PUBLIC        B
  D:00E0H         PUBLIC        ACC
  C:9341H         PUBLIC        _DelCardByCard
  C:8159H         PUBLIC        CardSetCon
  C:973DH         PUBLIC        _CardSetKey
  C:9938H         PUBLIC        _CardDelAllKey
  C:7889H         PUBLIC        _CheckCard
  C:90FAH         PUBLIC        _ReadCardByIdx
  C:9B59H         PUBLIC        ClearCard
  C:90C9H         PUBLIC        _WriteCardByIdx
  C:950DH         PUBLIC        _DelCardByRoom
  C:8FFFH         PUBLIC        DeleteCardCon
  C:8790H         PUBLIC        _DelCardByIdx
  D:00D0H         PUBLIC        PSW
  -------         PROC          SAVECARDCOUNT
  C:9651H         LINE#         11
  C:9651H         LINE#         12
  C:9651H         LINE#         13
  -------         ENDPROC       SAVECARDCOUNT
  -------         PROC          CLEARCARD
  C:9B59H         LINE#         16
  C:9B59H         LINE#         17
  C:9B59H         LINE#         18
  C:9B60H         LINE#         19
  -------         ENDPROC       CLEARCARD
  -------         PROC          INITCARD
  C:9A8BH         LINE#         22
  C:9A8BH         LINE#         23
  C:9A8BH         LINE#         24
  C:9A9AH         LINE#         25
  C:9A9AH         LINE#         26
BL51 BANKED LINKER/LOCATER V6.22.2.0                                                  01/18/2022  14:53:23  PAGE 108


  C:9A9DH         LINE#         27
  C:9A9DH         LINE#         28
  -------         ENDPROC       INITCARD
  -------         PROC          _WRITECARDBYIDX
  D:0006H         SYMBOL        idx
  X:108BH         SYMBOL        pItem
  -------         DO            
  D:0006H         SYMBOL        addr
  -------         ENDDO         
  C:90C9H         LINE#         30
  C:90D4H         LINE#         31
  C:90D4H         LINE#         32
  C:90D4H         LINE#         33
  C:90DBH         LINE#         34
  -------         ENDPROC       _WRITECARDBYIDX
  -------         PROC          _READCARDBYIDX
  D:0006H         SYMBOL        idx
  X:108EH         SYMBOL        pItem
  -------         DO            
  D:0006H         SYMBOL        addr
  -------         ENDDO         
  C:90FAH         LINE#         37
  C:9105H         LINE#         38
  C:9105H         LINE#         39
  C:9105H         LINE#         40
  C:910CH         LINE#         41
  -------         ENDPROC       _READCARDBYIDX
  -------         PROC          _CHECKCARD
  X:1083H         SYMBOL        card
  -------         DO            
  X:1086H         SYMBOL        tmpItem
  X:108CH         SYMBOL        idx
  D:0007H         SYMBOL        i
  -------         ENDDO         
  C:7889H         LINE#         56
  C:7894H         LINE#         57
  C:7894H         LINE#         59
  C:789BH         LINE#         61
  C:78A5H         LINE#         62
  C:78A5H         LINE#         63
  C:78A8H         LINE#         64
  C:78A8H         LINE#         65
  C:78BEH         LINE#         66
  C:78BEH         LINE#         67
  C:78C7H         LINE#         68
  C:78D3H         LINE#         69
  C:78D3H         LINE#         70
  C:78F5H         LINE#         71
  C:78F5H         LINE#         72
  C:78F5H         LINE#         73
  C:78F5H         LINE#         74
  C:78F8H         LINE#         75
  C:78FDH         LINE#         76
  C:78FDH         LINE#         77
  C:7915H         LINE#         78
  C:791EH         LINE#         79
  C:791EH         LINE#         80
BL51 BANKED LINKER/LOCATER V6.22.2.0                                                  01/18/2022  14:53:23  PAGE 109


  C:792CH         LINE#         81
  C:792FH         LINE#         82
  C:7933H         LINE#         83
  -------         ENDPROC       _CHECKCARD
  -------         PROC          _ADDCARDITEM
  X:1080H         SYMBOL        pItem
  -------         DO            
  X:1083H         SYMBOL        tmpItem
  X:1089H         SYMBOL        idx
  D:0007H         SYMBOL        i
  -------         ENDDO         
  C:744AH         LINE#         85
  C:7455H         LINE#         86
  C:7455H         LINE#         88
  C:745CH         LINE#         90
  C:7472H         LINE#         91
  C:7472H         LINE#         92
  C:747BH         LINE#         94
  C:7497H         LINE#         95
  C:7497H         LINE#         96
  C:74A2H         LINE#         97
  C:74A2H         LINE#         98
  C:74CCH         LINE#         99
  C:74CCH         LINE#         100
  C:74CCH         LINE#         101
  C:74CCH         LINE#         102
  C:74CFH         LINE#         103
  C:74D4H         LINE#         104
  C:74D4H         LINE#         105
  C:74DDH         LINE#         106
  C:74DDH         LINE#         107
  C:74DDH         LINE#         108
  C:74EEH         LINE#         109
  C:74F1H         LINE#         110
  C:7501H         LINE#         111
  C:7501H         LINE#         112
  C:750FH         LINE#         113
  C:751DH         LINE#         114
  C:7520H         LINE#         115
  C:752FH         LINE#         116
  C:752FH         LINE#         117
  C:7533H         LINE#         118
  -------         ENDPROC       _ADDCARDITEM
  -------         PROC          _DELCARDBYIDX
  X:1083H         SYMBOL        idx
  -------         DO            
  X:1085H         SYMBOL        tmpItem
  -------         ENDDO         
  C:8790H         LINE#         120
  C:8798H         LINE#         121
  C:8798H         LINE#         123
  C:87A6H         LINE#         124
  C:87A6H         LINE#         125
  C:87BAH         LINE#         126
  C:87BAH         LINE#         127
  C:87C8H         LINE#         128
  C:87CBH         LINE#         129
BL51 BANKED LINKER/LOCATER V6.22.2.0                                                  01/18/2022  14:53:23  PAGE 110


  C:87CBH         LINE#         131
  C:87CBH         LINE#         132
  C:87D9H         LINE#         133
  C:87DCH         LINE#         134
  C:87EDH         LINE#         135
  C:87FEH         LINE#         136
  C:87FEH         LINE#         137
  C:87FEH         LINE#         138
  -------         ENDPROC       _DELCARDBYIDX
  -------         PROC          _DELCARDBYROOM
  X:1080H         SYMBOL        room
  -------         DO            
  D:0006H         SYMBOL        idx
  -------         ENDDO         
  C:950DH         LINE#         140
  C:9515H         LINE#         141
  C:9515H         LINE#         142
  C:9517H         LINE#         143
  C:951FH         LINE#         144
  C:951FH         LINE#         145
  C:9522H         LINE#         146
  C:952FH         LINE#         147
  C:9531H         LINE#         148
  -------         ENDPROC       _DELCARDBYROOM
  -------         PROC          _DELCARDBYCARD
  X:1080H         SYMBOL        card
  -------         DO            
  D:0006H         SYMBOL        idx
  -------         ENDDO         
  C:9341H         LINE#         150
  C:934CH         LINE#         151
  C:934CH         LINE#         152
  C:934EH         LINE#         153
  C:9356H         LINE#         154
  C:9356H         LINE#         155
  C:9359H         LINE#         156
  C:9367H         LINE#         157
  C:9369H         LINE#         158
  -------         ENDPROC       _DELCARDBYCARD
  -------         PROC          _SHOWCARD
  X:1082H         SYMBOL        pItem
  B:0020H.0       SYMBOL        edit
  -------         DO            
  X:1085H         SYMBOL        num
  X:1089H         SYMBOL        Disbuf
  -------         ENDDO         
  C:46BEH         LINE#         165
  C:46C9H         LINE#         166
  C:46C9H         LINE#         170
  C:46CCH         LINE#         196
  C:46EDH         LINE#         197
  C:46EDH         LINE#         199
  C:46F0H         LINE#         200
  C:471FH         LINE#         201
  C:4745H         LINE#         202
  C:4747H         LINE#         204
  C:4747H         LINE#         206
BL51 BANKED LINKER/LOCATER V6.22.2.0                                                  01/18/2022  14:53:23  PAGE 111


  C:474AH         LINE#         207
  C:474AH         LINE#         209
  C:4750H         LINE#         210
  C:4750H         LINE#         212
  C:4763H         LINE#         216
  C:4763H         LINE#         217
  C:4769H         LINE#         218
  C:4769H         LINE#         220
  C:4776H         LINE#         221
  C:4792H         LINE#         222
  C:4792H         LINE#         227
  C:47AEH         LINE#         228
  C:47C7H         LINE#         229
  C:4806H         LINE#         230
  C:481FH         LINE#         231
  C:485EH         LINE#         232
  C:4877H         LINE#         233
  C:48B6H         LINE#         234
  C:48E6H         LINE#         235
  C:490FH         LINE#         236
  C:490FH         LINE#         238
  C:490FH         LINE#         239
  -------         ENDPROC       _SHOWCARD
  -------         PROC          EDITCARDCON
  C:9532H         LINE#         241
  C:9532H         LINE#         242
  C:9532H         LINE#         243
  C:953FH         LINE#         244
  C:9544H         LINE#         245
  C:9546H         LINE#         246
  C:954CH         LINE#         247
  -------         ENDPROC       EDITCARDCON
  -------         PROC          _CARDEDITKEY
  X:107DH         SYMBOL        key
  -------         DO            
  X:107EH         SYMBOL        tmp
  B:0023H.0       SYMBOL        Saved
  -------         ENDDO         
  C:574AH         LINE#         250
  C:574FH         LINE#         251
  C:574FH         LINE#         254
  C:5756H         LINE#         255
  C:5756H         LINE#         256
  C:575EH         LINE#         257
  C:575EH         LINE#         258
  C:5761H         LINE#         259
  C:5761H         LINE#         260
  C:576DH         LINE#         261
  C:5772H         LINE#         262
  C:5774H         LINE#         264
  C:5774H         LINE#         265
  C:5792H         LINE#         267
  C:5792H         LINE#         268
  C:57A3H         LINE#         269
  C:57A3H         LINE#         270
  C:57A6H         LINE#         271
  C:57A8H         LINE#         273
BL51 BANKED LINKER/LOCATER V6.22.2.0                                                  01/18/2022  14:53:23  PAGE 112


  C:57A8H         LINE#         274
  C:57ABH         LINE#         275
  C:57ABH         LINE#         276
  C:57B8H         LINE#         277
  C:57BAH         LINE#         278
  C:57BBH         LINE#         280
  C:57BBH         LINE#         281
  C:57BEH         LINE#         282
  C:57BEH         LINE#         284
  C:57BEH         LINE#         285
  C:57BEH         LINE#         286
  C:57C4H         LINE#         287
  C:57C9H         LINE#         288
  C:57CCH         LINE#         289
  C:57D6H         LINE#         290
  C:57D6H         LINE#         291
  C:57D6H         LINE#         292
  C:57DBH         LINE#         293
  C:57E8H         LINE#         294
  C:57FBH         LINE#         295
  C:57FBH         LINE#         296
  C:5801H         LINE#         297
  C:5810H         LINE#         298
  C:5812H         LINE#         299
  C:5812H         LINE#         300
  C:5812H         LINE#         305
  C:5815H         LINE#         306
  C:5818H         LINE#         308
  C:5818H         LINE#         309
  C:5818H         LINE#         310
  C:5820H         LINE#         311
  C:5820H         LINE#         312
  C:582AH         LINE#         313
  C:582AH         LINE#         314
  C:582AH         LINE#         315
  C:5837H         LINE#         316
  C:5837H         LINE#         317
  C:583AH         LINE#         318
  C:5851H         LINE#         319
  C:5853H         LINE#         324
  C:5853H         LINE#         325
  C:5853H         LINE#         344
  C:5853H         LINE#         345
  C:5858H         LINE#         346
  C:585AH         LINE#         347
  C:5867H         LINE#         348
  C:5877H         LINE#         349
  C:5877H         LINE#         350
  C:587DH         LINE#         351
  C:588CH         LINE#         352
  C:588EH         LINE#         353
  C:588EH         LINE#         354
  C:588EH         LINE#         355
  C:588EH         LINE#         356
  C:5896H         LINE#         357
  C:5896H         LINE#         358
  C:5899H         LINE#         360
BL51 BANKED LINKER/LOCATER V6.22.2.0                                                  01/18/2022  14:53:23  PAGE 113


  C:5899H         LINE#         362
  C:58B1H         LINE#         363
  C:58B1H         LINE#         364
  C:58B7H         LINE#         365
  C:58B7H         LINE#         366
  C:58B7H         LINE#         367
  C:58C4H         LINE#         368
  C:58C4H         LINE#         369
  C:58DBH         LINE#         370
  C:58EDH         LINE#         371
  C:58F3H         LINE#         372
  C:58FDH         LINE#         373
  C:58FDH         LINE#         374
  C:5901H         LINE#         375
  C:5901H         LINE#         376
  C:5901H         LINE#         377
  C:5901H         LINE#         384
  C:5901H         LINE#         385
  C:5901H         LINE#         386
  C:590CH         LINE#         387
  -------         ENDPROC       _CARDEDITKEY
  -------         PROC          _CARDEDITCARDIN
  X:107FH         SYMBOL        card
  C:8E49H         LINE#         389
  C:8E54H         LINE#         390
  C:8E54H         LINE#         399
  C:8E79H         LINE#         400
  -------         ENDPROC       _CARDEDITCARDIN
  -------         PROC          DELETECARDCON
  C:8FFFH         LINE#         403
  C:8FFFH         LINE#         404
  C:8FFFH         LINE#         405
  C:900CH         LINE#         406
  C:9011H         LINE#         407
  C:9013H         LINE#         408
  C:9019H         LINE#         409
  -------         ENDPROC       DELETECARDCON
  -------         PROC          _CARDDELETEKEY
  X:107DH         SYMBOL        key
  -------         DO            
  X:107EH         SYMBOL        tmp
  B:0023H.1       SYMBOL        Saved
  -------         ENDDO         
  C:5581H         LINE#         412
  C:5586H         LINE#         413
  C:5586H         LINE#         416
  C:558DH         LINE#         417
  C:558DH         LINE#         418
  C:5595H         LINE#         419
  C:5595H         LINE#         420
  C:5598H         LINE#         421
  C:5598H         LINE#         422
  C:55A4H         LINE#         423
  C:55A9H         LINE#         424
  C:55ABH         LINE#         426
  C:55ABH         LINE#         427
  C:55BAH         LINE#         428
BL51 BANKED LINKER/LOCATER V6.22.2.0                                                  01/18/2022  14:53:23  PAGE 114


  C:55BAH         LINE#         429
  C:55C3H         LINE#         430
  C:55C3H         LINE#         431
  C:55C3H         LINE#         432
  C:55C3H         LINE#         433
  C:55C5H         LINE#         434
  C:55D8H         LINE#         435
  C:55D8H         LINE#         436
  C:55DBH         LINE#         437
  C:55E8H         LINE#         438
  C:55EAH         LINE#         439
  C:55EDH         LINE#         440
  C:55EDH         LINE#         442
  C:55EDH         LINE#         443
  C:55EDH         LINE#         444
  C:55F3H         LINE#         445
  C:55F8H         LINE#         446
  C:55FBH         LINE#         447
  C:5605H         LINE#         448
  C:5605H         LINE#         449
  C:5605H         LINE#         450
  C:560AH         LINE#         451
  C:5617H         LINE#         452
  C:562AH         LINE#         453
  C:562AH         LINE#         454
  C:5630H         LINE#         455
  C:563FH         LINE#         456
  C:5641H         LINE#         457
  C:5641H         LINE#         458
  C:5641H         LINE#         459
  C:5644H         LINE#         460
  C:5647H         LINE#         462
  C:5647H         LINE#         463
  C:5647H         LINE#         464
  C:564FH         LINE#         465
  C:564FH         LINE#         466
  C:5659H         LINE#         467
  C:5659H         LINE#         468
  C:5659H         LINE#         469
  C:5666H         LINE#         470
  C:5666H         LINE#         471
  C:5669H         LINE#         472
  C:5680H         LINE#         473
  C:5682H         LINE#         478
  C:5682H         LINE#         479
  C:5682H         LINE#         480
  C:5682H         LINE#         481
  C:5687H         LINE#         482
  C:5689H         LINE#         483
  C:5696H         LINE#         484
  C:56A6H         LINE#         485
  C:56A6H         LINE#         486
  C:56ACH         LINE#         487
  C:56BBH         LINE#         488
  C:56BDH         LINE#         489
  C:56BDH         LINE#         490
  C:56BDH         LINE#         491
BL51 BANKED LINKER/LOCATER V6.22.2.0                                                  01/18/2022  14:53:23  PAGE 115


  C:56BDH         LINE#         492
  C:56C5H         LINE#         493
  C:56C5H         LINE#         494
  C:56C8H         LINE#         496
  C:56C8H         LINE#         498
  C:56E0H         LINE#         499
  C:56E0H         LINE#         500
  C:56E6H         LINE#         501
  C:56E6H         LINE#         502
  C:56E6H         LINE#         503
  C:56F3H         LINE#         504
  C:56F3H         LINE#         505
  C:570AH         LINE#         506
  C:571CH         LINE#         507
  C:5722H         LINE#         508
  C:5722H         LINE#         509
  C:572CH         LINE#         510
  C:572CH         LINE#         511
  C:5730H         LINE#         512
  C:5730H         LINE#         513
  C:5730H         LINE#         514
  C:5730H         LINE#         515
  C:5730H         LINE#         516
  C:5749H         LINE#         517
  -------         ENDPROC       _CARDDELETEKEY
  -------         PROC          DELETEALLCARDCON
  C:99EAH         LINE#         519
  C:99EAH         LINE#         520
  C:99EAH         LINE#         521
  C:99F0H         LINE#         522
  C:99F3H         LINE#         523
  -------         ENDPROC       DELETEALLCARDCON
  -------         PROC          _CARDDELALLKEY
  D:0007H         SYMBOL        key
  C:9938H         LINE#         525
  C:9938H         LINE#         526
  C:9938H         LINE#         527
  C:9945H         LINE#         528
  C:9945H         LINE#         529
  C:9945H         LINE#         530
  C:9948H         LINE#         531
  C:994BH         LINE#         532
  C:994BH         LINE#         533
  C:994BH         LINE#         534
  C:994BH         LINE#         535
  C:994EH         LINE#         536
  C:994EH         LINE#         537
  C:994EH         LINE#         538
  -------         ENDPROC       _CARDDELALLKEY
  -------         PROC          CARDSETCON
  -------         DO            
  X:1080H         SYMBOL        Disbuf
  -------         ENDDO         
  C:8159H         LINE#         540
  C:8159H         LINE#         541
  C:8159H         LINE#         544
  C:815FH         LINE#         546
BL51 BANKED LINKER/LOCATER V6.22.2.0                                                  01/18/2022  14:53:23  PAGE 116


  C:8162H         LINE#         547
  C:816EH         LINE#         548
  C:817BH         LINE#         549
  C:8188H         LINE#         550
  C:8195H         LINE#         551
  C:81BBH         LINE#         552
  -------         ENDPROC       CARDSETCON
  -------         PROC          _CARDSETKEY
  D:0007H         SYMBOL        key
  C:973DH         LINE#         555
  C:973DH         LINE#         556
  C:973DH         LINE#         557
  C:9751H         LINE#         558
  C:9751H         LINE#         559
  C:9751H         LINE#         560
  C:9754H         LINE#         561
  C:9754H         LINE#         562
  C:9754H         LINE#         563
  C:9757H         LINE#         564
  C:9757H         LINE#         565
  C:9757H         LINE#         566
  C:975AH         LINE#         567
  C:975AH         LINE#         568
  C:975AH         LINE#         569
  C:975AH         LINE#         570
  C:975DH         LINE#         571
  C:975DH         LINE#         572
  C:975DH         LINE#         573
  -------         ENDPROC       _CARDSETKEY
  -------         ENDMOD        CARD

  -------         MODULE        CARDREAD
  C:0000H         SYMBOL        _ICE_DUMMY_
  D:0080H         PUBLIC        P0
  D:0090H         PUBLIC        P1
  D:00A0H         PUBLIC        P2
  D:00B0H         PUBLIC        P3
  D:00C0H         PUBLIC        P4
  D:00C8H         PUBLIC        P5
  B:0022H.0       PUBLIC        errflg
  D:00E8H         PUBLIC        P6
  D:00F8H         PUBLIC        P7
  D:00A8H         PUBLIC        IE
  C:982BH         PUBLIC        CardReadInit
  B:0022H.1       PUBLIC        CardReadOK
  D:00B8H         PUBLIC        IP
  X:1313H         PUBLIC        CodeOld
  X:1317H         PUBLIC        RfidCardBuf
  D:00D8H         PUBLIC        CCON
  X:132BH         PUBLIC        CodeCheckTs
  X:132CH         PUBLIC        CardRaw
  X:1354H         PUBLIC        CardCh
  X:1356H         PUBLIC        CardBitCount
  C:6A94H         PUBLIC        CardIrq
  D:0098H         PUBLIC        SCON
  X:1357H         PUBLIC        CodeIn
  X:135BH         PUBLIC        CardChCount
BL51 BANKED LINKER/LOCATER V6.22.2.0                                                  01/18/2022  14:53:23  PAGE 117


  B:00B0H.2       PUBLIC        P32
  D:0088H         PUBLIC        TCON
  X:135CH         PUBLIC        CardGetBit
  D:00F0H         PUBLIC        B
  X:135DH         PUBLIC        CardRt
  X:135EH         PUBLIC        CardInTime
  D:00E0H         PUBLIC        ACC
  C:9097H         PUBLIC        CardMsTask
  B:0022H.2       PUBLIC        CardGetOk
  C:0E7EH         PUBLIC        CheckRfidCard
  X:1360H         PUBLIC        CardCode
  D:00D0H         PUBLIC        PSW
  -------         PROC          CARDREADINIT
  C:982BH         LINE#         21
  C:982BH         LINE#         22
  C:982BH         LINE#         23
  C:9830H         LINE#         24
  C:9834H         LINE#         25
  C:983AH         LINE#         26
  C:983CH         LINE#         27
  C:9840H         LINE#         28
  C:9842H         LINE#         29
  C:9844H         LINE#         30
  -------         ENDPROC       CARDREADINIT
  -------         PROC          CARDMSTASK
  C:9097H         LINE#         32
  C:9097H         LINE#         33
  C:9097H         LINE#         34
  C:90A1H         LINE#         35
  C:90A1H         LINE#         36
  C:90AFH         LINE#         37
  C:90AFH         LINE#         38
  C:90B9H         LINE#         39
  C:90BEH         LINE#         40
  C:90C8H         LINE#         41
  C:90C8H         LINE#         42
  C:90C8H         LINE#         43
  -------         ENDPROC       CARDMSTASK
  -------         PROC          CHECKRFIDCARD
  -------         DO            
  X:107CH         SYMBOL        i
  X:107DH         SYMBOL        n
  X:107EH         SYMBOL        k
  X:107FH         SYMBOL        j
  X:1080H         SYMBOL        num
  D:0007H         SYMBOL        tmp
  D:0006H         SYMBOL        chk
  -------         ENDDO         
  C:0E7EH         LINE#         348
  C:0E7EH         LINE#         349
  C:0E7EH         LINE#         351
  C:0E83H         LINE#         356
  C:0E8DH         LINE#         362
  C:0E92H         LINE#         363
  C:0EABH         LINE#         364
  C:0EABH         LINE#         365
  C:0EAEH         LINE#         366
BL51 BANKED LINKER/LOCATER V6.22.2.0                                                  01/18/2022  14:53:23  PAGE 118


  C:0EBBH         LINE#         367
  C:0EBDH         LINE#         368
  C:0EC9H         LINE#         369
  C:0EC9H         LINE#         371
  C:0EC9H         LINE#         372
  C:0ECCH         LINE#         373
  C:0EE1H         LINE#         374
  C:0EE1H         LINE#         375
  C:0F2FH         LINE#         376
  C:0F63H         LINE#         377
  C:0F6CH         LINE#         379
  C:0F82H         LINE#         380
  C:0F82H         LINE#         381
  C:0F84H         LINE#         383
  C:0FA0H         LINE#         384
  C:0FA0H         LINE#         385
  C:0FB4H         LINE#         386
  C:0FB4H         LINE#         387
  C:0FD4H         LINE#         388
  C:100EH         LINE#         389
  C:1016H         LINE#         390
  C:1021H         LINE#         391
  C:1027H         LINE#         392
  C:1027H         LINE#         394
  C:1039H         LINE#         395
  C:104BH         LINE#         396
  C:105EH         LINE#         397
  C:1067H         LINE#         399
  C:1078H         LINE#         400
  C:108AH         LINE#         401
  C:10A3H         LINE#         402
  C:10AEH         LINE#         404
  C:10BDH         LINE#         405
  C:10C2H         LINE#         406
  C:10D9H         LINE#         407
  C:10E5H         LINE#         408
  C:10F3H         LINE#         411
  C:1109H         LINE#         412
  C:1109H         LINE#         413
  C:1119H         LINE#         414
  C:112CH         LINE#         415
  C:112CH         LINE#         416
  C:1133H         LINE#         417
  C:1133H         LINE#         418
  C:1134H         LINE#         419
  C:1134H         LINE#         420
  C:1138H         LINE#         421
  C:1140H         LINE#         423
  C:1144H         LINE#         426
  C:114CH         LINE#         427
  C:114CH         LINE#         428
  C:116CH         LINE#         429
  C:116EH         LINE#         431
  C:116EH         LINE#         432
  C:119BH         LINE#         433
  C:119BH         LINE#         435
  C:11B9H         LINE#         436
BL51 BANKED LINKER/LOCATER V6.22.2.0                                                  01/18/2022  14:53:23  PAGE 119


  C:11B9H         LINE#         437
  C:11BBH         LINE#         438
  C:11BDH         LINE#         439
  C:11BDH         LINE#         440
  C:11C6H         LINE#         441
  C:11CCH         LINE#         442
  C:11CCH         LINE#         443
  C:11DBH         LINE#         444
  C:11F4H         LINE#         445
  C:1216H         LINE#         446
  C:122FH         LINE#         447
  C:1251H         LINE#         448
  C:126AH         LINE#         449
  C:128CH         LINE#         451
  C:12E4H         LINE#         452
  C:12E4H         LINE#         453
  C:12F1H         LINE#         454
  C:12F1H         LINE#         455
  C:12F3H         LINE#         456
  C:12F5H         LINE#         457
  C:1309H         LINE#         458
  C:132BH         LINE#         459
  C:1334H         LINE#         460
  C:1347H         LINE#         461
  C:1347H         LINE#         462
  C:135FH         LINE#         463
  C:1367H         LINE#         464
  C:1370H         LINE#         466
  C:1370H         LINE#         467
  C:1370H         LINE#         469
  C:1370H         LINE#         470
  C:1384H         LINE#         471
  C:1389H         LINE#         472
  C:138AH         LINE#         474
  C:138AH         LINE#         475
  C:1393H         LINE#         476
  -------         ENDPROC       CHECKRFIDCARD
  -------         PROC          CARDIRQ
  C:6A94H         LINE#         478
  C:6A94H         LINE#         479
  C:6A94H         LINE#         481
  C:6A9AH         LINE#         482
  C:6A9AH         LINE#         484
  C:6A9AH         LINE#         486
  C:6AB7H         LINE#         487
  C:6AB7H         LINE#         488
  C:6ABDH         LINE#         489
  C:6AD1H         LINE#         491
  C:6AD1H         LINE#         492
  C:6AD1H         LINE#         493
  C:6AD4H         LINE#         495
  C:6AD4H         LINE#         497
  C:6AEFH         LINE#         498
  C:6AEFH         LINE#         499
  C:6AFCH         LINE#         500
  C:6AFFH         LINE#         501
  C:6AFFH         LINE#         502
BL51 BANKED LINKER/LOCATER V6.22.2.0                                                  01/18/2022  14:53:23  PAGE 120


  C:6B04H         LINE#         503
  C:6B04H         LINE#         504
  C:6B11H         LINE#         505
  C:6B11H         LINE#         506
  C:6B12H         LINE#         507
  C:6B32H         LINE#         508
  C:6B42H         LINE#         509
  C:6B42H         LINE#         510
  C:6B44H         LINE#         511
  C:6B44H         LINE#         512
  C:6B44H         LINE#         513
  C:6B44H         LINE#         514
  C:6B45H         LINE#         515
  C:6B5CH         LINE#         516
  C:6B5CH         LINE#         517
  C:6B68H         LINE#         518
  C:6B68H         LINE#         519
  C:6B69H         LINE#         520
  C:6B6BH         LINE#         522
  C:6B6BH         LINE#         524
  C:6B72H         LINE#         525
  C:6B79H         LINE#         526
  C:6B79H         LINE#         527
  C:6B86H         LINE#         528
  C:6B89H         LINE#         529
  C:6B89H         LINE#         530
  C:6B8EH         LINE#         531
  C:6B8EH         LINE#         532
  C:6B98H         LINE#         533
  C:6B98H         LINE#         534
  C:6B99H         LINE#         535
  C:6BB9H         LINE#         536
  C:6BC6H         LINE#         537
  C:6BC6H         LINE#         538
  C:6BC8H         LINE#         539
  C:6BC8H         LINE#         540
  C:6BC8H         LINE#         541
  C:6BC8H         LINE#         542
  C:6BC9H         LINE#         544
  C:6BC9H         LINE#         545
  C:6BCEH         LINE#         546
  C:6BD2H         LINE#         547
  C:6BD2H         LINE#         548
  -------         ENDPROC       CARDIRQ
  -------         ENDMOD        CARDREAD

  -------         MODULE        AUDIO
  C:0000H         SYMBOL        _ICE_DUMMY_
  D:0080H         PUBLIC        P0
  D:0090H         PUBLIC        P1
  D:00A0H         PUBLIC        P2
  D:00B0H         PUBLIC        P3
  D:00C0H         PUBLIC        P4
  X:0000H         PUBLIC        PlyN
  D:00C8H         PUBLIC        P5
  D:00E8H         PUBLIC        P6
  D:00F8H         PUBLIC        P7
BL51 BANKED LINKER/LOCATER V6.22.2.0                                                  01/18/2022  14:53:23  PAGE 121


  C:8AA4H         PUBLIC        _Beep_StartPlay
  D:00FEH         PUBLIC        PWMCR
  D:00BAH         PUBLIC        P_SW2
  D:00A8H         PUBLIC        IE
  X:0001H         SYMBOL        Midx
  D:00B8H         PUBLIC        IP
  D:00D8H         PUBLIC        CCON
  C:8556H         PUBLIC        PWMtask
  C:8EF7H         PUBLIC        WavCode
  B:0022H.3       PUBLIC        WavNeedRead
  X:0002H         PUBLIC        WavFileAddr
  B:0080H.0       PUBLIC        P00
  X:0006H         PUBLIC        WavFile
  D:0098H         PUBLIC        SCON
  D:0088H         PUBLIC        TCON
  B:00E8H.2       PUBLIC        P62
  X:008EH         PUBLIC        PwmTimer
  B:00F8H.4       PUBLIC        P74
  C:8D8EH         PUBLIC        KeyBeepTask
  D:00F0H         PUBLIC        B
  C:5DEFH         PUBLIC        WavReadTask
  C:936AH         PUBLIC        SPI_config
  D:00E0H         PUBLIC        ACC
  X:008FH         PUBLIC        WavBuf
  B:0022H.4       PUBLIC        AudioPlaying
  C:93BBH         PUBLIC        PWM_config
  X:088FH         PUBLIC        WavFileLen
  X:0893H         PUBLIC        WavReadIdx
  C:91BAH         PUBLIC        MP3_Stop
  C:7CE1H         PUBLIC        _MP3_StartPlay
  X:0897H         PUBLIC        BeepPlyIdx
  X:0898H         SYMBOL        PlyIdx
  D:00D1H         PUBLIC        T4T3M
  X:089AH         PUBLIC        WavBufLen
  B:0022H.5       PUBLIC        KeyBeepO
  D:00D0H         PUBLIC        PSW
  -------         PROC          SPI_CONFIG
  -------         DO            
  X:107CH         SYMBOL        SPI_InitStructure
  -------         ENDDO         
  C:936AH         LINE#         125
  C:936AH         LINE#         126
  C:936AH         LINE#         128
  C:9370H         LINE#         129
  C:9373H         LINE#         130
  C:9375H         LINE#         131
  C:9378H         LINE#         132
  C:937BH         LINE#         133
  C:937EH         LINE#         134
  C:9380H         LINE#         135
  C:9383H         LINE#         136
  C:9387H         LINE#         137
  C:9390H         LINE#         139
  C:9392H         LINE#         140
  -------         ENDPROC       SPI_CONFIG
  -------         PROC          PWM_CONFIG
  C:93BBH         LINE#         151
BL51 BANKED LINKER/LOCATER V6.22.2.0                                                  01/18/2022  14:53:23  PAGE 122


  C:93BBH         LINE#         152
  C:93BBH         LINE#         153
  C:93BEH         LINE#         154
  C:93C3H         LINE#         155
  C:93CBH         LINE#         156
  C:93D2H         LINE#         157
  C:93D8H         LINE#         158
  C:93DCH         LINE#         159
  C:93DFH         LINE#         160
  C:93E2H         LINE#         161
  -------         ENDPROC       PWM_CONFIG
  -------         PROC          WAVREADTASK
  -------         DO            
  X:112BH         SYMBOL        midx
  -------         ENDDO         
  C:5DEFH         LINE#         207
  C:5DEFH         LINE#         208
  C:5DEFH         LINE#         211
  C:5DF5H         LINE#         212
  C:5DF5H         LINE#         213
  C:5DF7H         LINE#         214
  C:5E04H         LINE#         215
  C:5E3DH         LINE#         216
  C:5E3DH         LINE#         217
  C:5E40H         LINE#         219
  C:5E40H         LINE#         220
  C:5E73H         LINE#         221
  C:5E73H         LINE#         222
  C:5E88H         LINE#         223
  C:5EA8H         LINE#         224
  C:5EAAH         LINE#         226
  C:5EAAH         LINE#         227
  C:5ED9H         LINE#         228
  C:5EE3H         LINE#         229
  C:5F0AH         LINE#         230
  C:5F0AH         LINE#         231
  C:5F0CH         LINE#         232
  C:5F0CH         LINE#         234
  C:5F0CH         LINE#         235
  C:5F71H         LINE#         241
  C:5F71H         LINE#         242
  -------         ENDPROC       WAVREADTASK
  -------         PROC          PWMTASK
  C:8556H         LINE#         244
  C:8556H         LINE#         245
  C:8556H         LINE#         247
  C:8578H         LINE#         248
  C:8578H         LINE#         249
  C:857BH         LINE#         255
  C:85B5H         LINE#         256
  C:85B8H         LINE#         257
  C:85B9H         LINE#         259
  C:85B9H         LINE#         260
  C:85C0H         LINE#         261
  C:85CAH         LINE#         262
  C:85CCH         LINE#         263
  C:85CCH         LINE#         264
BL51 BANKED LINKER/LOCATER V6.22.2.0                                                  01/18/2022  14:53:23  PAGE 123


  -------         ENDPROC       PWMTASK
  -------         PROC          _MP3_STARTPLAY
  X:10D0H         SYMBOL        idx
  C:7CE1H         LINE#         266
  C:7CE6H         LINE#         267
  C:7CE6H         LINE#         268
  C:7CEFH         LINE#         269
  C:7CEFH         LINE#         271
  C:7CEFH         LINE#         273
  C:7CF2H         LINE#         274
  C:7CF4H         LINE#         275
  C:7CFBH         LINE#         276
  C:7D1EH         LINE#         277
  C:7D3DH         LINE#         279
  C:7D44H         LINE#         280
  C:7D4EH         LINE#         281
  C:7D55H         LINE#         282
  C:7D59H         LINE#         284
  C:7D5EH         LINE#         285
  C:7D60H         LINE#         286
  C:7D63H         LINE#         288
  C:7D68H         LINE#         289
  C:7D6AH         LINE#         290
  C:7D6DH         LINE#         292
  C:7D70H         LINE#         293
  C:7D73H         LINE#         294
  C:7D75H         LINE#         295
  -------         ENDPROC       _MP3_STARTPLAY
  -------         PROC          MP3_STOP
  C:91BAH         LINE#         296
  C:91BAH         LINE#         297
  C:91BAH         LINE#         298
  C:91E1H         LINE#         299
  C:91E1H         LINE#         300
  C:91E3H         LINE#         301
  C:91E3H         LINE#         302
  C:91E5H         LINE#         304
  C:91E8H         LINE#         305
  -------         ENDPROC       MP3_STOP
  -------         PROC          _BEEP_STARTPLAY
  D:0007H         SYMBOL        idx
  C:8AA4H         LINE#         322
  C:8AA4H         LINE#         323
  C:8AA4H         LINE#         324
  C:8AC4H         LINE#         325
  C:8AC4H         LINE#         326
  C:8AC4H         LINE#         327
  C:8AC4H         LINE#         328
  C:8AC4H         LINE#         329
  C:8ACAH         LINE#         330
  C:8ACCH         LINE#         331
  C:8ACCH         LINE#         332
  C:8AD1H         LINE#         333
  C:8AD3H         LINE#         334
  C:8AD3H         LINE#         335
  C:8AD9H         LINE#         336
  C:8ADBH         LINE#         337
BL51 BANKED LINKER/LOCATER V6.22.2.0                                                  01/18/2022  14:53:23  PAGE 124


  C:8ADBH         LINE#         338
  C:8ADBH         LINE#         339
  C:8ADBH         LINE#         340
  C:8ADBH         LINE#         341
  C:8AE1H         LINE#         342
  C:8AE3H         LINE#         343
  C:8AE3H         LINE#         344
  C:8AE3H         LINE#         345
  C:8AE9H         LINE#         346
  C:8AE9H         LINE#         347
  C:8AE9H         LINE#         349
  C:8AEEH         LINE#         350
  C:8AF4H         LINE#         351
  C:8AF7H         LINE#         352
  C:8AF9H         LINE#         353
  -------         ENDPROC       _BEEP_STARTPLAY
  -------         PROC          KEYBEEPTASK
  C:8D8EH         LINE#         355
  C:8D8EH         LINE#         356
  C:8D8EH         LINE#         357
  C:8D96H         LINE#         358
  C:8D96H         LINE#         359
  C:8DA0H         LINE#         360
  C:8DA0H         LINE#         361
  C:8DA1H         LINE#         362
  C:8DBAH         LINE#         363
  C:8DBAH         LINE#         364
  C:8DC0H         LINE#         365
  C:8DC2H         LINE#         366
  C:8DC5H         LINE#         368
  C:8DC5H         LINE#         369
  C:8DC7H         LINE#         370
  C:8DCDH         LINE#         371
  C:8DCDH         LINE#         372
  C:8DCDH         LINE#         373
  -------         ENDPROC       KEYBEEPTASK
  -------         ENDMOD        AUDIO

  -------         MODULE        UART
  C:0000H         SYMBOL        _ICE_DUMMY_
  C:1D41H         PUBLIC        _UART_Configuration
  D:0080H         PUBLIC        P0
  D:0090H         PUBLIC        P1
  D:00A0H         PUBLIC        P2
  D:00B0H         PUBLIC        P3
  D:00C0H         PUBLIC        P4
  D:00C8H         PUBLIC        P5
  D:00E8H         PUBLIC        P6
  D:00F8H         PUBLIC        P7
  D:00A2H         PUBLIC        P_SW1
  D:00BAH         PUBLIC        P_SW2
  D:00A8H         PUBLIC        IE
  X:0CA4H         PUBLIC        COM1
  X:0CACH         PUBLIC        COM3
  D:00EEH         PUBLIC        IP3H
  B:00A8H.4       PUBLIC        ES
  D:00B8H         PUBLIC        IP
BL51 BANKED LINKER/LOCATER V6.22.2.0                                                  01/18/2022  14:53:23  PAGE 125


  X:0CB4H         PUBLIC        RX1_Buffer
  B:0098H.0       PUBLIC        RI
  C:7E09H         PUBLIC        UART1_int
  X:0EB4H         PUBLIC        RX3_Buffer
  X:0F34H         PUBLIC        TX1_Buffer
  B:0098H.1       PUBLIC        TI
  C:79D5H         PUBLIC        UART3_int
  X:0FFCH         PUBLIC        TX3_Buffer
  B:00B8H.4       PUBLIC        PS
  D:00D8H         PUBLIC        CCON
  D:0099H         PUBLIC        SBUF
  D:0087H         PUBLIC        PCON
  C:8C7CH         PUBLIC        UartTask
  D:0098H         PUBLIC        SCON
  D:0089H         PUBLIC        TMOD
  D:0088H         PUBLIC        TCON
  C:98A9H         PUBLIC        Uart1Clear
  C:98C2H         PUBLIC        Uart3Clear
  C:9032H         PUBLIC        _PrintString3
  D:00AFH         PUBLIC        IE2
  D:00F0H         PUBLIC        B
  D:008EH         PUBLIC        AUXR
  C:929AH         PUBLIC        _TX1_write2buff
  C:9243H         PUBLIC        _TX3_write2buff
  D:00E0H         PUBLIC        ACC
  B:00A8H.3       PUBLIC        ET1
  D:00DFH         PUBLIC        IP3
  D:008DH         PUBLIC        TH1
  D:00D6H         PUBLIC        TH2
  D:00D4H         PUBLIC        TH3
  D:008BH         PUBLIC        TL1
  D:00D7H         PUBLIC        TL2
  D:00D5H         PUBLIC        TL3
  B:0088H.6       PUBLIC        TR1
  D:00D1H         PUBLIC        T4T3M
  D:00B7H         PUBLIC        IPH
  D:00ADH         PUBLIC        S3BUF
  B:0098H.4       PUBLIC        REN
  D:00ACH         PUBLIC        S3CON
  D:008FH         PUBLIC        INT_CLKO
  D:00D0H         PUBLIC        PSW
  -------         PROC          _UART_CONFIGURATION
  X:1088H         SYMBOL        UARTx
  X:1089H         SYMBOL        COMx
  -------         DO            
  X:108CH         SYMBOL        i
  X:108EH         SYMBOL        j
  -------         ENDDO         
  C:1D41H         LINE#         26
  C:1D51H         LINE#         27
  C:1D51H         LINE#         32
  C:1D58H         LINE#         33
  C:1D58H         LINE#         34
  C:1D5DH         LINE#         35
  C:1D60H         LINE#         36
  C:1D62H         LINE#         37
  C:1D64H         LINE#         38
BL51 BANKED LINKER/LOCATER V6.22.2.0                                                  01/18/2022  14:53:23  PAGE 126


  C:1D68H         LINE#         39
  C:1D6AH         LINE#         40
  C:1D6CH         LINE#         41
  C:1D9EH         LINE#         42
  C:1DCFH         LINE#         44
  C:1DEFH         LINE#         45
  C:1E2FH         LINE#         46
  C:1E41H         LINE#         47
  C:1E4CH         LINE#         48
  C:1E5AH         LINE#         49
  C:1E5AH         LINE#         50
  C:1E71H         LINE#         51
  C:1E8EH         LINE#         52
  C:1EB0H         LINE#         53
  C:1EC8H         LINE#         54
  C:1EC8H         LINE#         55
  C:1ECAH         LINE#         56
  C:1ECDH         LINE#         57
  C:1ED0H         LINE#         58
  C:1ED3H         LINE#         59
  C:1ED6H         LINE#         60
  C:1EEBH         LINE#         61
  C:1EF4H         LINE#         62
  C:1EF6H         LINE#         63
  C:1EF9H         LINE#         64
  C:1EFCH         LINE#         65
  C:1EFEH         LINE#         66
  C:1F00H         LINE#         67
  C:1F06H         LINE#         68
  C:1F06H         LINE#         69
  C:1F09H         LINE#         70
  C:1F0CH         LINE#         71
  C:1F0FH         LINE#         72
  C:1F12H         LINE#         73
  C:1F27H         LINE#         74
  C:1F30H         LINE#         75
  C:1F33H         LINE#         76
  C:1F36H         LINE#         77
  C:1F38H         LINE#         78
  C:1F3BH         LINE#         79
  C:1F3BH         LINE#         80
  C:1F4EH         LINE#         81
  C:1F4EH         LINE#         82
  C:1F5DH         LINE#         83
  C:1F60H         LINE#         84
  C:1F62H         LINE#         85
  C:1F68H         LINE#         86
  C:1F68H         LINE#         87
  C:1F77H         LINE#         88
  C:1F7AH         LINE#         89
  C:1F7AH         LINE#         90
  C:1F93H         LINE#         91
  C:1F95H         LINE#         92
  C:1FA3H         LINE#         93
  C:1FA5H         LINE#         94
  C:1FB5H         LINE#         95
  C:1FB8H         LINE#         96
BL51 BANKED LINKER/LOCATER V6.22.2.0                                                  01/18/2022  14:53:23  PAGE 127


  C:1FB8H         LINE#         138
  C:1FC3H         LINE#         139
  C:1FC3H         LINE#         140
  C:1FC9H         LINE#         141
  C:1FCCH         LINE#         142
  C:1FCEH         LINE#         143
  C:1FD0H         LINE#         144
  C:1FD4H         LINE#         145
  C:1FD6H         LINE#         146
  C:1FD8H         LINE#         147
  C:200AH         LINE#         148
  C:203DH         LINE#         150
  C:2058H         LINE#         151
  C:2058H         LINE#         152
  C:206DH         LINE#         153
  C:20B1H         LINE#         154
  C:20BDH         LINE#         155
  C:20C0H         LINE#         156
  C:20D7H         LINE#         157
  C:20F4H         LINE#         158
  C:2116H         LINE#         159
  C:212EH         LINE#         160
  C:212EH         LINE#         161
  C:2131H         LINE#         162
  C:2146H         LINE#         163
  C:214FH         LINE#         164
  C:2152H         LINE#         165
  C:2154H         LINE#         166
  C:215AH         LINE#         167
  C:215AH         LINE#         168
  C:215DH         LINE#         169
  C:2160H         LINE#         170
  C:2163H         LINE#         171
  C:2166H         LINE#         172
  C:217BH         LINE#         173
  C:2184H         LINE#         174
  C:2187H         LINE#         175
  C:218AH         LINE#         176
  C:218CH         LINE#         177
  C:218FH         LINE#         178
  C:218FH         LINE#         179
  C:2192H         LINE#         180
  C:21ACH         LINE#         181
  C:21AFH         LINE#         182
  C:21BEH         LINE#         183
  C:21C1H         LINE#         184
  C:21D1H         LINE#         185
  C:21D4H         LINE#         186
  C:21D4H         LINE#         239
  C:21D6H         LINE#         240
  -------         ENDPROC       _UART_CONFIGURATION
  -------         PROC          _TX1_WRITE2BUFF
  D:0007H         SYMBOL        dat
  C:929AH         LINE#         246
  C:929AH         LINE#         247
  C:929AH         LINE#         248
  C:92A9H         LINE#         249
BL51 BANKED LINKER/LOCATER V6.22.2.0                                                  01/18/2022  14:53:23  PAGE 128


  C:92BAH         LINE#         251
  C:92C0H         LINE#         252
  C:92C0H         LINE#         253
  C:92C2H         LINE#         254
  C:92C4H         LINE#         255
  C:92C4H         LINE#         256
  -------         ENDPROC       _TX1_WRITE2BUFF
  -------         PROC          UART1_INT
  C:7E09H         LINE#         263
  C:7E1CH         LINE#         265
  C:7E1FH         LINE#         266
  C:7E1FH         LINE#         267
  C:7E21H         LINE#         268
  C:7E27H         LINE#         269
  C:7E27H         LINE#         270
  C:7E34H         LINE#         271
  C:7E4DH         LINE#         272
  C:7E53H         LINE#         273
  C:7E53H         LINE#         274
  C:7E53H         LINE#         276
  C:7E56H         LINE#         277
  C:7E56H         LINE#         278
  C:7E58H         LINE#         279
  C:7E65H         LINE#         280
  C:7E65H         LINE#         281
  C:7E72H         LINE#         282
  C:7E83H         LINE#         283
  C:7E85H         LINE#         284
  C:7E8AH         LINE#         285
  C:7E8AH         LINE#         286
  -------         ENDPROC       UART1_INT
  -------         PROC          UART1CLEAR
  C:98A9H         LINE#         288
  C:98A9H         LINE#         289
  C:98A9H         LINE#         290
  C:98B6H         LINE#         291
  C:98BBH         LINE#         292
  C:98C1H         LINE#         293
  -------         ENDPROC       UART1CLEAR
  -------         PROC          _TX3_WRITE2BUFF
  D:0007H         SYMBOL        dat
  C:9243H         LINE#         343
  C:9243H         LINE#         344
  C:9243H         LINE#         345
  C:9252H         LINE#         346
  C:9263H         LINE#         348
  C:9269H         LINE#         349
  C:9269H         LINE#         350
  C:926BH         LINE#         351
  C:926EH         LINE#         352
  C:926EH         LINE#         353
  -------         ENDPROC       _TX3_WRITE2BUFF
  -------         PROC          _PRINTSTRING3
  X:1099H         SYMBOL        puts
  C:9032H         LINE#         355
  C:903DH         LINE#         356
  C:903DH         LINE#         357
BL51 BANKED LINKER/LOCATER V6.22.2.0                                                  01/18/2022  14:53:23  PAGE 129


  C:904DH         LINE#         358
  C:904DH         LINE#         359
  C:9062H         LINE#         360
  C:9064H         LINE#         361
  -------         ENDPROC       _PRINTSTRING3
  -------         PROC          UART3_INT
  C:79D5H         LINE#         363
  C:79E8H         LINE#         365
  C:79EEH         LINE#         366
  C:79EEH         LINE#         367
  C:79F1H         LINE#         368
  C:79F7H         LINE#         369
  C:79F7H         LINE#         370
  C:7A0AH         LINE#         371
  C:7A23H         LINE#         372
  C:7A29H         LINE#         377
  C:7A29H         LINE#         378
  C:7A29H         LINE#         380
  C:7A2FH         LINE#         381
  C:7A2FH         LINE#         382
  C:7A32H         LINE#         383
  C:7A3FH         LINE#         384
  C:7A3FH         LINE#         385
  C:7A4CH         LINE#         386
  C:7A5DH         LINE#         387
  C:7A5FH         LINE#         388
  C:7A64H         LINE#         389
  C:7A64H         LINE#         390
  -------         ENDPROC       UART3_INT
  -------         PROC          UART3CLEAR
  C:98C2H         LINE#         392
  C:98C2H         LINE#         393
  C:98C2H         LINE#         394
  C:98CFH         LINE#         395
  C:98D4H         LINE#         396
  C:98DAH         LINE#         397
  -------         ENDPROC       UART3CLEAR
  -------         PROC          UARTTASK
  C:8C7CH         LINE#         463
  C:8C7CH         LINE#         464
  C:8C7CH         LINE#         466
  C:8C82H         LINE#         467
  C:8C82H         LINE#         468
  C:8C86H         LINE#         469
  C:8C86H         LINE#         470
  C:8C95H         LINE#         471
  C:8C95H         LINE#         472
  C:8C9BH         LINE#         473
  C:8C9DH         LINE#         475
  C:8C9DH         LINE#         476
  C:8CA0H         LINE#         477
  C:8CA0H         LINE#         478
  C:8CA0H         LINE#         479
  C:8CA0H         LINE#         482
  C:8CA6H         LINE#         483
  C:8CA6H         LINE#         484
  C:8CAAH         LINE#         485
BL51 BANKED LINKER/LOCATER V6.22.2.0                                                  01/18/2022  14:53:23  PAGE 130


  C:8CAAH         LINE#         486
  C:8CB9H         LINE#         487
  C:8CB9H         LINE#         488
  C:8CBFH         LINE#         489
  C:8CC0H         LINE#         491
  C:8CC0H         LINE#         492
  C:8CC3H         LINE#         493
  C:8CC3H         LINE#         494
  C:8CC3H         LINE#         495
  C:8CC3H         LINE#         513
  -------         ENDPROC       UARTTASK
  -------         ENDMOD        UART

  -------         MODULE        TIMER
  C:0000H         SYMBOL        _ICE_DUMMY_
  D:0080H         PUBLIC        P0
  D:0090H         PUBLIC        P1
  C:004EH         PUBLIC        timer0_int
  D:00A0H         PUBLIC        P2
  C:915BH         PUBLIC        timer1_int
  D:00B0H         PUBLIC        P3
  D:00C0H         PUBLIC        P4
  D:00C8H         PUBLIC        P5
  C:8E84H         PUBLIC        timer4_int
  D:00E8H         PUBLIC        P6
  D:00F8H         PUBLIC        P7
  D:00A8H         PUBLIC        IE
  D:00B8H         PUBLIC        IP
  D:00D8H         PUBLIC        CCON
  D:0098H         PUBLIC        SCON
  D:0089H         PUBLIC        TMOD
  D:0088H         PUBLIC        TCON
  B:00E8H.2       PUBLIC        P62
  C:4FB1H         PUBLIC        _Timer_Inilize
  D:00AFH         PUBLIC        IE2
  D:00F0H         PUBLIC        B
  D:008EH         PUBLIC        AUXR
  B:0023H.3       PUBLIC        Timer0_Irq
  D:00E0H         PUBLIC        ACC
  B:00A8H.1       PUBLIC        ET0
  B:00A8H.3       PUBLIC        ET1
  D:008CH         PUBLIC        TH0
  D:008DH         PUBLIC        TH1
  D:00D2H         PUBLIC        TH4
  D:008AH         PUBLIC        TL0
  D:008BH         PUBLIC        TL1
  B:00B8H.1       PUBLIC        PT0
  D:00D3H         PUBLIC        TL4
  B:00B8H.3       PUBLIC        PT1
  B:0088H.4       PUBLIC        TR0
  B:0088H.6       PUBLIC        TR1
  D:00D1H         PUBLIC        T4T3M
  D:00B7H         PUBLIC        IPH
  D:008FH         PUBLIC        INT_CLKO
  X:13A3H         PUBLIC        usTime
  D:00D0H         PUBLIC        PSW
  -------         PROC          TIMER0_INT
BL51 BANKED LINKER/LOCATER V6.22.2.0                                                  01/18/2022  14:53:23  PAGE 131


  C:004EH         LINE#         9
  C:006BH         LINE#         11
  C:006DH         LINE#         13
  C:0070H         LINE#         15
  -------         ENDPROC       TIMER0_INT
  -------         PROC          TIMER1_INT
  C:915BH         LINE#         20
  C:9163H         LINE#         22
  C:9169H         LINE#         24
  C:9178H         LINE#         25
  C:9178H         LINE#         26
  C:917AH         LINE#         27
  C:9182H         LINE#         28
  C:9182H         LINE#         30
  -------         ENDPROC       TIMER1_INT
  -------         PROC          TIMER4_INT
  C:8E84H         LINE#         48
  C:8EA1H         LINE#         51
  C:8EA4H         LINE#         53
  -------         ENDPROC       TIMER4_INT
  -------         PROC          _TIMER_INILIZE
  D:0005H         SYMBOL        TIM
  D:0001H         SYMBOL        TIMx
  C:4FB1H         LINE#         63
  C:4FB3H         LINE#         64
  C:4FB3H         LINE#         66
  C:4FB9H         LINE#         67
  C:4FB9H         LINE#         68
  C:4FBBH         LINE#         69
  C:4FC9H         LINE#         70
  C:4FCBH         LINE#         71
  C:4FDEH         LINE#         72
  C:500AH         LINE#         74
  C:501AH         LINE#         75
  C:5021H         LINE#         76
  C:5031H         LINE#         77
  C:5038H         LINE#         78
  C:5043H         LINE#         79
  C:5046H         LINE#         80
  C:5055H         LINE#         81
  C:5058H         LINE#         83
  C:506AH         LINE#         84
  C:5076H         LINE#         85
  C:5079H         LINE#         86
  C:5079H         LINE#         89
  C:5081H         LINE#         90
  C:5081H         LINE#         91
  C:5083H         LINE#         92
  C:5091H         LINE#         93
  C:5093H         LINE#         94
  C:50A6H         LINE#         95
  C:50D2H         LINE#         96
  C:50E2H         LINE#         97
  C:50E9H         LINE#         98
  C:50F9H         LINE#         99
  C:5100H         LINE#         100
  C:510BH         LINE#         101
BL51 BANKED LINKER/LOCATER V6.22.2.0                                                  01/18/2022  14:53:23  PAGE 132


  C:510EH         LINE#         102
  C:511DH         LINE#         103
  C:5120H         LINE#         105
  C:5132H         LINE#         106
  C:513EH         LINE#         107
  C:5141H         LINE#         108
  C:5141H         LINE#         149
  C:5149H         LINE#         150
  C:5149H         LINE#         151
  C:514CH         LINE#         152
  C:515BH         LINE#         153
  C:515EH         LINE#         154
  C:5173H         LINE#         155
  C:517CH         LINE#         156
  C:5187H         LINE#         157
  C:5196H         LINE#         158
  C:5199H         LINE#         159
  C:51A8H         LINE#         160
  C:51ABH         LINE#         162
  C:51BBH         LINE#         163
  C:51C8H         LINE#         164
  C:51CBH         LINE#         165
  C:51CBH         LINE#         167
  C:51CDH         LINE#         168
  -------         ENDPROC       _TIMER_INILIZE
  -------         ENDMOD        TIMER

  -------         MODULE        GPIO
  C:0000H         SYMBOL        _ICE_DUMMY_
  D:0093H         PUBLIC        P0M1
  D:0092H         PUBLIC        P1M0
  D:0096H         PUBLIC        P2M0
  D:0091H         PUBLIC        P1M1
  D:0080H         PUBLIC        P0
  D:00B2H         PUBLIC        P3M0
  D:0095H         PUBLIC        P2M1
  D:0090H         PUBLIC        P1
  D:00B4H         PUBLIC        P4M0
  D:00B1H         PUBLIC        P3M1
  D:00A0H         PUBLIC        P2
  D:00CAH         PUBLIC        P5M0
  D:00B3H         PUBLIC        P4M1
  D:00B0H         PUBLIC        P3
  D:00CCH         PUBLIC        P6M0
  D:00C9H         PUBLIC        P5M1
  D:00C0H         PUBLIC        P4
  D:00E2H         PUBLIC        P7M0
  D:00CBH         PUBLIC        P6M1
  D:00C8H         PUBLIC        P5
  D:00E8H         PUBLIC        P6
  D:00E1H         PUBLIC        P7M1
  D:00F8H         PUBLIC        P7
  D:00A8H         PUBLIC        IE
  D:00B8H         PUBLIC        IP
  D:00D8H         PUBLIC        CCON
  D:0098H         PUBLIC        SCON
  D:0088H         PUBLIC        TCON
BL51 BANKED LINKER/LOCATER V6.22.2.0                                                  01/18/2022  14:53:23  PAGE 133


  D:00F0H         PUBLIC        B
  D:00E0H         PUBLIC        ACC
  C:4447H         PUBLIC        _GPIO_Inilize
  D:00D0H         PUBLIC        PSW
  D:0094H         PUBLIC        P0M0
  -------         PROC          _GPIO_INILIZE
  D:0007H         SYMBOL        GPIO
  D:0001H         SYMBOL        GPIOx
  C:4447H         LINE#         10
  C:4447H         LINE#         11
  C:4447H         LINE#         12
  C:4454H         LINE#         13
  C:4464H         LINE#         14
  C:4467H         LINE#         15
  C:4467H         LINE#         16
  C:4475H         LINE#         17
  C:4487H         LINE#         18
  C:4499H         LINE#         19
  C:44ABH         LINE#         20
  C:44ABH         LINE#         21
  C:44B0H         LINE#         22
  C:44B0H         LINE#         23
  C:44C1H         LINE#         24
  C:44D1H         LINE#         25
  C:44E2H         LINE#         26
  C:44F6H         LINE#         27
  C:44F6H         LINE#         28
  C:44FBH         LINE#         29
  C:44FBH         LINE#         30
  C:450CH         LINE#         31
  C:451CH         LINE#         32
  C:452DH         LINE#         33
  C:4541H         LINE#         34
  C:4541H         LINE#         35
  C:4546H         LINE#         36
  C:4546H         LINE#         37
  C:4557H         LINE#         38
  C:4567H         LINE#         39
  C:4578H         LINE#         40
  C:458CH         LINE#         41
  C:458CH         LINE#         42
  C:4591H         LINE#         43
  C:4591H         LINE#         44
  C:45A2H         LINE#         45
  C:45B2H         LINE#         46
  C:45C3H         LINE#         47
  C:45D7H         LINE#         48
  C:45D7H         LINE#         49
  C:45DCH         LINE#         50
  C:45DCH         LINE#         51
  C:45EDH         LINE#         52
  C:45FDH         LINE#         53
  C:460EH         LINE#         54
  C:4622H         LINE#         55
  C:4622H         LINE#         56
  C:4627H         LINE#         57
  C:4627H         LINE#         58
BL51 BANKED LINKER/LOCATER V6.22.2.0                                                  01/18/2022  14:53:23  PAGE 134


  C:4638H         LINE#         59
  C:4648H         LINE#         60
  C:4659H         LINE#         61
  C:466DH         LINE#         62
  C:466DH         LINE#         63
  C:4672H         LINE#         64
  C:4672H         LINE#         65
  C:4685H         LINE#         66
  C:4696H         LINE#         67
  C:46A7H         LINE#         68
  C:46BBH         LINE#         69
  C:46BBH         LINE#         70
  C:46BDH         LINE#         71
  -------         ENDPROC       _GPIO_INILIZE
  -------         ENDMOD        GPIO

  -------         MODULE        EXTI
  C:0000H         SYMBOL        _ICE_DUMMY_
  D:0080H         PUBLIC        P0
  D:0090H         PUBLIC        P1
  D:00A0H         PUBLIC        P2
  D:00B0H         PUBLIC        P3
  D:00C0H         PUBLIC        P4
  D:00C8H         PUBLIC        P5
  D:00E8H         PUBLIC        P6
  D:00F8H         PUBLIC        P7
  D:00A8H         PUBLIC        IE
  D:00B8H         PUBLIC        IP
  D:00D8H         PUBLIC        CCON
  C:8DCEH         PUBLIC        Ext_INT0
  D:0098H         PUBLIC        SCON
  D:0088H         PUBLIC        TCON
  B:0088H.1       PUBLIC        IE0
  D:00F0H         PUBLIC        B
  D:00E0H         PUBLIC        ACC
  B:00A8H.0       PUBLIC        EX0
  B:0088H.0       PUBLIC        IT0
  B:00B8H.0       PUBLIC        PX0
  D:00B7H         PUBLIC        IPH
  C:8640H         PUBLIC        _Ext_Inilize
  D:00D0H         PUBLIC        PSW
  -------         PROC          EXT_INT0
  C:8DCEH         LINE#         8
  C:8DEBH         LINE#         11
  C:8DEEH         LINE#         12
  C:8DF3H         LINE#         13
  -------         ENDPROC       EXT_INT0
  -------         PROC          _EXT_INILIZE
  D:0007H         SYMBOL        EXT
  D:0001H         SYMBOL        INTx
  C:8640H         LINE#         51
  C:8640H         LINE#         52
  C:8640H         LINE#         55
  C:8643H         LINE#         56
  C:8643H         LINE#         57
  C:8645H         LINE#         58
  C:8653H         LINE#         59
BL51 BANKED LINKER/LOCATER V6.22.2.0                                                  01/18/2022  14:53:23  PAGE 135


  C:8655H         LINE#         60
  C:866AH         LINE#         61
  C:869FH         LINE#         62
  C:86AAH         LINE#         63
  C:86ACH         LINE#         64
  C:86AFH         LINE#         65
  C:86AFH         LINE#         104
  C:86B1H         LINE#         105
  -------         ENDPROC       _EXT_INILIZE
  -------         ENDMOD        EXTI

  -------         MODULE        SPI
  C:0000H         SYMBOL        _ICE_DUMMY_
  D:0080H         PUBLIC        P0
  D:0090H         PUBLIC        P1
  C:8B9DH         PUBLIC        SPI_Transivion
  D:00A0H         PUBLIC        P2
  D:00B0H         PUBLIC        P3
  D:00C0H         PUBLIC        P4
  D:00C8H         PUBLIC        P5
  D:00E8H         PUBLIC        P6
  D:00F8H         PUBLIC        P7
  D:00CEH         PUBLIC        SPCTL
  D:00A2H         PUBLIC        P_SW1
  D:00A8H         PUBLIC        IE
  B:0023H.4       PUBLIC        B_SPI_Busy
  D:00B8H         PUBLIC        IP
  C:7C48H         PUBLIC        _SPI_Flash_Read
  D:00D8H         PUBLIC        CCON
  D:0098H         PUBLIC        SCON
  D:0088H         PUBLIC        TCON
  B:00F8H.4       PUBLIC        P74
  X:114DH         PUBLIC        SPI_RxCnt
  D:00AFH         PUBLIC        IE2
  D:00F0H         PUBLIC        B
  D:00E0H         PUBLIC        ACC
  X:114EH         PUBLIC        SPI_RxTimerOut
  D:00CDH         PUBLIC        SPSTAT
  C:7B12H         PUBLIC        _SPI_Init
  C:9821H         PUBLIC        _SPI_ReadWriteByte
  X:114FH         PUBLIC        SPI_RxBuffer
  D:00D0H         PUBLIC        PSW
  D:00CFH         PUBLIC        SPDAT
  -------         PROC          _SPI_INIT
  D:0001H         SYMBOL        SPIx
  C:7B12H         LINE#         29
  C:7B12H         LINE#         30
  C:7B12H         LINE#         31
  C:7B21H         LINE#         32
  C:7B24H         LINE#         33
  C:7B30H         LINE#         34
  C:7B33H         LINE#         35
  C:7B42H         LINE#         36
  C:7B45H         LINE#         37
  C:7B52H         LINE#         38
  C:7B55H         LINE#         39
  C:7B64H         LINE#         40
BL51 BANKED LINKER/LOCATER V6.22.2.0                                                  01/18/2022  14:53:23  PAGE 136


  C:7B67H         LINE#         41
  C:7B74H         LINE#         42
  C:7B77H         LINE#         43
  C:7B86H         LINE#         44
  C:7B89H         LINE#         45
  C:7B99H         LINE#         46
  C:7BA7H         LINE#         48
  C:7BACH         LINE#         49
  C:7BAEH         LINE#         50
  -------         ENDPROC       _SPI_INIT
  -------         PROC          SPI_TRANSIVION
  C:8B9DH         LINE#         96
  C:8BAAH         LINE#         98
  C:8BAFH         LINE#         99
  C:8BAFH         LINE#         100
  C:8BB1H         LINE#         101
  C:8BB3H         LINE#         103
  C:8BB3H         LINE#         104
  C:8BC2H         LINE#         105
  C:8BD6H         LINE#         106
  C:8BDCH         LINE#         107
  C:8BDCH         LINE#         108
  C:8BDFH         LINE#         109
  -------         ENDPROC       SPI_TRANSIVION
  -------         PROC          L?0028
  -------         ENDPROC       L?0028
  -------         PROC          _SPI_READWRITEBYTE
  D:0007H         SYMBOL        dat
  C:9821H         LINE#         111
  C:9821H         LINE#         112
  C:9821H         LINE#         113
  C:9823H         LINE#         114
  C:9825H         LINE#         115
  C:9828H         LINE#         116
  C:982AH         LINE#         117
  C:982AH         LINE#         118
  -------         ENDPROC       _SPI_READWRITEBYTE
  -------         PROC          _SPI_FLASH_READ
  X:112CH         SYMBOL        pBuffer
  X:112FH         SYMBOL        ReadAddr
  X:1133H         SYMBOL        NumByteToRead
  -------         DO            
  X:1135H         SYMBOL        i
  X:1137H         SYMBOL        tmp
  -------         ENDDO         
  C:7C48H         LINE#         139
  C:7C57H         LINE#         140
  C:7C57H         LINE#         141
  C:7C57H         LINE#         142
  C:7C59H         LINE#         143
  C:7C60H         LINE#         144
  C:7C65H         LINE#         145
  C:7C6AH         LINE#         146
  C:7C6FH         LINE#         147
  C:7C7AH         LINE#         148
  C:7C96H         LINE#         149
  C:7C96H         LINE#         150
BL51 BANKED LINKER/LOCATER V6.22.2.0                                                  01/18/2022  14:53:23  PAGE 137


  C:7CA7H         LINE#         151
  C:7CCEH         LINE#         152
  C:7CDEH         LINE#         153
  C:7CE0H         LINE#         154
  -------         ENDPROC       _SPI_FLASH_READ
  -------         ENDMOD        SPI

  -------         MODULE        ?C?COPY
  C:09B6H         PUBLIC        ?C?COPY
  -------         ENDMOD        ?C?COPY

  -------         MODULE        ?C?CLDPTR
  C:09DCH         PUBLIC        ?C?CLDPTR
  -------         ENDMOD        ?C?CLDPTR

  -------         MODULE        ?C?CLDOPTR
  C:09F5H         PUBLIC        ?C?CLDOPTR
  -------         ENDMOD        ?C?CLDOPTR

  -------         MODULE        ?C?CSTPTR
  C:0A22H         PUBLIC        ?C?CSTPTR
  -------         ENDMOD        ?C?CSTPTR

  -------         MODULE        ?C?CSTOPTR
  C:0A34H         PUBLIC        ?C?CSTOPTR
  -------         ENDMOD        ?C?CSTOPTR

  -------         MODULE        ?C?IMUL
  C:0A56H         PUBLIC        ?C?IMUL
  -------         ENDMOD        ?C?IMUL

  -------         MODULE        ?C?UIDIV
  C:0A68H         PUBLIC        ?C?UIDIV
  -------         ENDMOD        ?C?UIDIV

  -------         MODULE        ?C?IILDX
  C:0ABDH         PUBLIC        ?C?IILDX
  -------         ENDMOD        ?C?IILDX

  -------         MODULE        ?C?ILDIX
  C:0AD3H         PUBLIC        ?C?ILDIX
  -------         ENDMOD        ?C?ILDIX

  -------         MODULE        ?C?ILDPTR
  C:0AE9H         PUBLIC        ?C?ILDPTR
  -------         ENDMOD        ?C?ILDPTR

  -------         MODULE        ?C?ILDOPTR
  C:0B14H         PUBLIC        ?C?ILDOPTR
  -------         ENDMOD        ?C?ILDOPTR

  -------         MODULE        ?C?LMUL
  C:0B4CH         PUBLIC        ?C?LMUL
  -------         ENDMOD        ?C?LMUL

  -------         MODULE        ?C?ULDIV
  C:0BD7H         PUBLIC        ?C?ULDIV
BL51 BANKED LINKER/LOCATER V6.22.2.0                                                  01/18/2022  14:53:23  PAGE 138


  -------         ENDMOD        ?C?ULDIV

  -------         MODULE        ?C?ULCMP
  C:0C69H         PUBLIC        ?C?ULCMP
  -------         ENDMOD        ?C?ULCMP

  -------         MODULE        ?C?ULSHR
  C:0C7AH         PUBLIC        ?C?ULSHR
  -------         ENDMOD        ?C?ULSHR

  -------         MODULE        ?C?LSHL
  C:0C8DH         PUBLIC        ?C?LSHL
  -------         ENDMOD        ?C?LSHL

  -------         MODULE        ?C?LLDOPTR
  C:0CA0H         PUBLIC        ?C?LLDOPTR
  -------         ENDMOD        ?C?LLDOPTR

  -------         MODULE        ?C?LLDOPTR0
  C:0CD0H         PUBLIC        ?C?LLDOPTR0
  -------         ENDMOD        ?C?LLDOPTR0

  -------         MODULE        ?C?LSTXDATA
  C:0D00H         PUBLIC        ?C?LSTXDATA
  -------         ENDMOD        ?C?LSTXDATA

  -------         MODULE        ?C?LSTKXDATA
  C:0D0CH         PUBLIC        ?C?LSTKXDATA
  -------         ENDMOD        ?C?LSTKXDATA

  -------         MODULE        ?C?OFFXADD
  C:0D3DH         PUBLIC        ?C?OFFXADD
  -------         ENDMOD        ?C?OFFXADD

  -------         MODULE        ?C?CCASE
  C:0D49H         PUBLIC        ?C?CCASE
  -------         ENDMOD        ?C?CCASE

  -------         MODULE        ?C?ICALL
  C:0D6FH         PUBLIC        ?C?ICALL
  C:0D73H         PUBLIC        ?C?ICALL2
  -------         ENDMOD        ?C?ICALL

  -------         MODULE        PRINTF
  X:1124H         PUBLIC        ?_PRINTF517?BYTE
  X:1124H         PUBLIC        ?_PRINTF?BYTE
  X:1124H         PUBLIC        ?_SPRINTF517?BYTE
  X:1124H         PUBLIC        ?_SPRINTF?BYTE
  C:2F17H         PUBLIC        _PRINTF
  C:2F17H         PUBLIC        _PRINTF517
  C:2F11H         PUBLIC        _SPRINTF
  C:2F11H         PUBLIC        _SPRINTF517
  -------         ENDMOD        PRINTF

  -------         MODULE        SCANF
  X:10D5H         PUBLIC        ?_SCANF517?BYTE
  X:10D5H         PUBLIC        ?_SCANF?BYTE
BL51 BANKED LINKER/LOCATER V6.22.2.0                                                  01/18/2022  14:53:23  PAGE 139


  X:10D5H         PUBLIC        ?_SSCANF517?BYTE
  X:10D5H         PUBLIC        ?_SSCANF?BYTE
  C:3C5AH         PUBLIC        _SCANF
  C:3C5AH         PUBLIC        _SCANF517
  C:3C56H         PUBLIC        _SSCANF
  C:3C56H         PUBLIC        _SSCANF517
  -------         ENDMOD        SCANF

  -------         MODULE        ?C?ISTPTR
  C:0D75H         PUBLIC        ?C?ISTPTR
  -------         ENDMOD        ?C?ISTPTR

  -------         MODULE        ?C?LNEG
  C:0D94H         PUBLIC        ?C?LNEG
  -------         ENDMOD        ?C?LNEG

  -------         MODULE        ?C?LSTPTR
  C:0DA2H         PUBLIC        ?C?LSTPTR
  -------         ENDMOD        ?C?LSTPTR

  -------         MODULE        ?C?LLDIDATA
  C:0DBCH         PUBLIC        ?C?LLDIDATA
  -------         ENDMOD        ?C?LLDIDATA

  -------         MODULE        ?C?LLDXDATA
  C:0DC8H         PUBLIC        ?C?LLDXDATA
  -------         ENDMOD        ?C?LLDXDATA

  -------         MODULE        ?C?LLDPDATA
  C:0DD4H         PUBLIC        ?C?LLDPDATA
  -------         ENDMOD        ?C?LLDPDATA

  -------         MODULE        ?C?LLDCODE
  C:0DE0H         PUBLIC        ?C?LLDCODE
  -------         ENDMOD        ?C?LLDCODE

  -------         MODULE        ?C?LLDIDATA0
  C:0DF0H         PUBLIC        ?C?LLDIDATA0
  -------         ENDMOD        ?C?LLDIDATA0

  -------         MODULE        ?C?LLDXDATA0
  C:0DFDH         PUBLIC        ?C?LLDXDATA0
  -------         ENDMOD        ?C?LLDXDATA0

  -------         MODULE        ?C?LLDPDATA0
  C:0E09H         PUBLIC        ?C?LLDPDATA0
  -------         ENDMOD        ?C?LLDPDATA0

  -------         MODULE        ?C?LLDCODE0
  C:0E16H         PUBLIC        ?C?LLDCODE0
  -------         ENDMOD        ?C?LLDCODE0

  -------         MODULE        ?C?PLDXDATA
  C:0E26H         PUBLIC        ?C?PLDXDATA
  -------         ENDMOD        ?C?PLDXDATA

  -------         MODULE        ?C?PLDIXDATA
BL51 BANKED LINKER/LOCATER V6.22.2.0                                                  01/18/2022  14:53:23  PAGE 140


  C:0E2FH         PUBLIC        ?C?PLDIXDATA
  -------         ENDMOD        ?C?PLDIXDATA

  -------         MODULE        ?C?PILDXDATA
  C:0E46H         PUBLIC        ?C?PILDXDATA
  -------         ENDMOD        ?C?PILDXDATA

  -------         MODULE        ?C?PSTXDATA
  C:0E5DH         PUBLIC        ?C?PSTXDATA
  -------         ENDMOD        ?C?PSTXDATA

  -------         MODULE        GETCHAR
  B:0023H.5       PUBLIC        ?C?CHARLOADED
  X:13A4H         PUBLIC        ?_UNGETCHAR?BYTE
  C:9A2AH         PUBLIC        GETCHAR
  -------         ENDMOD        GETCHAR

  -------         MODULE        UNGETC
  C:9B76H         PUBLIC        _UNGETCHAR
  -------         ENDMOD        UNGETC

  -------         MODULE        ISSPACE
  C:9A3EH         PUBLIC        _isspace
  -------         ENDMOD        ISSPACE

  -------         MODULE        ?C?LSTIDATA
  C:0E66H         PUBLIC        ?C?LSTIDATA
  -------         ENDMOD        ?C?LSTIDATA

  -------         MODULE        ?C?LSTPDATA
  C:0E72H         PUBLIC        ?C?LSTPDATA
  -------         ENDMOD        ?C?LSTPDATA

  -------         MODULE        _GETKEY
  C:9B63H         PUBLIC        _GETKEY
  -------         ENDMOD        _GETKEY

*** WARNING L16: UNCALLED SEGMENT, IGNORED FOR OVERLAY PROCESS
    SEGMENT: ?PR?_DISPLAYCSQ?LCD12864

*** WARNING L16: UNCALLED SEGMENT, IGNORED FOR OVERLAY PROCESS
    SEGMENT: ?PR?_ATCMDCB_CLCC?GSM

*** WARNING L16: UNCALLED SEGMENT, IGNORED FOR OVERLAY PROCESS
    SEGMENT: ?PR?_GETPSWBYROOM?UNLOCKPASSWORD

Program Size: data=17.6 xdata=5029 code=39793
LINK/LOCATE RUN COMPLETE.  3 WARNING(S),  0 ERROR(S)
