BL51 BANKED LINKER/LOCATER V6.22.2.0                                                    06/01/2022  09:37:04  PAGE 1


BL51 BANKED LINKER/LOCATER V6.22.2.0, INVOKED BY:
D:\KEIL-C51\C51\BIN\BL51.EXE .\Objects\STARTUP.obj, .\Objects\main.obj, .\Objects\Driver.obj, .\Objects\LCD12864.obj, .\
>> Objects\GSM.obj, .\Objects\NameList.obj, .\Objects\Eeprom.obj, .\Objects\SysStatus.obj, .\Objects\UnlockPassword.obj,
>>  .\Objects\SysString.obj, .\Objects\Card.obj, .\Objects\CardRead.obj, .\Objects\Audio.obj, .\Objects\UART.obj, .\Obje
>> cts\timer.obj, .\Objects\GPIO.obj, .\Objects\Exti.obj, .\Objects\spi.obj TO .\Objects\GSM PRINT (.\Listings\GSM.m51) 
>> RAMSIZE (256)


MEMORY MODEL: LARGE


INPUT MODULES INCLUDED:
  .\Objects\STARTUP.obj (?C_STARTUP)
  .\Objects\main.obj (MAIN)
  .\Objects\Driver.obj (DRIVER)
  .\Objects\LCD12864.obj (LCD12864)
  .\Objects\GSM.obj (GSM)
  .\Objects\NameList.obj (NAMELIST)
  .\Objects\Eeprom.obj (EEPROM)
  .\Objects\SysStatus.obj (SYSSTATUS)
  .\Objects\UnlockPassword.obj (UNLOCKPASSWORD)
  .\Objects\SysString.obj (SYSSTRING)
  .\Objects\Card.obj (CARD)
  .\Objects\CardRead.obj (CARDREAD)
  .\Objects\Audio.obj (AUDIO)
  .\Objects\UART.obj (UART)
  .\Objects\timer.obj (TIMER)
  .\Objects\GPIO.obj (GPIO)
  .\Objects\Exti.obj (EXTI)
  .\Objects\spi.obj (SPI)
  D:\KEIL-C51\C51\LIB\C51L.LIB (?C_INIT)
  D:\KEIL-C51\C51\LIB\C51L.LIB (?C?COPY)
  D:\KEIL-C51\C51\LIB\C51L.LIB (?C?CLDPTR)
  D:\KEIL-C51\C51\LIB\C51L.LIB (?C?CLDOPTR)
  D:\KEIL-C51\C51\LIB\C51L.LIB (?C?CSTPTR)
  D:\KEIL-C51\C51\LIB\C51L.LIB (?C?CSTOPTR)
  D:\KEIL-C51\C51\LIB\C51L.LIB (?C?IMUL)
  D:\KEIL-C51\C51\LIB\C51L.LIB (?C?UIDIV)
  D:\KEIL-C51\C51\LIB\C51L.LIB (?C?IILDX)
  D:\KEIL-C51\C51\LIB\C51L.LIB (?C?ILDIX)
  D:\KEIL-C51\C51\LIB\C51L.LIB (?C?ILDPTR)
  D:\KEIL-C51\C51\LIB\C51L.LIB (?C?ILDOPTR)
  D:\KEIL-C51\C51\LIB\C51L.LIB (?C?LMUL)
  D:\KEIL-C51\C51\LIB\C51L.LIB (?C?ULDIV)
  D:\KEIL-C51\C51\LIB\C51L.LIB (?C?ULCMP)
  D:\KEIL-C51\C51\LIB\C51L.LIB (?C?ULSHR)
  D:\KEIL-C51\C51\LIB\C51L.LIB (?C?LSHL)
  D:\KEIL-C51\C51\LIB\C51L.LIB (?C?LLDOPTR)
  D:\KEIL-C51\C51\LIB\C51L.LIB (?C?LLDOPTR0)
  D:\KEIL-C51\C51\LIB\C51L.LIB (?C?LSTXDATA)
  D:\KEIL-C51\C51\LIB\C51L.LIB (?C?LSTKXDATA)
  D:\KEIL-C51\C51\LIB\C51L.LIB (?C?OFFXADD)
  D:\KEIL-C51\C51\LIB\C51L.LIB (?C?CCASE)
  D:\KEIL-C51\C51\LIB\C51L.LIB (?C?ICALL)
  D:\KEIL-C51\C51\LIB\C51L.LIB (PRINTF)
  D:\KEIL-C51\C51\LIB\C51L.LIB (SCANF)
  D:\KEIL-C51\C51\LIB\C51L.LIB (?C?ISTPTR)
  D:\KEIL-C51\C51\LIB\C51L.LIB (?C?LNEG)
BL51 BANKED LINKER/LOCATER V6.22.2.0                                                  06/01/2022  09:37:04  PAGE 2


  D:\KEIL-C51\C51\LIB\C51L.LIB (?C?LSTPTR)
  D:\KEIL-C51\C51\LIB\C51L.LIB (?C?LLDIDATA)
  D:\KEIL-C51\C51\LIB\C51L.LIB (?C?LLDXDATA)
  D:\KEIL-C51\C51\LIB\C51L.LIB (?C?LLDPDATA)
  D:\KEIL-C51\C51\LIB\C51L.LIB (?C?LLDCODE)
  D:\KEIL-C51\C51\LIB\C51L.LIB (?C?LLDIDATA0)
  D:\KEIL-C51\C51\LIB\C51L.LIB (?C?LLDXDATA0)
  D:\KEIL-C51\C51\LIB\C51L.LIB (?C?LLDPDATA0)
  D:\KEIL-C51\C51\LIB\C51L.LIB (?C?LLDCODE0)
  D:\KEIL-C51\C51\LIB\C51L.LIB (?C?PLDXDATA)
  D:\KEIL-C51\C51\LIB\C51L.LIB (?C?PLDIXDATA)
  D:\KEIL-C51\C51\LIB\C51L.LIB (?C?PILDXDATA)
  D:\KEIL-C51\C51\LIB\C51L.LIB (?C?PSTXDATA)
  D:\KEIL-C51\C51\LIB\C51L.LIB (GETCHAR)
  D:\KEIL-C51\C51\LIB\C51L.LIB (UNGETC)
  D:\KEIL-C51\C51\LIB\C51L.LIB (ISSPACE)
  D:\KEIL-C51\C51\LIB\C51L.LIB (?C?LSTIDATA)
  D:\KEIL-C51\C51\LIB\C51L.LIB (?C?LSTPDATA)
  D:\KEIL-C51\C51\LIB\C51L.LIB (_GETKEY)


LINK MAP OF MODULE:  .\Objects\GSM (?C_STARTUP)


            TYPE    BASE      LENGTH    RELOCATION   SEGMENT NAME
            -----------------------------------------------------

            * * * * * * *   D A T A   M E M O R Y   * * * * * * *
            REG     0000H     0008H     ABSOLUTE     "REG BANK 0"
            DATA    0008H     0005H     UNIT         _DATA_GROUP_
                    000DH     0013H                  *** GAP ***
            BIT     0020H.0   0001H.2   UNIT         _BIT_GROUP_
            BIT     0021H.2   0000H.3   UNIT         ?BI?GSM
            BIT     0021H.5   0000H.3   UNIT         ?BI?UNLOCKPASSWORD
            BIT     0022H.0   0000H.3   UNIT         ?BI?CARDREAD
            BIT     0022H.3   0000H.3   UNIT         ?BI?AUDIO
            BIT     0022H.6   0000H.2   UNIT         ?BI?LCD12864
            BIT     0023H.0   0000H.2   UNIT         ?BI?CARD
            BIT     0023H.2   0000H.1   UNIT         ?BI?NAMELIST
            BIT     0023H.3   0000H.1   UNIT         ?BI?TIMER
            BIT     0023H.4   0000H.1   UNIT         ?BI?SPI
            BIT     0023H.5   0000H.1   UNIT         ?BI?GETCHAR
                    0023H.6   0000H.2                *** GAP ***
            IDATA   0024H     0001H     UNIT         ?STACK

            * * * * * * *  X D A T A   M E M O R Y  * * * * * * *
            XDATA   0000H     089EH     UNIT         ?XD?AUDIO
            XDATA   089EH     0406H     UNIT         ?XD?LCD12864
            XDATA   0CA4H     03D8H     UNIT         ?XD?UART
            XDATA   107CH     00D1H     UNIT         _XDATA_GROUP_
            XDATA   114DH     0082H     UNIT         ?XD?SPI
            XDATA   11CFH     007AH     UNIT         ?XD?SYSSTATUS
            XDATA   1249H     0074H     UNIT         ?XD?GSM
            XDATA   12BDH     0056H     UNIT         ?XD?NAMELIST
            XDATA   1313H     0052H     UNIT         ?XD?CARDREAD
            XDATA   1365H     0014H     UNIT         ?XD?SYSSTRING
            XDATA   1379H     000CH     UNIT         ?XD?UNLOCKPASSWORD
BL51 BANKED LINKER/LOCATER V6.22.2.0                                                  06/01/2022  09:37:04  PAGE 3


            XDATA   1385H     000BH     UNIT         ?XD?DRIVER
            XDATA   1390H     0008H     UNIT         ?XD?CARD
            XDATA   1398H     0005H     UNIT         ?XD?_GETPSWBYROOM?UNLOCKPASSWORD
            XDATA   139DH     0003H     UNIT         ?XD?MAIN
            XDATA   13A0H     0003H     UNIT         ?XD?_DISPLAYCSQ?LCD12864
            XDATA   13A3H     0001H     UNIT         ?XD?TIMER
            XDATA   13A4H     0001H     UNIT         ?XD?GETCHAR

            * * * * * * *   C O D E   M E M O R Y   * * * * * * *
            CODE    0000H     0003H     ABSOLUTE     
            CODE    0003H     0003H     ABSOLUTE     
                    0006H     0005H                  *** GAP ***
            CODE    000BH     0003H     ABSOLUTE     
            CODE    000EH     000AH     UNIT         ?PR?CLEARNAMELIST?NAMELIST
                    0018H     0003H                  *** GAP ***
            CODE    001BH     0003H     ABSOLUTE     
                    001EH     0005H                  *** GAP ***
            CODE    0023H     0003H     ABSOLUTE     
            CODE    0026H     0025H     UNIT         ?PR?EDITNAMEITEMCON?NAMELIST
            CODE    004BH     0003H     ABSOLUTE     
            CODE    004EH     003DH     UNIT         ?PR?TIMER0_INT?TIMER
            CODE    008BH     0003H     ABSOLUTE     
            CODE    008EH     0015H     UNIT         ?PR?IIC_NACK?EEPROM
            CODE    00A3H     0003H     ABSOLUTE     
            CODE    00A6H     0840H     UNIT         ?CO?LCD12864
            CODE    08E6H     0598H     UNIT         ?C?LIB_CODE
            CODE    0E7EH     04E4H     UNIT         ?PR?_REVNAMELIST?NAMELIST
            CODE    1362H     04E1H     UNIT         ?PR?CHECKRFIDCARD?CARDREAD
            CODE    1843H     0485H     UNIT         ?CO?SYSSTRING
            CODE    1CC8H     047EH     UNIT         ?PR?_NAMEEDITKEY?NAMELIST
            CODE    2146H     044CH     UNIT         ?PR?_UART_CONFIGURATION?UART
            CODE    2592H     0425H     UNIT         ?PR?_PSWEDITKEY?UNLOCKPASSWORD
            CODE    29B7H     0404H     UNIT         ?PR?_MODEMRECEIVEHANDLE?GSM
            CODE    2DBBH     0365H     UNIT         ?PR?PRINTF?PRINTF
            CODE    3120H     035DH     UNIT         ?CO?GSM
            CODE    347DH     032DH     UNIT         ?PR?GSM_INITTASK?GSM
            CODE    37AAH     0326H     UNIT         ?PR?_SHOWPSW?UNLOCKPASSWORD
            CODE    3AD0H     0322H     UNIT         ?PR?SCANF?SCANF
            CODE    3DF2H     02C1H     UNIT         ?PR?_SYSPSWEDITKEY?UNLOCKPASSWORD
            CODE    40B3H     0273H     UNIT         ?PR?_SHOWNAME?NAMELIST
            CODE    4326H     0254H     UNIT         ?PR?_GPIO_INILIZE?GPIO
            CODE    457AH     0252H     UNIT         ?PR?_SHOWCARD?CARD
            CODE    47CCH     023CH     UNIT         ?C_INITSEG
            CODE    4A08H     022FH     UNIT         ?PR?_NAMEDELETEKEY?NAMELIST
            CODE    4C37H     0222H     UNIT         ?PR?MAIN?MAIN
            CODE    4E59H     01F0H     UNIT         ?PR?_TIMER_INILIZE?TIMER
            CODE    5049H     01E5H     UNIT         ?PR?SHOWSUBPARA?SYSSTATUS
            CODE    522EH     01CEH     UNIT         ?PR?_SAVESUBPARA?SYSSTATUS
            CODE    53FCH     01B8H     UNIT         ?PR?_CARDDELETEKEY?CARD
            CODE    55B4H     01B2H     UNIT         ?PR?_CARDEDITKEY?CARD
            CODE    5766H     01AAH     UNIT         ?PR?_PSWDELETEKEY?UNLOCKPASSWORD
            CODE    5910H     0188H     UNIT         ?PR?_SYSSUBSETKEY?SYSSTATUS
            CODE    5A98H     0183H     UNIT         ?PR?WAVREADTASK?AUDIO
            CODE    5C1BH     017DH     UNIT         ?PR?_SYSKEY?SYSSTATUS
            CODE    5D98H     017AH     UNIT         ?PR?_ATCMDCB_CPIN?GSM
            CODE    5F12H     0172H     UNIT         ?PR?_SUBSETCON?SYSSTATUS
            CODE    6084H     0170H     UNIT         ?PR?_ATCMDCB_CREG?GSM
BL51 BANKED LINKER/LOCATER V6.22.2.0                                                  06/01/2022  09:37:04  PAGE 4


            CODE    61F4H     0169H     UNIT         ?PR?_ATCMDCB_CSQ?GSM
            CODE    635DH     014DH     UNIT         ?PR?_WRITELCD?LCD12864
            CODE    64AAH     0148H     UNIT         ?PR?_PSWINPUTKEY?UNLOCKPASSWORD
            CODE    65F2H     0147H     UNIT         ?PR?_SYSIDLEKEY?SYSSTATUS
            CODE    6739H     0142H     UNIT         ?PR?SKEYSCAN?DRIVER
            CODE    687BH     012FH     UNIT         ?PR?INITSYSPARA?SYSSTATUS
            CODE    69AAH     0121H     UNIT         ?PR?_GSMUARTCMD?GSM
            CODE    6ACBH     011EH     UNIT         ?PR?KEYSCAN?DRIVER
            CODE    6BE9H     010DH     UNIT         ?PR?CARDIRQ?CARDREAD
            CODE    6CF6H     0100H     UNIT         ?PR?_INPUTSYSPSW?SYSSTATUS
            CODE    6DF6H     00FDH     UNIT         ?CO?NAMELIST
            CODE    6EF3H     00FCH     UNIT         ?PR?_SYSINPUTROOM?SYSSTATUS
            CODE    6FEFH     00F8H     UNIT         ?PR?_LOOKFORSTR?DRIVER
            CODE    70E7H     00ECH     UNIT         ?PR?_CALLBYNAMEITEM?NAMELIST
            CODE    71D3H     00E8H     UNIT         ?PR?GPIO_CONFIG?DRIVER
            CODE    72BBH     00DEH     UNIT         ?PR?_ADDCARDITEM?CARD
            CODE    7399H     00CFH     UNIT         ?PR?_SYSSETTINGKEY?SYSSTATUS
            CODE    7468H     00CBH     UNIT         ?CO?SYSSTATUS
            CODE    7533H     00C0H     UNIT         ?PR?NAMEEDITCHAGETYPE?NAMELIST
            CODE    75F3H     00A1H     UNIT         ?PR?INITUSERPARA?SYSSTATUS
            CODE    7694H     00A0H     UNIT         ?PR?_CHECKCARD?CARD
            CODE    7734H     009EH     UNIT         ?PR?_SHOWMAIN?SYSSTRING
            CODE    77D2H     009AH     UNIT         ?PR?UART3_INT?UART
            CODE    786CH     0099H     UNIT         ?PR?_SPI_FLASH_READ?SPI
            CODE    7905H     0098H     UNIT         ?PR?_SPI_INIT?SPI
            CODE    799DH     0095H     UNIT         ?PR?_MP3_STARTPLAY?AUDIO
            CODE    7A32H     008EH     UNIT         ?PR?UART1_INT?UART
            CODE    7AC0H     008CH     UNIT         ?C_C51STARTUP
            CODE    7B4CH     008BH     UNIT         ?PR?_DISPLAYFL?LCD12864
            CODE    7BD7H     008BH     UNIT         ?PR?NAMESETCON?NAMELIST
            CODE    7C62H     008BH     UNIT         ?PR?_WRITEBUF_AT24C02?EEPROM
            CODE    7CEDH     008BH     UNIT         ?PR?PSWSETCON?UNLOCKPASSWORD
            CODE    7D78H     008BH     UNIT         ?PR?CARDSETCON?CARD
            CODE    7E03H     0085H     UNIT         ?PR?_GETIDXBYROOM?SYSSTATUS
            CODE    7E88H     0085H     UNIT         ?PR?SHOWGSMCSQ?SYSSTRING
            CODE    7F0DH     0083H     UNIT         ?PR?_GSM_SETVOLUM?GSM
            CODE    7F90H     0083H     UNIT         ?PR?SHOWINPUTPSW?SYSSTATUS
            CODE    8013H     0080H     UNIT         ?PR?_ADDPSWITEM?UNLOCKPASSWORD
            CODE    8093H     007CH     UNIT         ?PR?_BITBLT?LCD12864
            CODE    810FH     0078H     UNIT         ?PR?_CHECKPSW?UNLOCKPASSWORD
            CODE    8187H     0077H     UNIT         ?PR?_ADDNAMEITEM?NAMELIST
            CODE    81FEH     0077H     UNIT         ?PR?PWMTASK?AUDIO
            CODE    8275H     0070H     UNIT         ?PR?_WRITELCDICO?LCD12864
            CODE    82E5H     006FH     UNIT         ?PR?_DELNAMEITEMBYIDX?NAMELIST
            CODE    8354H     006FH     UNIT         ?PR?_DELPSWBYIDX?UNLOCKPASSWORD
            CODE    83C3H     006FH     UNIT         ?PR?_DELCARDBYIDX?CARD
            CODE    8432H     006BH     UNIT         ?PR?_DISPLAYCSQ?LCD12864
            CODE    849DH     006BH     UNIT         ?PR?_SYSCARD?SYSSTATUS
            CODE    8508H     0067H     UNIT         ?PR?SHOWINPUTROOM?SYSSTATUS
            CODE    856FH     0064H     UNIT         ?PR?_GSM_CALL?GSM
            CODE    85D3H     0063H     UNIT         ?PR?_READBUF_AT24C02?EEPROM
            CODE    8636H     0063H     UNIT         ?PR?_EXT_INILIZE?EXTI
            CODE    8699H     005AH     UNIT         ?PR?_HS_STRCPY?DRIVER
            CODE    86F3H     0056H     UNIT         ?PR?UART_CONFIG?DRIVER
            CODE    8749H     0056H     UNIT         ?PR?_BEEP_STARTPLAY?AUDIO
            CODE    879FH     0054H     UNIT         ?PR?_READROOMBYIDX?SYSSTATUS
            CODE    87F3H     004FH     UNIT         ?PR?TIMER_CONFIG?DRIVER
BL51 BANKED LINKER/LOCATER V6.22.2.0                                                  06/01/2022  09:37:04  PAGE 5


            CODE    8842H     004BH     UNIT         ?PR?_SYSTALKKEY?SYSSTATUS
            CODE    888DH     0049H     UNIT         ?PR?_GETNAMEITEMBYROOM?NAMELIST
            CODE    88D6H     0049H     UNIT         ?PR?_GETPSWBYROOM?UNLOCKPASSWORD
            CODE    891FH     0049H     UNIT         ?PR?SPI_TRANSIVION?SPI
            CODE    8968H     0048H     UNIT         ?PR?UARTTASK?UART
            CODE    89B0H     0044H     UNIT         ?PR?_HS_MEMCPY?DRIVER
            CODE    89F4H     0043H     UNIT         ?PR?SHOWTALKTIME?SYSSTRING
            CODE    8A37H     0040H     UNIT         ?PR?KEYBEEPTASK?AUDIO
            CODE    8A77H     0040H     UNIT         ?PR?EXT_INT0?EXTI
            CODE    8AB7H     003BH     UNIT         ?PR?_WRITENAMEITEMBYIDX?NAMELIST
            CODE    8AF2H     003BH     UNIT         ?PR?_CARDEDITCARDIN?CARD
            CODE    8B2DH     003BH     UNIT         ?PR?TIMER4_INT?TIMER
            CODE    8B68H     0039H     UNIT         ?PR?_IIC_SEND_BYTE?EEPROM
            CODE    8BA1H     0038H     UNIT         ?PR?SYSSETTINGCON?SYSSTATUS
            CODE    8BD9H     0037H     UNIT         ?CO?AUDIO
            CODE    8C10H     0035H     UNIT         ?CO?DRIVER
            CODE    8C45H     0033H     UNIT         ?PR?DELETECARDCON?CARD
            CODE    8C78H     0033H     UNIT         ?PR?_PRINTSTRING3?UART
            CODE    8CABH     0032H     UNIT         ?PR?FLASHTASK?LCD12864
            CODE    8CDDH     0032H     UNIT         ?PR?CARDMSTASK?CARDREAD
            CODE    8D0FH     0031H     UNIT         ?PR?_WRITECARDBYIDX?CARD
            CODE    8D40H     0031H     UNIT         ?PR?_READCARDBYIDX?CARD
            CODE    8D71H     0030H     UNIT         ?PR?_READNAMEITEMBYIDX?NAMELIST
            CODE    8DA1H     002FH     UNIT         ?PR?_ATCMDCB_AT?GSM
            CODE    8DD0H     002FH     UNIT         ?PR?_ATCMDCB_CLCC?GSM
            CODE    8DFFH     002FH     UNIT         ?PR?_INPUTROOMCON?SYSSTATUS
            CODE    8E2EH     002FH     UNIT         ?PR?MP3_STOP?AUDIO
            CODE    8E5DH     002EH     UNIT         ?PR?_MEMISEMPTY?DRIVER
            CODE    8E8BH     002EH     UNIT         ?PR?IIC_READ_BYTE?EEPROM
            CODE    8EB9H     002CH     UNIT         ?PR?_CLEARBUF?DRIVER
            CODE    8EE5H     002CH     UNIT         ?PR?TIMER1_INT?TIMER
            CODE    8F11H     002BH     UNIT         ?PR?_GSM_SEND_DTMF?GSM
            CODE    8F3CH     002AH     UNIT         ?PR?GSM_GETCSQ?GSM
            CODE    8F66H     0029H     UNIT         ?PR?SYSIDLECON?SYSSTATUS
            CODE    8F8FH     0029H     UNIT         ?PR?_DELCARDBYCARD?CARD
            CODE    8FB8H     0029H     UNIT         ?PR?SPI_CONFIG?AUDIO
            CODE    8FE1H     0028H     UNIT         ?PR?_WRITEPSWBYIDX?UNLOCKPASSWORD
            CODE    9009H     0028H     UNIT         ?PR?PWM_CONFIG?AUDIO
            CODE    9031H     0028H     UNIT         ?PR?_TX3_WRITE2BUFF?UART
            CODE    9059H     0027H     UNIT         ?PR?_TX1_WRITE2BUFF?UART
            CODE    9080H     0026H     UNIT         ?PR?_DELAY?DRIVER
            CODE    90A6H     0026H     UNIT         ?PR?_STRLEN?DRIVER
            CODE    90CCH     0025H     UNIT         ?PR?DELETENAMECON?NAMELIST
            CODE    90F1H     0025H     UNIT         ?PR?IIC_ACK?EEPROM
            CODE    9116H     0025H     UNIT         ?PR?_DELPSWBYROOM?UNLOCKPASSWORD
            CODE    913BH     0025H     UNIT         ?PR?EDITPSWCON?UNLOCKPASSWORD
            CODE    9160H     0025H     UNIT         ?PR?DELETEPSWCON?UNLOCKPASSWORD
            CODE    9185H     0025H     UNIT         ?PR?EDITSYSPSWCON?UNLOCKPASSWORD
            CODE    91AAH     0025H     UNIT         ?PR?_DELCARDBYROOM?CARD
            CODE    91CFH     0025H     UNIT         ?PR?EDITCARDCON?CARD
            CODE    91F4H     0024H     UNIT         ?CO?MAIN
            CODE    9218H     0024H     UNIT         ?PR?INIT_12864?LCD12864
            CODE    923CH     0024H     UNIT         ?PR?GSM_REPOWER?GSM
            CODE    9260H     0024H     UNIT         ?PR?INPUTPSWCON?UNLOCKPASSWORD
            CODE    9284H     0024H     UNIT         ?CO?UNLOCKPASSWORD
            CODE    92A8H     0023H     UNIT         ?PR?SAVENAMECOUNT?NAMELIST
            CODE    92CBH     0023H     UNIT         ?PR?SAVEPSWCOUNT?UNLOCKPASSWORD
BL51 BANKED LINKER/LOCATER V6.22.2.0                                                  06/01/2022  09:37:04  PAGE 6


            CODE    92EEH     0023H     UNIT         ?PR?SAVECARDCOUNT?CARD
            CODE    9311H     0022H     UNIT         ?PR?_LCD_WDAT?LCD12864
            CODE    9333H     0022H     UNIT         ?PR?GSM_STARTINIT?GSM
            CODE    9355H     0022H     UNIT         ?PR?_SHOWNAMEBYIDX?NAMELIST
            CODE    9377H     0021H     UNIT         ?PR?_NAMESETKEY?NAMELIST
            CODE    9398H     0021H     UNIT         ?PR?_PSWSETKEY?UNLOCKPASSWORD
            CODE    93B9H     0021H     UNIT         ?PR?_CARDSETKEY?CARD
            CODE    93DAH     0020H     UNIT         ?PR?_UNLOCK?DRIVER
            CODE    93FAH     0020H     UNIT         ?CO?CARDREAD
            CODE    941AH     001DH     UNIT         ?PR?LCD_BUSY?LCD12864
            CODE    9437H     001DH     UNIT         ?PR?_CHECKUNICODE?LCD12864
            CODE    9454H     001DH     UNIT         ?PR?INPUTSYSPSWCON?SYSSTATUS
            CODE    9471H     001DH     UNIT         ?PR?_READPSWBYIDX?UNLOCKPASSWORD
            CODE    948EH     001DH     UNIT         ?PR?SAVESYSPSW?UNLOCKPASSWORD
            CODE    94ABH     001BH     UNIT         ?PR?LCDCLEAR?LCD12864
            CODE    94C6H     001BH     UNIT         ?PR?_SPI_READWRITEBYTE?SPI
            CODE    94E1H     001AH     UNIT         ?PR?CARDREADINIT?CARDREAD
            CODE    94FBH     0019H     UNIT         ?PR?EXTI_CONFIG?DRIVER
            CODE    9514H     0019H     UNIT         ?PR?RELAYTASK?DRIVER
            CODE    952DH     0019H     UNIT         ?PR?GSM_HUANGUP?GSM
            CODE    9546H     0019H     UNIT         ?PR?SHOWUNLOCK?SYSSTRING
            CODE    955FH     0019H     UNIT         ?PR?UART1CLEAR?UART
            CODE    9578H     0019H     UNIT         ?PR?UART3CLEAR?UART
            CODE    9591H     0018H     UNIT         ?PR?_LCD_WCMD?LCD12864
            CODE    95A9H     0017H     UNIT         ?PR?_NAMEDELALLKEY?NAMELIST
            CODE    95C0H     0017H     UNIT         ?PR?_PSWDELALLKEY?UNLOCKPASSWORD
            CODE    95D7H     0017H     UNIT         ?PR?_CARDDELALLKEY?CARD
            CODE    95EEH     0017H     UNIT         ?CO?CARD
            CODE    9605H     0016H     UNIT         ?PR?_HBSTRLEN?DRIVER
            CODE    961BH     0016H     UNIT         ?PR?_DISPLAYSTRING?LCD12864
            CODE    9631H     0016H     UNIT         ?PR?DELETEALLNAMECON?NAMELIST
            CODE    9647H     0016H     UNIT         ?PR?IIC_START?EEPROM
            CODE    965DH     0016H     UNIT         ?PR?IIC_STOP?EEPROM
            CODE    9673H     0016H     UNIT         ?PR?DELETEALLPSWCON?UNLOCKPASSWORD
            CODE    9689H     0016H     UNIT         ?PR?DELETEALLCARDCON?CARD
            CODE    969FH     0015H     UNIT         ?PR?SHOWSAVEOK?SYSSTRING
            CODE    96B4H     0015H     UNIT         ?PR?SHOWCARDERR?SYSSTRING
            CODE    96C9H     0014H     UNIT         ?PR?GETCHAR?GETCHAR
            CODE    96DDH     0014H     UNIT         ?PR?_ISSPACE?ISSPACE
            CODE    96F1H     0013H     UNIT         ?PR?INITNAMELIST?NAMELIST
            CODE    9704H     0013H     UNIT         ?PR?IIC_AACK?EEPROM
            CODE    9717H     0013H     UNIT         ?PR?INITPSW?UNLOCKPASSWORD
            CODE    972AH     0013H     UNIT         ?PR?INITCARD?CARD
            CODE    973DH     0012H     UNIT         ?PR?_DISPLAYICO?LCD12864
            CODE    974FH     0012H     UNIT         ?PR?_IIC_DELAYMS?EEPROM
            CODE    9761H     0011H     UNIT         ?PR?_DELNAMEITEMBYROOM?NAMELIST
            CODE    9772H     0010H     UNIT         ?PR?LCDADDROW?LCD12864
            CODE    9782H     0010H     UNIT         ?PR?SHOWCONFIRMSAVE?SYSSTRING
            CODE    9792H     0010H     UNIT         ?PR?SHOWCONFIRMDEL?SYSSTRING
            CODE    97A2H     0010H     UNIT         ?PR?SHOWERR?SYSSTRING
            CODE    97B2H     0010H     UNIT         ?PR?SHOWDELETEOK?SYSSTRING
            CODE    97C2H     0010H     UNIT         ?PR?SHOWGSMERR?SYSSTRING
            CODE    97D2H     0010H     UNIT         ?PR?SHOWROOMERR?SYSSTRING
            CODE    97E2H     0010H     UNIT         ?PR?SHOWRESET?SYSSTRING
            CODE    97F2H     000EH     UNIT         ?PR?_PUTCHAR?DRIVER
            CODE    9800H     000AH     UNIT         ?PR?CLEARPSW?UNLOCKPASSWORD
            CODE    980AH     000AH     UNIT         ?PR?CLEARCARD?CARD
BL51 BANKED LINKER/LOCATER V6.22.2.0                                                  06/01/2022  09:37:04  PAGE 7


            CODE    9814H     000AH     UNIT         ?PR?_GETKEY?_GETKEY
            CODE    981EH     0009H     UNIT         ?PR?_SETFLASH?LCD12864
            CODE    9827H     0008H     UNIT         ?PR?GETCHAR?UNGETCHAR



OVERLAY MAP OF MODULE:   .\Objects\GSM (?C_STARTUP)


SEGMENT                                       BIT_GROUP          DATA_GROUP          XDATA_GROUP
  +--> CALLED SEGMENT                      START    LENGTH     START    LENGTH     START    LENGTH
--------------------------------------------------------------------------------------------------
?C_C51STARTUP                              -----    -----      -----    -----      -----    -----
  +--> ?PR?MAIN?MAIN
  +--> ?C_INITSEG

?PR?MAIN?MAIN                              -----    -----      -----    -----      -----    -----
  +--> ?PR?_DELAY?DRIVER
  +--> ?PR?GPIO_CONFIG?DRIVER
  +--> ?PR?TIMER_CONFIG?DRIVER
  +--> ?PR?UART_CONFIG?DRIVER
  +--> ?PR?EXTI_CONFIG?DRIVER
  +--> ?PR?SPI_CONFIG?AUDIO
  +--> ?PR?PWM_CONFIG?AUDIO
  +--> ?PR?INIT_12864?LCD12864
  +--> ?PR?INITSYSPARA?SYSSTATUS
  +--> ?PR?INITUSERPARA?SYSSTATUS
  +--> ?PR?GSM_STARTINIT?GSM
  +--> ?PR?CARDREADINIT?CARDREAD
  +--> ?PR?SYSIDLECON?SYSSTATUS
  +--> ?PR?_REVNAMELIST?NAMELIST
  +--> ?PR?UART1CLEAR?UART
  +--> ?CO?MAIN
  +--> ?PR?PRINTF?PRINTF
  +--> ?PR?_GSMUARTCMD?GSM
  +--> ?PR?UART3CLEAR?UART
  +--> ?PR?WAVREADTASK?AUDIO
  +--> ?PR?_UNLOCK?DRIVER
  +--> ?PR?UARTTASK?UART
  +--> ?PR?KEYSCAN?DRIVER
  +--> ?PR?_BEEP_STARTPLAY?AUDIO
  +--> ?PR?_SYSKEY?SYSSTATUS
  +--> ?PR?SKEYSCAN?DRIVER
  +--> ?PR?CARDMSTASK?CARDREAD
  +--> ?PR?GSM_INITTASK?GSM
  +--> ?PR?FLASHTASK?LCD12864
  +--> ?PR?RELAYTASK?DRIVER
  +--> ?PR?SHOWTALKTIME?SYSSTRING
  +--> ?PR?GSM_HUANGUP?GSM
  +--> ?PR?_SHOWMAIN?SYSSTRING
  +--> ?PR?_NAMEEDITKEY?NAMELIST
  +--> ?PR?CHECKRFIDCARD?CARDREAD
  +--> ?PR?_SYSCARD?SYSSTATUS

?PR?GPIO_CONFIG?DRIVER                     -----    -----      -----    -----      107CH    0002H
  +--> ?PR?_GPIO_INILIZE?GPIO

BL51 BANKED LINKER/LOCATER V6.22.2.0                                                  06/01/2022  09:37:04  PAGE 8


?PR?TIMER_CONFIG?DRIVER                    -----    -----      -----    -----      107CH    0008H
  +--> ?PR?_TIMER_INILIZE?TIMER

?PR?UART_CONFIG?DRIVER                     -----    -----      -----    -----      107CH    000CH
  +--> ?PR?_UART_CONFIGURATION?UART
  +--> ?CO?DRIVER
  +--> ?PR?PRINTF?PRINTF
  +--> ?PR?_TX3_WRITE2BUFF?UART

?PR?_UART_CONFIGURATION?UART               -----    -----      -----    -----      1088H    000AH

?PR?PRINTF?PRINTF                          0020H.1  0001H.1    0008H    0005H      1124H    0028H
  +--> ?PR?_PUTCHAR?DRIVER

?PR?_PUTCHAR?DRIVER                        -----    -----      -----    -----      114CH    0001H
  +--> ?PR?_TX1_WRITE2BUFF?UART

?PR?EXTI_CONFIG?DRIVER                     -----    -----      -----    -----      107CH    0003H
  +--> ?PR?_EXT_INILIZE?EXTI

?PR?SPI_CONFIG?AUDIO                       -----    -----      -----    -----      107CH    0009H
  +--> ?PR?_SPI_INIT?SPI

?PR?INIT_12864?LCD12864                    -----    -----      -----    -----      -----    -----
  +--> ?PR?_LCD_WCMD?LCD12864

?PR?_LCD_WCMD?LCD12864                     -----    -----      -----    -----      -----    -----
  +--> ?PR?LCD_BUSY?LCD12864

?PR?LCD_BUSY?LCD12864                      0020H.2  0000H.1    -----    -----      -----    -----

?PR?INITSYSPARA?SYSSTATUS                  0020H.0  0000H.1    -----    -----      -----    -----
  +--> ?PR?_READBUF_AT24C02?EEPROM
  +--> ?PR?_WRITEBUF_AT24C02?EEPROM
  +--> ?CO?SYSSTATUS
  +--> ?PR?PRINTF?PRINTF

?PR?_READBUF_AT24C02?EEPROM                -----    -----      -----    -----      1125H    0008H
  +--> ?PR?IIC_ACK?EEPROM
  +--> ?PR?_IIC_SEND_BYTE?EEPROM
  +--> ?PR?IIC_START?EEPROM
  +--> ?PR?IIC_READ_BYTE?EEPROM
  +--> ?PR?IIC_AACK?EEPROM
  +--> ?PR?IIC_NACK?EEPROM
  +--> ?PR?IIC_STOP?EEPROM

?PR?IIC_ACK?EEPROM                         -----    -----      -----    -----      -----    -----
  +--> ?PR?IIC_START?EEPROM
  +--> ?PR?_IIC_SEND_BYTE?EEPROM

?PR?_WRITEBUF_AT24C02?EEPROM               -----    -----      -----    -----      1125H    0007H
  +--> ?PR?_IIC_SEND_BYTE?EEPROM
  +--> ?PR?IIC_ACK?EEPROM
  +--> ?PR?IIC_STOP?EEPROM
  +--> ?PR?_IIC_DELAYMS?EEPROM

?PR?INITUSERPARA?SYSSTATUS                 -----    -----      -----    -----      -----    -----
BL51 BANKED LINKER/LOCATER V6.22.2.0                                                  06/01/2022  09:37:04  PAGE 9


  +--> ?PR?_READBUF_AT24C02?EEPROM
  +--> ?PR?_WRITEBUF_AT24C02?EEPROM
  +--> ?CO?SYSSTATUS
  +--> ?PR?PRINTF?PRINTF
  +--> ?PR?INITNAMELIST?NAMELIST
  +--> ?PR?INITPSW?UNLOCKPASSWORD
  +--> ?PR?INITCARD?CARD

?PR?INITNAMELIST?NAMELIST                  -----    -----      -----    -----      -----    -----
  +--> ?PR?CLEARNAMELIST?NAMELIST

?PR?CLEARNAMELIST?NAMELIST                 -----    -----      -----    -----      -----    -----
  +--> ?PR?SAVENAMECOUNT?NAMELIST

?PR?SAVENAMECOUNT?NAMELIST                 -----    -----      -----    -----      -----    -----
  +--> ?PR?_WRITEBUF_AT24C02?EEPROM

?PR?INITPSW?UNLOCKPASSWORD                 -----    -----      -----    -----      -----    -----
  +--> ?PR?CLEARPSW?UNLOCKPASSWORD

?PR?CLEARPSW?UNLOCKPASSWORD                -----    -----      -----    -----      -----    -----
  +--> ?PR?SAVEPSWCOUNT?UNLOCKPASSWORD

?PR?SAVEPSWCOUNT?UNLOCKPASSWORD            -----    -----      -----    -----      -----    -----
  +--> ?PR?_WRITEBUF_AT24C02?EEPROM

?PR?INITCARD?CARD                          -----    -----      -----    -----      -----    -----
  +--> ?PR?CLEARCARD?CARD

?PR?CLEARCARD?CARD                         -----    -----      -----    -----      -----    -----
  +--> ?PR?SAVECARDCOUNT?CARD

?PR?SAVECARDCOUNT?CARD                     -----    -----      -----    -----      -----    -----
  +--> ?PR?_WRITEBUF_AT24C02?EEPROM

?PR?GSM_STARTINIT?GSM                      -----    -----      -----    -----      -----    -----
  +--> ?CO?GSM
  +--> ?PR?PRINTF?PRINTF

?PR?SYSIDLECON?SYSSTATUS                   -----    -----      -----    -----      -----    -----
  +--> ?PR?_SHOWMAIN?SYSSTRING

?PR?_SHOWMAIN?SYSSTRING                    -----    -----      -----    -----      1088H    0001H
  +--> ?PR?LCDCLEAR?LCD12864
  +--> ?CO?SYSSTRING
  +--> ?PR?_DISPLAYSTRING?LCD12864
  +--> ?PR?_DISPLAYICO?LCD12864
  +--> ?PR?SHOWGSMCSQ?SYSSTRING

?PR?LCDCLEAR?LCD12864                      -----    -----      -----    -----      -----    -----
  +--> ?PR?_LCD_WCMD?LCD12864
  +--> ?PR?_CLEARBUF?DRIVER
  +--> ?PR?_SETFLASH?LCD12864

?PR?_CLEARBUF?DRIVER                       -----    -----      -----    -----      1124H    0003H

?PR?_DISPLAYSTRING?LCD12864                -----    -----      -----    -----      -----    -----
BL51 BANKED LINKER/LOCATER V6.22.2.0                                                  06/01/2022  09:37:04  PAGE 10


  +--> ?PR?_WRITELCD?LCD12864
  +--> ?PR?_BITBLT?LCD12864

?PR?_WRITELCD?LCD12864                     -----    -----      -----    -----      1124H    0008H
  +--> ?PR?_CHECKUNICODE?LCD12864
  +--> ?PR?LCDADDROW?LCD12864
  +--> ?CO?LCD12864

?PR?_BITBLT?LCD12864                       -----    -----      -----    -----      1124H    0007H
  +--> ?PR?_LCD_WCMD?LCD12864
  +--> ?PR?WAVREADTASK?AUDIO
  +--> ?PR?_LCD_WDAT?LCD12864

?PR?WAVREADTASK?AUDIO                      -----    -----      -----    -----      112BH    0001H
  +--> ?PR?MP3_STOP?AUDIO
  +--> ?PR?_SPI_FLASH_READ?SPI

?PR?_SPI_FLASH_READ?SPI                    -----    -----      -----    -----      112CH    000DH
  +--> ?PR?_DELAY?DRIVER
  +--> ?PR?_SPI_READWRITEBYTE?SPI

?PR?_LCD_WDAT?LCD12864                     -----    -----      -----    -----      -----    -----
  +--> ?PR?LCD_BUSY?LCD12864

?PR?_DISPLAYICO?LCD12864                   -----    -----      -----    -----      -----    -----
  +--> ?PR?_WRITELCDICO?LCD12864
  +--> ?PR?_BITBLT?LCD12864

?PR?_WRITELCDICO?LCD12864                  -----    -----      -----    -----      1089H    0007H
  +--> ?CO?LCD12864

?PR?SHOWGSMCSQ?SYSSTRING                   -----    -----      -----    -----      -----    -----
  +--> ?CO?SYSSTRING
  +--> ?PR?_DISPLAYSTRING?LCD12864

?PR?_REVNAMELIST?NAMELIST                  -----    -----      -----    -----      107CH    0059H
  +--> ?CO?NAMELIST
  +--> ?PR?PRINTF?PRINTF
  +--> ?PR?_LOOKFORSTR?DRIVER
  +--> ?PR?SCANF?SCANF
  +--> ?PR?_CLEARBUF?DRIVER
  +--> ?PR?_ADDNAMEITEM?NAMELIST

?PR?_LOOKFORSTR?DRIVER                     -----    -----      -----    -----      10D5H    000AH

?PR?SCANF?SCANF                            0020H.0  0000H.6    0008H    0005H      10D5H    002EH
  +--> ?PR?GETCHAR?UNGETCHAR
  +--> ?PR?_ISSPACE?ISSPACE
  +--> ?PR?GETCHAR?GETCHAR

?PR?GETCHAR?GETCHAR                        -----    -----      -----    -----      -----    -----
  +--> ?PR?_GETKEY?_GETKEY
  +--> ?PR?_PUTCHAR?DRIVER

?PR?_ADDNAMEITEM?NAMELIST                  -----    -----      -----    -----      10D5H    0005H
  +--> ?PR?_GETIDXBYROOM?SYSSTATUS
  +--> ?PR?_WRITENAMEITEMBYIDX?NAMELIST
BL51 BANKED LINKER/LOCATER V6.22.2.0                                                  06/01/2022  09:37:04  PAGE 11


  +--> ?PR?SAVENAMECOUNT?NAMELIST

?PR?_GETIDXBYROOM?SYSSTATUS                -----    -----      -----    -----      10DAH    0007H
  +--> ?PR?_READROOMBYIDX?SYSSTATUS

?PR?_READROOMBYIDX?SYSSTATUS               -----    -----      -----    -----      10E1H    0002H
  +--> ?PR?_READBUF_AT24C02?EEPROM

?PR?_WRITENAMEITEMBYIDX?NAMELIST           -----    -----      -----    -----      1122H    0003H
  +--> ?PR?_WRITEBUF_AT24C02?EEPROM

?PR?UART1CLEAR?UART                        -----    -----      -----    -----      -----    -----
  +--> ?PR?_CLEARBUF?DRIVER

?PR?_GSMUARTCMD?GSM                        -----    -----      -----    -----      107CH    0003H
  +--> ?PR?_PRINTSTRING3?UART
  +--> ?CO?GSM
  +--> ?PR?PRINTF?PRINTF
  +--> ?PR?GSM_REPOWER?GSM
  +--> ?PR?_MODEMRECEIVEHANDLE?GSM

?PR?_PRINTSTRING3?UART                     -----    -----      -----    -----      1099H    0003H
  +--> ?PR?_TX3_WRITE2BUFF?UART

?PR?GSM_REPOWER?GSM                        -----    -----      -----    -----      -----    -----
  +--> ?CO?GSM
  +--> ?PR?_PRINTSTRING3?UART
  +--> ?PR?PRINTF?PRINTF

?PR?_MODEMRECEIVEHANDLE?GSM                -----    -----      -----    -----      107FH    0009H
  +--> ?CO?GSM
  +--> ?PR?_LOOKFORSTR?DRIVER
  +--> ?PR?SHOWGSMERR?SYSSTRING
  +--> ?PR?GSM_REPOWER?GSM
  +--> ?PR?_STRLEN?DRIVER
  +--> ?PR?GSM_HUANGUP?GSM
  +--> ?PR?SCANF?SCANF
  +--> ?PR?PRINTF?PRINTF
  +--> ?PR?_GSM_SETVOLUM?GSM
  +--> ?PR?SYSIDLECON?SYSSTATUS

?PR?SHOWGSMERR?SYSSTRING                   -----    -----      -----    -----      -----    -----
  +--> ?PR?LCDCLEAR?LCD12864
  +--> ?CO?SYSSTRING
  +--> ?PR?_DISPLAYSTRING?LCD12864

?PR?_STRLEN?DRIVER                         -----    -----      -----    -----      1124H    0003H

?PR?GSM_HUANGUP?GSM                        -----    -----      -----    -----      -----    -----
  +--> ?CO?GSM
  +--> ?PR?_PRINTSTRING3?UART

?PR?_GSM_SETVOLUM?GSM                      -----    -----      -----    -----      1088H    0001H
  +--> ?CO?GSM
  +--> ?PR?PRINTF?PRINTF

?PR?UART3CLEAR?UART                        -----    -----      -----    -----      -----    -----
BL51 BANKED LINKER/LOCATER V6.22.2.0                                                  06/01/2022  09:37:04  PAGE 12


  +--> ?PR?_CLEARBUF?DRIVER

?PR?_UNLOCK?DRIVER                         0020H.0  0000H.1    -----    -----      -----    -----
  +--> ?PR?SHOWUNLOCK?SYSSTRING

?PR?SHOWUNLOCK?SYSSTRING                   0020H.1  0000H.1    -----    -----      -----    -----
  +--> ?PR?LCDCLEAR?LCD12864
  +--> ?CO?SYSSTRING
  +--> ?PR?_DISPLAYSTRING?LCD12864
  +--> ?PR?_MP3_STARTPLAY?AUDIO

?PR?_MP3_STARTPLAY?AUDIO                   -----    -----      -----    -----      10D0H    0001H
  +--> ?PR?_DELAY?DRIVER
  +--> ?PR?WAVREADTASK?AUDIO

?PR?UARTTASK?UART                          -----    -----      -----    -----      -----    -----
  +--> ?PR?UART1CLEAR?UART
  +--> ?PR?UART3CLEAR?UART

?PR?KEYSCAN?DRIVER                         -----    -----      -----    -----      107CH    0001H

?PR?_BEEP_STARTPLAY?AUDIO                  -----    -----      -----    -----      -----    -----
  +--> ?PR?KEYBEEPTASK?AUDIO

?PR?KEYBEEPTASK?AUDIO                      -----    -----      -----    -----      -----    -----
  +--> ?CO?AUDIO

?PR?_SYSKEY?SYSSTATUS                      -----    -----      -----    -----      107CH    0001H
  +--> ?PR?_SYSIDLEKEY?SYSSTATUS
  +--> ?PR?_SYSSETTINGKEY?SYSSTATUS
  +--> ?PR?_NAMESETKEY?NAMELIST
  +--> ?PR?_NAMEEDITKEY?NAMELIST
  +--> ?PR?_NAMEDELETEKEY?NAMELIST
  +--> ?PR?_NAMEDELALLKEY?NAMELIST
  +--> ?PR?_PSWSETKEY?UNLOCKPASSWORD
  +--> ?PR?_PSWEDITKEY?UNLOCKPASSWORD
  +--> ?PR?_PSWDELETEKEY?UNLOCKPASSWORD
  +--> ?PR?_PSWDELALLKEY?UNLOCKPASSWORD
  +--> ?PR?_PSWINPUTKEY?UNLOCKPASSWORD
  +--> ?PR?_SYSINPUTROOM?SYSSTATUS
  +--> ?PR?_INPUTSYSPSW?SYSSTATUS
  +--> ?PR?_SYSPSWEDITKEY?UNLOCKPASSWORD
  +--> ?PR?_CARDSETKEY?CARD
  +--> ?PR?_CARDEDITKEY?CARD
  +--> ?PR?_CARDDELETEKEY?CARD
  +--> ?PR?_CARDDELALLKEY?CARD
  +--> ?PR?_SYSTALKKEY?SYSSTATUS
  +--> ?PR?_SYSSUBSETKEY?SYSSTATUS

?PR?_SYSIDLEKEY?SYSSTATUS                  -----    -----      -----    -----      107DH    0001H
  +--> ?PR?SYSIDLECON?SYSSTATUS
  +--> ?PR?INPUTPSWCON?UNLOCKPASSWORD
  +--> ?PR?INPUTSYSPSWCON?SYSSTATUS
  +--> ?PR?_SHOWNAMEBYIDX?NAMELIST
  +--> ?PR?_READNAMEITEMBYIDX?NAMELIST
  +--> ?PR?_CALLBYNAMEITEM?NAMELIST
  +--> ?PR?_STRLEN?DRIVER
BL51 BANKED LINKER/LOCATER V6.22.2.0                                                  06/01/2022  09:37:04  PAGE 13


  +--> ?PR?SHOWERR?SYSSTRING
  +--> ?PR?SHOWGSMERR?SYSSTRING
  +--> ?PR?_INPUTROOMCON?SYSSTATUS

?PR?INPUTPSWCON?UNLOCKPASSWORD             -----    -----      -----    -----      -----    -----
  +--> ?PR?_CLEARBUF?DRIVER
  +--> ?PR?_SHOWPSW?UNLOCKPASSWORD
  +--> ?PR?_MP3_STARTPLAY?AUDIO

?PR?_SHOWPSW?UNLOCKPASSWORD                0020H.0  0000H.1    -----    -----      1084H    0028H
  +--> ?PR?LCDCLEAR?LCD12864
  +--> ?CO?SYSSTRING
  +--> ?PR?_DISPLAYSTRING?LCD12864
  +--> ?CO?UNLOCKPASSWORD
  +--> ?PR?PRINTF?PRINTF
  +--> ?PR?_HBSTRLEN?DRIVER
  +--> ?PR?_STRLEN?DRIVER
  +--> ?PR?_SETFLASH?LCD12864

?PR?INPUTSYSPSWCON?SYSSTATUS               -----    -----      -----    -----      -----    -----
  +--> ?PR?SHOWINPUTPSW?SYSSTATUS
  +--> ?PR?_MP3_STARTPLAY?AUDIO

?PR?SHOWINPUTPSW?SYSSTATUS                 -----    -----      -----    -----      107EH    001EH
  +--> ?PR?LCDCLEAR?LCD12864
  +--> ?CO?SYSSTRING
  +--> ?PR?_DISPLAYSTRING?LCD12864
  +--> ?PR?_HS_STRCPY?DRIVER
  +--> ?PR?_SETFLASH?LCD12864

?PR?_HS_STRCPY?DRIVER                      -----    -----      -----    -----      109CH    0006H

?PR?_SHOWNAMEBYIDX?NAMELIST                -----    -----      -----    -----      107EH    0050H
  +--> ?PR?_READNAMEITEMBYIDX?NAMELIST
  +--> ?PR?_SHOWNAME?NAMELIST

?PR?_READNAMEITEMBYIDX?NAMELIST            -----    -----      -----    -----      1122H    0003H
  +--> ?PR?_READBUF_AT24C02?EEPROM

?PR?_SHOWNAME?NAMELIST                     0020H.0  0000H.1    -----    -----      10D0H    0054H
  +--> ?PR?LCDCLEAR?LCD12864
  +--> ?CO?NAMELIST
  +--> ?CO?SYSSTRING
  +--> ?PR?PRINTF?PRINTF
  +--> ?PR?_DISPLAYSTRING?LCD12864
  +--> ?PR?_STRLEN?DRIVER
  +--> ?PR?_HBSTRLEN?DRIVER
  +--> ?PR?_SETFLASH?LCD12864

?PR?_CALLBYNAMEITEM?NAMELIST               -----    -----      -----    -----      107EH    0018H
  +--> ?PR?_STRLEN?DRIVER
  +--> ?PR?_GSM_CALL?GSM
  +--> ?PR?LCDCLEAR?LCD12864
  +--> ?CO?NAMELIST
  +--> ?CO?SYSSTRING
  +--> ?PR?PRINTF?PRINTF
  +--> ?PR?_DISPLAYSTRING?LCD12864
BL51 BANKED LINKER/LOCATER V6.22.2.0                                                  06/01/2022  09:37:04  PAGE 14



?PR?_GSM_CALL?GSM                          -----    -----      -----    -----      1096H    0003H
  +--> ?CO?GSM
  +--> ?PR?_PRINTSTRING3?UART

?PR?SHOWERR?SYSSTRING                      -----    -----      -----    -----      -----    -----
  +--> ?PR?LCDCLEAR?LCD12864
  +--> ?CO?SYSSTRING
  +--> ?PR?_DISPLAYSTRING?LCD12864

?PR?_INPUTROOMCON?SYSSTATUS                -----    -----      -----    -----      -----    -----
  +--> ?PR?SHOWINPUTROOM?SYSSTATUS
  +--> ?PR?_CLEARBUF?DRIVER
  +--> ?PR?_MP3_STARTPLAY?AUDIO

?PR?SHOWINPUTROOM?SYSSTATUS                -----    -----      -----    -----      107EH    0018H
  +--> ?PR?LCDCLEAR?LCD12864
  +--> ?CO?SYSSTRING
  +--> ?PR?_DISPLAYSTRING?LCD12864
  +--> ?CO?SYSSTATUS
  +--> ?PR?PRINTF?PRINTF
  +--> ?PR?_HBSTRLEN?DRIVER
  +--> ?PR?_STRLEN?DRIVER

?PR?_SYSSETTINGKEY?SYSSTATUS               -----    -----      -----    -----      107DH    0001H
  +--> ?PR?SYSIDLECON?SYSSTATUS
  +--> ?PR?EDITSYSPSWCON?UNLOCKPASSWORD
  +--> ?PR?NAMESETCON?NAMELIST
  +--> ?PR?PSWSETCON?UNLOCKPASSWORD
  +--> ?PR?CARDSETCON?CARD
  +--> ?PR?_SUBSETCON?SYSSTATUS

?PR?EDITSYSPSWCON?UNLOCKPASSWORD           -----    -----      -----    -----      -----    -----
  +--> ?PR?_CLEARBUF?DRIVER
  +--> ?PR?_SHOWPSW?UNLOCKPASSWORD

?PR?NAMESETCON?NAMELIST                    -----    -----      -----    -----      10D0H    000AH
  +--> ?PR?LCDCLEAR?LCD12864
  +--> ?CO?SYSSTRING
  +--> ?PR?_DISPLAYSTRING?LCD12864
  +--> ?CO?NAMELIST
  +--> ?PR?PRINTF?PRINTF
  +--> ?PR?_HBSTRLEN?DRIVER
  +--> ?PR?_STRLEN?DRIVER

?PR?PSWSETCON?UNLOCKPASSWORD               -----    -----      -----    -----      1084H    000AH
  +--> ?PR?LCDCLEAR?LCD12864
  +--> ?CO?SYSSTRING
  +--> ?PR?_DISPLAYSTRING?LCD12864
  +--> ?CO?UNLOCKPASSWORD
  +--> ?PR?PRINTF?PRINTF
  +--> ?PR?_HBSTRLEN?DRIVER
  +--> ?PR?_STRLEN?DRIVER

?PR?CARDSETCON?CARD                        -----    -----      -----    -----      1080H    000AH
  +--> ?PR?LCDCLEAR?LCD12864
  +--> ?CO?SYSSTRING
BL51 BANKED LINKER/LOCATER V6.22.2.0                                                  06/01/2022  09:37:04  PAGE 15


  +--> ?PR?_DISPLAYSTRING?LCD12864
  +--> ?CO?CARD
  +--> ?PR?PRINTF?PRINTF
  +--> ?PR?_HBSTRLEN?DRIVER
  +--> ?PR?_STRLEN?DRIVER

?PR?_SUBSETCON?SYSSTATUS                   -----    -----      -----    -----      -----    -----
  +--> ?PR?SHOWSUBPARA?SYSSTATUS

?PR?SHOWSUBPARA?SYSSTATUS                  -----    -----      -----    -----      107EH    0018H
  +--> ?PR?LCDCLEAR?LCD12864
  +--> ?CO?SYSSTATUS
  +--> ?CO?SYSSTRING
  +--> ?PR?PRINTF?PRINTF
  +--> ?PR?_DISPLAYSTRING?LCD12864
  +--> ?PR?_STRLEN?DRIVER

?PR?_NAMESETKEY?NAMELIST                   -----    -----      -----    -----      -----    -----
  +--> ?PR?EDITNAMEITEMCON?NAMELIST
  +--> ?PR?DELETENAMECON?NAMELIST
  +--> ?PR?DELETEALLNAMECON?NAMELIST
  +--> ?PR?SYSSETTINGCON?SYSSTATUS

?PR?EDITNAMEITEMCON?NAMELIST               -----    -----      -----    -----      -----    -----
  +--> ?PR?_CLEARBUF?DRIVER
  +--> ?PR?_SHOWNAME?NAMELIST

?PR?DELETENAMECON?NAMELIST                 -----    -----      -----    -----      -----    -----
  +--> ?PR?_CLEARBUF?DRIVER
  +--> ?PR?_SHOWNAME?NAMELIST

?PR?DELETEALLNAMECON?NAMELIST              -----    -----      -----    -----      -----    -----
  +--> ?PR?LCDCLEAR?LCD12864
  +--> ?CO?SYSSTRING
  +--> ?PR?_DISPLAYSTRING?LCD12864

?PR?SYSSETTINGCON?SYSSTATUS                -----    -----      -----    -----      -----    -----
  +--> ?PR?LCDCLEAR?LCD12864
  +--> ?CO?SYSSTRING
  +--> ?PR?_DISPLAYSTRING?LCD12864
  +--> ?PR?_DISPLAYICO?LCD12864

?PR?_NAMEEDITKEY?NAMELIST                  -----    -----      -----    -----      107DH    0001H
  +--> ?PR?_CLEARBUF?DRIVER
  +--> ?PR?_STRLEN?DRIVER
  +--> ?PR?_ADDNAMEITEM?NAMELIST
  +--> ?PR?SHOWSAVEOK?SYSSTRING
  +--> ?PR?SHOWERR?SYSSTRING
  +--> ?PR?NAMEEDITCHAGETYPE?NAMELIST
  +--> ?PR?NAMESETCON?NAMELIST
  +--> ?PR?_HBSTRLEN?DRIVER
  +--> ?CO?SYSSTRING
  +--> ?CO?NAMELIST
  +--> ?PR?_SHOWNAME?NAMELIST

?PR?SHOWSAVEOK?SYSSTRING                   -----    -----      -----    -----      -----    -----
  +--> ?PR?LCDCLEAR?LCD12864
BL51 BANKED LINKER/LOCATER V6.22.2.0                                                  06/01/2022  09:37:04  PAGE 16


  +--> ?CO?SYSSTRING
  +--> ?PR?_DISPLAYSTRING?LCD12864
  +--> ?PR?_MP3_STARTPLAY?AUDIO

?PR?NAMEEDITCHAGETYPE?NAMELIST             -----    -----      -----    -----      107EH    0052H
  +--> ?PR?_GETNAMEITEMBYROOM?NAMELIST
  +--> ?PR?_HS_MEMCPY?DRIVER
  +--> ?PR?_STRLEN?DRIVER
  +--> ?PR?SHOWCONFIRMSAVE?SYSSTRING

?PR?_GETNAMEITEMBYROOM?NAMELIST            -----    -----      -----    -----      10D0H    0005H
  +--> ?PR?_GETIDXBYROOM?SYSSTATUS
  +--> ?PR?_READNAMEITEMBYIDX?NAMELIST

?PR?_HS_MEMCPY?DRIVER                      -----    -----      -----    -----      10D0H    0008H

?PR?SHOWCONFIRMSAVE?SYSSTRING              -----    -----      -----    -----      -----    -----
  +--> ?PR?LCDCLEAR?LCD12864
  +--> ?CO?SYSSTRING
  +--> ?PR?_DISPLAYSTRING?LCD12864

?PR?_NAMEDELETEKEY?NAMELIST                -----    -----      -----    -----      107DH    0053H
  +--> ?PR?_CLEARBUF?DRIVER
  +--> ?PR?_DELNAMEITEMBYROOM?NAMELIST
  +--> ?PR?SHOWSAVEOK?SYSSTRING
  +--> ?PR?_GETNAMEITEMBYROOM?NAMELIST
  +--> ?PR?_HS_MEMCPY?DRIVER
  +--> ?PR?_STRLEN?DRIVER
  +--> ?PR?SHOWCONFIRMDEL?SYSSTRING
  +--> ?PR?NAMESETCON?NAMELIST
  +--> ?PR?_SHOWNAME?NAMELIST

?PR?_DELNAMEITEMBYROOM?NAMELIST            -----    -----      -----    -----      -----    -----
  +--> ?PR?_GETIDXBYROOM?SYSSTATUS
  +--> ?PR?_DELNAMEITEMBYIDX?NAMELIST

?PR?_DELNAMEITEMBYIDX?NAMELIST             -----    -----      -----    -----      10D0H    0052H
  +--> ?PR?SAVENAMECOUNT?NAMELIST
  +--> ?PR?_READNAMEITEMBYIDX?NAMELIST
  +--> ?PR?_WRITENAMEITEMBYIDX?NAMELIST

?PR?SHOWCONFIRMDEL?SYSSTRING               -----    -----      -----    -----      -----    -----
  +--> ?PR?LCDCLEAR?LCD12864
  +--> ?CO?SYSSTRING
  +--> ?PR?_DISPLAYSTRING?LCD12864

?PR?_NAMEDELALLKEY?NAMELIST                -----    -----      -----    -----      -----    -----
  +--> ?PR?CLEARNAMELIST?NAMELIST
  +--> ?PR?SHOWDELETEOK?SYSSTRING
  +--> ?PR?NAMESETCON?NAMELIST

?PR?SHOWDELETEOK?SYSSTRING                 -----    -----      -----    -----      -----    -----
  +--> ?PR?LCDCLEAR?LCD12864
  +--> ?CO?SYSSTRING
  +--> ?PR?_DISPLAYSTRING?LCD12864

?PR?_PSWSETKEY?UNLOCKPASSWORD              -----    -----      -----    -----      -----    -----
BL51 BANKED LINKER/LOCATER V6.22.2.0                                                  06/01/2022  09:37:04  PAGE 17


  +--> ?PR?EDITPSWCON?UNLOCKPASSWORD
  +--> ?PR?DELETEPSWCON?UNLOCKPASSWORD
  +--> ?PR?DELETEALLPSWCON?UNLOCKPASSWORD
  +--> ?PR?SYSSETTINGCON?SYSSTATUS

?PR?EDITPSWCON?UNLOCKPASSWORD              -----    -----      -----    -----      -----    -----
  +--> ?PR?_CLEARBUF?DRIVER
  +--> ?PR?_SHOWPSW?UNLOCKPASSWORD

?PR?DELETEPSWCON?UNLOCKPASSWORD            -----    -----      -----    -----      -----    -----
  +--> ?PR?_CLEARBUF?DRIVER
  +--> ?PR?_SHOWPSW?UNLOCKPASSWORD

?PR?DELETEALLPSWCON?UNLOCKPASSWORD         -----    -----      -----    -----      -----    -----
  +--> ?PR?LCDCLEAR?LCD12864
  +--> ?CO?SYSSTRING
  +--> ?PR?_DISPLAYSTRING?LCD12864

?PR?_PSWEDITKEY?UNLOCKPASSWORD             -----    -----      -----    -----      107DH    0007H
  +--> ?PR?_CLEARBUF?DRIVER
  +--> ?PR?_ADDPSWITEM?UNLOCKPASSWORD
  +--> ?PR?SHOWSAVEOK?SYSSTRING
  +--> ?PR?SHOWERR?SYSSTRING
  +--> ?PR?SHOWCONFIRMSAVE?SYSSTRING
  +--> ?PR?PSWSETCON?UNLOCKPASSWORD
  +--> ?PR?_SHOWPSW?UNLOCKPASSWORD

?PR?_ADDPSWITEM?UNLOCKPASSWORD             -----    -----      -----    -----      1084H    0005H
  +--> ?PR?_GETIDXBYROOM?SYSSTATUS
  +--> ?CO?UNLOCKPASSWORD
  +--> ?PR?PRINTF?PRINTF
  +--> ?PR?_WRITEPSWBYIDX?UNLOCKPASSWORD
  +--> ?PR?SAVEPSWCOUNT?UNLOCKPASSWORD

?PR?_WRITEPSWBYIDX?UNLOCKPASSWORD          -----    -----      -----    -----      -----    -----
  +--> ?PR?_WRITEBUF_AT24C02?EEPROM

?PR?_PSWDELETEKEY?UNLOCKPASSWORD           -----    -----      -----    -----      107DH    0003H
  +--> ?PR?_CLEARBUF?DRIVER
  +--> ?PR?_DELPSWBYROOM?UNLOCKPASSWORD
  +--> ?PR?SHOWDELETEOK?SYSSTRING
  +--> ?PR?SHOWCONFIRMDEL?SYSSTRING
  +--> ?PR?PSWSETCON?UNLOCKPASSWORD
  +--> ?PR?_SHOWPSW?UNLOCKPASSWORD

?PR?_DELPSWBYROOM?UNLOCKPASSWORD           -----    -----      -----    -----      1080H    0002H
  +--> ?PR?_DELPSWBYIDX?UNLOCKPASSWORD
  +--> ?PR?_GETIDXBYROOM?SYSSTATUS

?PR?_DELPSWBYIDX?UNLOCKPASSWORD            -----    -----      -----    -----      1082H    0006H
  +--> ?PR?SAVEPSWCOUNT?UNLOCKPASSWORD
  +--> ?PR?_READPSWBYIDX?UNLOCKPASSWORD
  +--> ?PR?_WRITEPSWBYIDX?UNLOCKPASSWORD

?PR?_READPSWBYIDX?UNLOCKPASSWORD           -----    -----      -----    -----      -----    -----
  +--> ?PR?_READBUF_AT24C02?EEPROM

BL51 BANKED LINKER/LOCATER V6.22.2.0                                                  06/01/2022  09:37:04  PAGE 18


?PR?_PSWDELALLKEY?UNLOCKPASSWORD           -----    -----      -----    -----      -----    -----
  +--> ?PR?CLEARPSW?UNLOCKPASSWORD
  +--> ?PR?SHOWDELETEOK?SYSSTRING
  +--> ?PR?PSWSETCON?UNLOCKPASSWORD

?PR?_PSWINPUTKEY?UNLOCKPASSWORD            -----    -----      -----    -----      107DH    0001H
  +--> ?PR?SYSIDLECON?SYSSTATUS
  +--> ?PR?_CHECKPSW?UNLOCKPASSWORD
  +--> ?PR?_UNLOCK?DRIVER
  +--> ?PR?SHOWERR?SYSSTRING
  +--> ?PR?_MP3_STARTPLAY?AUDIO
  +--> ?PR?_SHOWPSW?UNLOCKPASSWORD

?PR?_CHECKPSW?UNLOCKPASSWORD               -----    -----      -----    -----      107EH    0008H
  +--> ?CO?UNLOCKPASSWORD
  +--> ?PR?PRINTF?PRINTF
  +--> ?PR?_READPSWBYIDX?UNLOCKPASSWORD

?PR?_SYSINPUTROOM?SYSSTATUS                -----    -----      -----    -----      107DH    0001H
  +--> ?PR?_GETNAMEITEMBYROOM?NAMELIST
  +--> ?PR?_CALLBYNAMEITEM?NAMELIST
  +--> ?PR?_STRLEN?DRIVER
  +--> ?PR?SHOWERR?SYSSTRING
  +--> ?PR?SHOWGSMERR?SYSSTRING
  +--> ?PR?SHOWROOMERR?SYSSTRING
  +--> ?PR?_MP3_STARTPLAY?AUDIO
  +--> ?PR?SHOWINPUTROOM?SYSSTATUS
  +--> ?PR?MP3_STOP?AUDIO
  +--> ?PR?SYSIDLECON?SYSSTATUS

?PR?SHOWROOMERR?SYSSTRING                  -----    -----      -----    -----      -----    -----
  +--> ?PR?LCDCLEAR?LCD12864
  +--> ?CO?SYSSTRING
  +--> ?PR?_DISPLAYSTRING?LCD12864

?PR?_INPUTSYSPSW?SYSSTATUS                 -----    -----      -----    -----      107DH    0001H
  +--> ?PR?SYSSETTINGCON?SYSSTATUS
  +--> ?PR?SHOWERR?SYSSTRING
  +--> ?PR?_MP3_STARTPLAY?AUDIO
  +--> ?PR?SHOWINPUTPSW?SYSSTATUS
  +--> ?PR?MP3_STOP?AUDIO
  +--> ?PR?SYSIDLECON?SYSSTATUS

?PR?_SYSPSWEDITKEY?UNLOCKPASSWORD          -----    -----      -----    -----      107DH    0001H
  +--> ?PR?_CLEARBUF?DRIVER
  +--> ?PR?SAVESYSPSW?UNLOCKPASSWORD
  +--> ?PR?SHOWSAVEOK?SYSSTRING
  +--> ?PR?SHOWERR?SYSSTRING
  +--> ?PR?SHOWCONFIRMSAVE?SYSSTRING
  +--> ?PR?SYSSETTINGCON?SYSSTATUS
  +--> ?PR?_SHOWPSW?UNLOCKPASSWORD

?PR?SAVESYSPSW?UNLOCKPASSWORD              -----    -----      -----    -----      -----    -----
  +--> ?PR?_WRITEBUF_AT24C02?EEPROM

?PR?_CARDSETKEY?CARD                       -----    -----      -----    -----      -----    -----
  +--> ?PR?EDITCARDCON?CARD
BL51 BANKED LINKER/LOCATER V6.22.2.0                                                  06/01/2022  09:37:04  PAGE 19


  +--> ?PR?DELETECARDCON?CARD
  +--> ?PR?DELETEALLCARDCON?CARD
  +--> ?PR?SYSSETTINGCON?SYSSTATUS

?PR?EDITCARDCON?CARD                       -----    -----      -----    -----      -----    -----
  +--> ?PR?_CLEARBUF?DRIVER
  +--> ?PR?_SHOWCARD?CARD

?PR?_SHOWCARD?CARD                         0020H.0  0000H.1    -----    -----      1082H    0043H
  +--> ?PR?LCDCLEAR?LCD12864
  +--> ?CO?SYSSTRING
  +--> ?PR?_DISPLAYSTRING?LCD12864
  +--> ?CO?CARD
  +--> ?PR?PRINTF?PRINTF
  +--> ?PR?_HBSTRLEN?DRIVER
  +--> ?PR?_STRLEN?DRIVER
  +--> ?PR?_SETFLASH?LCD12864
  +--> ?PR?_MEMISEMPTY?DRIVER

?PR?_MEMISEMPTY?DRIVER                     -----    -----      -----    -----      10C5H    0003H

?PR?DELETECARDCON?CARD                     -----    -----      -----    -----      -----    -----
  +--> ?PR?_CLEARBUF?DRIVER
  +--> ?PR?_MEMISEMPTY?DRIVER
  +--> ?PR?_SHOWCARD?CARD

?PR?DELETEALLCARDCON?CARD                  -----    -----      -----    -----      -----    -----
  +--> ?PR?LCDCLEAR?LCD12864
  +--> ?CO?SYSSTRING
  +--> ?PR?_DISPLAYSTRING?LCD12864

?PR?_CARDEDITKEY?CARD                      -----    -----      -----    -----      107DH    0003H
  +--> ?PR?_CLEARBUF?DRIVER
  +--> ?PR?_MEMISEMPTY?DRIVER
  +--> ?PR?_ADDCARDITEM?CARD
  +--> ?PR?SHOWSAVEOK?SYSSTRING
  +--> ?PR?SHOWERR?SYSSTRING
  +--> ?PR?SHOWCONFIRMSAVE?SYSSTRING
  +--> ?PR?CARDSETCON?CARD
  +--> ?PR?_SHOWCARD?CARD

?PR?_ADDCARDITEM?CARD                      -----    -----      -----    -----      1080H    000BH
  +--> ?PR?_READCARDBYIDX?CARD
  +--> ?PR?_WRITECARDBYIDX?CARD
  +--> ?PR?SAVECARDCOUNT?CARD

?PR?_READCARDBYIDX?CARD                    -----    -----      -----    -----      108EH    0003H
  +--> ?PR?_READBUF_AT24C02?EEPROM

?PR?_WRITECARDBYIDX?CARD                   -----    -----      -----    -----      108BH    0003H
  +--> ?PR?_WRITEBUF_AT24C02?EEPROM

?PR?_CARDDELETEKEY?CARD                    -----    -----      -----    -----      107DH    0003H
  +--> ?PR?_CLEARBUF?DRIVER
  +--> ?PR?_MEMISEMPTY?DRIVER
  +--> ?PR?_DELCARDBYCARD?CARD
  +--> ?PR?_DELCARDBYROOM?CARD
BL51 BANKED LINKER/LOCATER V6.22.2.0                                                  06/01/2022  09:37:04  PAGE 20


  +--> ?PR?SHOWDELETEOK?SYSSTRING
  +--> ?PR?SHOWCONFIRMDEL?SYSSTRING
  +--> ?PR?CARDSETCON?CARD
  +--> ?PR?_SHOWCARD?CARD

?PR?_DELCARDBYCARD?CARD                    -----    -----      -----    -----      1080H    0003H
  +--> ?PR?_DELCARDBYIDX?CARD
  +--> ?PR?_CHECKCARD?CARD

?PR?_DELCARDBYIDX?CARD                     -----    -----      -----    -----      1083H    0008H
  +--> ?PR?SAVECARDCOUNT?CARD
  +--> ?PR?_READCARDBYIDX?CARD
  +--> ?PR?_WRITECARDBYIDX?CARD

?PR?_CHECKCARD?CARD                        -----    -----      -----    -----      1083H    000BH
  +--> ?PR?_READCARDBYIDX?CARD
  +--> ?CO?CARD
  +--> ?PR?PRINTF?PRINTF

?PR?_DELCARDBYROOM?CARD                    -----    -----      -----    -----      1080H    0002H
  +--> ?PR?_DELCARDBYIDX?CARD
  +--> ?PR?_GETIDXBYROOM?SYSSTATUS

?PR?_CARDDELALLKEY?CARD                    -----    -----      -----    -----      -----    -----
  +--> ?PR?CLEARCARD?CARD
  +--> ?PR?SHOWDELETEOK?SYSSTRING
  +--> ?PR?CARDSETCON?CARD

?PR?_SYSTALKKEY?SYSSTATUS                  -----    -----      -----    -----      107DH    0001H
  +--> ?PR?_GSM_SEND_DTMF?GSM
  +--> ?PR?GSM_HUANGUP?GSM
  +--> ?PR?SYSIDLECON?SYSSTATUS
  +--> ?PR?_GSM_SETVOLUM?GSM

?PR?_GSM_SEND_DTMF?GSM                     -----    -----      -----    -----      107EH    000EH
  +--> ?CO?GSM
  +--> ?PR?_PRINTSTRING3?UART

?PR?_SYSSUBSETKEY?SYSSTATUS                -----    -----      -----    -----      107DH    0001H
  +--> ?PR?SHOWSUBPARA?SYSSTATUS
  +--> ?PR?_SAVESUBPARA?SYSSTATUS
  +--> ?PR?SYSSETTINGCON?SYSSTATUS

?PR?_SAVESUBPARA?SYSSTATUS                 -----    -----      -----    -----      107EH    0002H
  +--> ?PR?_WRITEBUF_AT24C02?EEPROM
  +--> ?PR?SHOWSAVEOK?SYSSTRING

?PR?SKEYSCAN?DRIVER                        -----    -----      -----    -----      -----    -----
  +--> ?PR?_UNLOCK?DRIVER
  +--> ?CO?DRIVER
  +--> ?PR?PRINTF?PRINTF
  +--> ?PR?INITSYSPARA?SYSSTATUS
  +--> ?PR?SHOWRESET?SYSSTRING

?PR?SHOWRESET?SYSSTRING                    -----    -----      -----    -----      -----    -----
  +--> ?PR?LCDCLEAR?LCD12864
  +--> ?CO?SYSSTRING
BL51 BANKED LINKER/LOCATER V6.22.2.0                                                  06/01/2022  09:37:04  PAGE 21


  +--> ?PR?_DISPLAYSTRING?LCD12864

?PR?GSM_INITTASK?GSM                       -----    -----      -----    -----      -----    -----
  +--> ?PR?GSM_STARTINIT?GSM
  +--> ?CO?GSM
  +--> ?PR?PRINTF?PRINTF
  +--> ?PR?_PRINTSTRING3?UART
  +--> ?PR?GSM_REPOWER?GSM
  +--> ?PR?GSM_GETCSQ?GSM
  +--> ?PR?GSM_HUANGUP?GSM
  +--> ?PR?_STRLEN?DRIVER
  +--> ?PR?SHOWERR?SYSSTRING
  +--> ?PR?_GSM_SETVOLUM?GSM
  +--> ?PR?_CALLBYNAMEITEM?NAMELIST
  +--> ?PR?SYSIDLECON?SYSSTATUS

?PR?GSM_GETCSQ?GSM                         -----    -----      -----    -----      -----    -----
  +--> ?CO?GSM
  +--> ?PR?PRINTF?PRINTF

?PR?FLASHTASK?LCD12864                     -----    -----      -----    -----      -----    -----
  +--> ?PR?_DISPLAYFL?LCD12864

?PR?_DISPLAYFL?LCD12864                    0020H.0  0000H.1    -----    -----      -----    -----
  +--> ?PR?_LCD_WCMD?LCD12864
  +--> ?PR?_LCD_WDAT?LCD12864

?PR?SHOWTALKTIME?SYSSTRING                 -----    -----      -----    -----      -----    -----
  +--> ?PR?LCDCLEAR?LCD12864
  +--> ?CO?SYSSTRING
  +--> ?PR?_DISPLAYSTRING?LCD12864
  +--> ?PR?PRINTF?PRINTF

?PR?CHECKRFIDCARD?CARDREAD                 -----    -----      -----    -----      107CH    0008H
  +--> ?CO?CARDREAD
  +--> ?PR?PRINTF?PRINTF

?PR?_SYSCARD?SYSSTATUS                     -----    -----      -----    -----      107CH    0003H
  +--> ?PR?_CARDEDITCARDIN?CARD
  +--> ?PR?_CHECKCARD?CARD
  +--> ?PR?_UNLOCK?DRIVER
  +--> ?PR?SHOWCARDERR?SYSSTRING

?PR?_CARDEDITCARDIN?CARD                   -----    -----      -----    -----      107FH    0003H
  +--> ?PR?_HS_MEMCPY?DRIVER
  +--> ?PR?_SHOWCARD?CARD

?PR?SHOWCARDERR?SYSSTRING                  -----    -----      -----    -----      -----    -----
  +--> ?PR?LCDCLEAR?LCD12864
  +--> ?CO?SYSSTRING
  +--> ?PR?_DISPLAYSTRING?LCD12864
  +--> ?PR?_MP3_STARTPLAY?AUDIO

?C_INITSEG                                 -----    -----      -----    -----      -----    -----
  +--> ?CO?GSM
  +--> ?PR?_ATCMDCB_AT?GSM
  +--> ?PR?_ATCMDCB_CPIN?GSM
BL51 BANKED LINKER/LOCATER V6.22.2.0                                                  06/01/2022  09:37:04  PAGE 22


  +--> ?PR?_ATCMDCB_CREG?GSM
  +--> ?PR?_ATCMDCB_CSQ?GSM

?PR?_ATCMDCB_AT?GSM                        -----    -----      -----    -----      -----    -----
  +--> ?CO?GSM
  +--> ?PR?_LOOKFORSTR?DRIVER

?PR?_ATCMDCB_CPIN?GSM                      -----    -----      -----    -----      107CH    0009H
  +--> ?CO?GSM
  +--> ?PR?_LOOKFORSTR?DRIVER
  +--> ?PR?_STRLEN?DRIVER
  +--> ?PR?SCANF?SCANF
  +--> ?PR?PRINTF?PRINTF

?PR?_ATCMDCB_CREG?GSM                      -----    -----      -----    -----      107CH    0009H
  +--> ?CO?GSM
  +--> ?PR?_LOOKFORSTR?DRIVER
  +--> ?PR?_STRLEN?DRIVER
  +--> ?PR?SCANF?SCANF
  +--> ?PR?PRINTF?PRINTF

?PR?_ATCMDCB_CSQ?GSM                       -----    -----      -----    -----      107CH    0009H
  +--> ?CO?GSM
  +--> ?PR?_LOOKFORSTR?DRIVER
  +--> ?PR?_STRLEN?DRIVER
  +--> ?PR?SCANF?SCANF
  +--> ?PR?PRINTF?PRINTF

*** NEW ROOT ***************************************************

?PR?TIMER0_INT?TIMER                       -----    -----      -----    -----      -----    -----
  +--> ?PR?KEYBEEPTASK?AUDIO

*** NEW ROOT ***************************************************

?PR?TIMER4_INT?TIMER                       -----    -----      -----    -----      -----    -----
  +--> ?PR?PWMTASK?AUDIO

*** NEW ROOT ***************************************************

?PR?EXT_INT0?EXTI                          -----    -----      -----    -----      -----    -----
  +--> ?PR?CARDIRQ?CARDREAD



SYMBOL TABLE OF MODULE:  .\Objects\GSM (?C_STARTUP)

  VALUE           TYPE          NAME
  ----------------------------------

  -------         MODULE        ?C_STARTUP
  C:7AC0H         SEGMENT       ?C_C51STARTUP
  I:0024H         SEGMENT       ?STACK
  C:0000H         PUBLIC        ?C_STARTUP
  D:00E0H         SYMBOL        ACC
  D:00F0H         SYMBOL        B
  D:0083H         SYMBOL        DPH
BL51 BANKED LINKER/LOCATER V6.22.2.0                                                  06/01/2022  09:37:04  PAGE 23


  D:0082H         SYMBOL        DPL
  N:0000H         SYMBOL        IBPSTACK
  N:0100H         SYMBOL        IBPSTACKTOP
  N:0080H         SYMBOL        IDATALEN
  C:7AC3H         SYMBOL        IDATALOOP
  N:0000H         SYMBOL        PBPSTACK
  N:0100H         SYMBOL        PBPSTACKTOP
  N:0000H         SYMBOL        PDATALEN
  N:0000H         SYMBOL        PDATASTART
  N:0000H         SYMBOL        PPAGE
  N:0000H         SYMBOL        PPAGEENABLE
  D:00A0H         SYMBOL        PPAGE_SFR
  D:0081H         SYMBOL        SP
  C:7AC0H         SYMBOL        STARTUP1
  N:0000H         SYMBOL        XBPSTACK
  N:0000H         SYMBOL        XBPSTACKTOP
  N:0000H         SYMBOL        XDATALEN
  N:0000H         SYMBOL        XDATASTART
  C:0000H         LINE#         126
  C:7AC0H         LINE#         133
  C:7AC2H         LINE#         134
  C:7AC3H         LINE#         135
  C:7AC4H         LINE#         136
  C:7AC6H         LINE#         185
  C:7AC9H         LINE#         196
  -------         ENDMOD        ?C_STARTUP

  -------         MODULE        MAIN
  C:0000H         SYMBOL        _ICE_DUMMY_
  D:0080H         PUBLIC        P0
  D:0090H         PUBLIC        P1
  D:00A0H         PUBLIC        P2
  D:00B0H         PUBLIC        P3
  D:00C0H         PUBLIC        P4
  D:00C8H         PUBLIC        P5
  B:00A8H.7       PUBLIC        EA
  D:00E8H         PUBLIC        P6
  D:00F8H         PUBLIC        P7
  D:00A8H         PUBLIC        IE
  X:139DH         PUBLIC        MainTime
  D:00B8H         PUBLIC        IP
  D:00D8H         PUBLIC        CCON
  C:4C37H         PUBLIC        main
  B:0080H.1       PUBLIC        P01
  B:00C0H.0       PUBLIC        P40
  D:0098H         PUBLIC        SCON
  D:0088H         PUBLIC        TCON
  D:00F0H         PUBLIC        B
  D:00E0H         PUBLIC        ACC
  X:139FH         PUBLIC        UsrKey
  D:00D0H         PUBLIC        PSW
  -------         PROC          MAIN
  C:4C37H         LINE#         18
  C:4C37H         LINE#         19
  C:4C37H         LINE#         20
  C:4C3EH         LINE#         21
  C:4C40H         LINE#         22
BL51 BANKED LINKER/LOCATER V6.22.2.0                                                  06/01/2022  09:37:04  PAGE 24


  C:4C43H         LINE#         23
  C:4C46H         LINE#         24
  C:4C49H         LINE#         25
  C:4C4CH         LINE#         26
  C:4C4FH         LINE#         28
  C:4C52H         LINE#         29
  C:4C55H         LINE#         31
  C:4C5CH         LINE#         32
  C:4C5FH         LINE#         33
  C:4C61H         LINE#         34
  C:4C68H         LINE#         35
  C:4C6DH         LINE#         36
  C:4C70H         LINE#         37
  C:4C77H         LINE#         38
  C:4C7AH         LINE#         39
  C:4C7DH         LINE#         40
  C:4C80H         LINE#         45
  C:4C80H         LINE#         46
  C:4C80H         LINE#         47
  C:4C86H         LINE#         48
  C:4C86H         LINE#         50
  C:4C8FH         LINE#         51
  C:4C92H         LINE#         52
  C:4C92H         LINE#         53
  C:4C98H         LINE#         54
  C:4C98H         LINE#         55
  C:4CAFH         LINE#         56
  C:4CC0H         LINE#         57
  C:4CC3H         LINE#         58
  C:4CC3H         LINE#         67
  C:4CC6H         LINE#         69
  C:4CCDH         LINE#         70
  C:4CCDH         LINE#         71
  C:4CDAH         LINE#         72
  C:4CE6H         LINE#         73
  C:4CE6H         LINE#         74
  C:4CF2H         LINE#         75
  C:4CF2H         LINE#         76
  C:4CFEH         LINE#         77
  C:4CFEH         LINE#         78
  C:4D0AH         LINE#         79
  C:4D0AH         LINE#         80
  C:4D0FH         LINE#         81
  C:4D0FH         LINE#         82
  C:4D15H         LINE#         83
  C:4D15H         LINE#         84
  C:4D17H         LINE#         86
  C:4D1AH         LINE#         87
  C:4D22H         LINE#         88
  C:4D25H         LINE#         89
  C:4D25H         LINE#         92
  C:4D2AH         LINE#         96
  C:4D3BH         LINE#         97
  C:4D43H         LINE#         98
  C:4D43H         LINE#         99
  C:4D46H         LINE#         101
  C:4D49H         LINE#         102
BL51 BANKED LINKER/LOCATER V6.22.2.0                                                  06/01/2022  09:37:04  PAGE 25


  C:4D4CH         LINE#         103
  C:4D4FH         LINE#         104
  C:4D67H         LINE#         105
  C:4D67H         LINE#         106
  C:4D6EH         LINE#         107
  C:4D70H         LINE#         108
  C:4D73H         LINE#         109
  C:4D91H         LINE#         110
  C:4D91H         LINE#         111
  C:4D9FH         LINE#         112
  C:4D9FH         LINE#         113
  C:4DA2H         LINE#         114
  C:4DA2H         LINE#         115
  C:4DA2H         LINE#         116
  C:4DA9H         LINE#         117
  C:4DA9H         LINE#         118
  C:4DACH         LINE#         120
  C:4DC4H         LINE#         121
  C:4DC4H         LINE#         122
  C:4DC7H         LINE#         123
  C:4DCAH         LINE#         124
  C:4DCAH         LINE#         125
  C:4DCAH         LINE#         127
  C:4DD0H         LINE#         128
  C:4DD8H         LINE#         129
  C:4DF5H         LINE#         130
  C:4DF5H         LINE#         131
  C:4DFDH         LINE#         132
  C:4DFDH         LINE#         142
  C:4DFDH         LINE#         144
  C:4E13H         LINE#         145
  C:4E13H         LINE#         146
  C:4E21H         LINE#         147
  C:4E28H         LINE#         148
  C:4E28H         LINE#         149
  C:4E2DH         LINE#         150
  C:4E2DH         LINE#         151
  C:4E2DH         LINE#         153
  C:4E2DH         LINE#         155
  C:4E37H         LINE#         156
  C:4E37H         LINE#         161
  C:4E39H         LINE#         162
  C:4E39H         LINE#         163
  C:4E3FH         LINE#         164
  C:4E3FH         LINE#         165
  C:4E42H         LINE#         166
  C:4E45H         LINE#         167
  C:4E45H         LINE#         169
  C:4E4AH         LINE#         173
  C:4E53H         LINE#         174
  C:4E53H         LINE#         175
  C:4E56H         LINE#         176
  C:4E56H         LINE#         177
  -------         ENDPROC       MAIN
  -------         ENDMOD        MAIN

  -------         MODULE        DRIVER
BL51 BANKED LINKER/LOCATER V6.22.2.0                                                  06/01/2022  09:37:04  PAGE 26


  C:0000H         SYMBOL        _ICE_DUMMY_
  D:0080H         PUBLIC        P0
  D:0090H         PUBLIC        P1
  D:00A0H         PUBLIC        P2
  D:00B0H         PUBLIC        P3
  D:00C0H         PUBLIC        P4
  D:00C8H         PUBLIC        P5
  D:00E8H         PUBLIC        P6
  D:00F8H         PUBLIC        P7
  C:8EB9H         PUBLIC        _ClearBuf
  X:1389H         PUBLIC        DtmfData
  C:71D3H         PUBLIC        GPIO_config
  C:89B0H         PUBLIC        _HS_memcpy
  D:00A8H         PUBLIC        IE
  C:9080H         PUBLIC        _delay
  C:9514H         PUBLIC        RelayTask
  C:86F3H         PUBLIC        UART_config
  D:00B8H         PUBLIC        IP
  C:90A6H         PUBLIC        _strlen
  D:00D8H         PUBLIC        CCON
  C:8699H         PUBLIC        _HS_strcpy
  C:6739H         PUBLIC        SkeyScan
  X:138AH         PUBLIC        SkeyStatus
  C:9605H         PUBLIC        _HBstrlen
  C:6ACBH         PUBLIC        KeyScan
  B:00C0H.0       PUBLIC        P40
  B:0080H.4       PUBLIC        P04
  D:0098H         PUBLIC        SCON
  B:00C0H.1       PUBLIC        P41
  B:0080H.5       PUBLIC        P05
  D:0088H         PUBLIC        TCON
  B:0080H.6       PUBLIC        P06
  B:00F8H.0       PUBLIC        P70
  B:00C0H.3       PUBLIC        P43
  B:00F8H.1       PUBLIC        P71
  B:00F8H.2       PUBLIC        P72
  B:00C8H.4       PUBLIC        P54
  B:00F8H.3       PUBLIC        P73
  B:00C8H.5       PUBLIC        P55
  D:00F0H         PUBLIC        B
  X:138BH         PUBLIC        ResetKeyTime
  D:00E0H         PUBLIC        ACC
  X:138DH         PUBLIC        SkeyStatusOld
  C:6FEFH         PUBLIC        _lookforstr
  C:87F3H         PUBLIC        Timer_config
  C:93DAH         PUBLIC        _Unlock
  C:8E5DH         PUBLIC        _MemIsEmpty
  C:94FBH         PUBLIC        Exti_config
  D:00D0H         PUBLIC        PSW
  X:138EH         PUBLIC        Rly1Time
  C:97F2H         PUBLIC        _putchar
  -------         PROC          _DELAY
  D:0006H         SYMBOL        t
  -------         DO            
  D:0004H         SYMBOL        i
  D:0002H         SYMBOL        j
  -------         ENDDO         
BL51 BANKED LINKER/LOCATER V6.22.2.0                                                  06/01/2022  09:37:04  PAGE 27


  C:9080H         LINE#         14
  C:9080H         LINE#         15
  C:9080H         LINE#         17
  C:9087H         LINE#         18
  C:9090H         LINE#         19
  C:90A5H         LINE#         20
  -------         ENDPROC       _DELAY
  -------         PROC          _PUTCHAR
  X:114CH         SYMBOL        ch
  C:97F2H         LINE#         22
  C:97F7H         LINE#         23
  C:97F7H         LINE#         24
  C:97FAH         LINE#         25
  C:97FFH         LINE#         26
  -------         ENDPROC       _PUTCHAR
  -------         PROC          _STRLEN
  X:1124H         SYMBOL        pch
  -------         DO            
  D:0007H         SYMBOL        len
  -------         ENDDO         
  C:90A6H         LINE#         27
  C:90B1H         LINE#         28
  C:90B1H         LINE#         29
  C:90B3H         LINE#         30
  C:90CBH         LINE#         31
  C:90CBH         LINE#         32
  -------         ENDPROC       _STRLEN
  -------         PROC          _HBSTRLEN
  D:0001H         SYMBOL        pch
  -------         DO            
  D:0007H         SYMBOL        len
  -------         ENDDO         
  C:9605H         LINE#         33
  C:9605H         LINE#         34
  C:9605H         LINE#         35
  C:9607H         LINE#         36
  C:960CH         LINE#         37
  C:960CH         LINE#         38
  C:960DH         LINE#         39
  C:9610H         LINE#         40
  C:9610H         LINE#         41
  C:9611H         LINE#         42
  C:9611H         LINE#         43
  C:9618H         LINE#         44
  C:961AH         LINE#         45
  C:961AH         LINE#         46
  -------         ENDPROC       _HBSTRLEN
  -------         PROC          _LOOKFORSTR
  X:10D5H         SYMBOL        srcBuf
  X:10D8H         SYMBOL        detBuf
  -------         DO            
  X:10DBH         SYMBOL        i
  X:10DDH         SYMBOL        j
  -------         ENDDO         
  C:6FEFH         LINE#         48
  C:6FFAH         LINE#         49
  C:6FFAH         LINE#         51
BL51 BANKED LINKER/LOCATER V6.22.2.0                                                  06/01/2022  09:37:04  PAGE 28


  C:7001H         LINE#         52
  C:7005H         LINE#         53
  C:7024H         LINE#         54
  C:7024H         LINE#         55
  C:7038H         LINE#         56
  C:7038H         LINE#         57
  C:7059H         LINE#         58
  C:7059H         LINE#         59
  C:709AH         LINE#         60
  C:709AH         LINE#         61
  C:709AH         LINE#         62
  C:709AH         LINE#         63
  C:70AAH         LINE#         64
  C:70C5H         LINE#         65
  C:70C5H         LINE#         66
  C:70CEH         LINE#         67
  C:70CEH         LINE#         68
  C:70CEH         LINE#         69
  C:70DFH         LINE#         70
  C:70E2H         LINE#         71
  C:70E6H         LINE#         72
  -------         ENDPROC       _LOOKFORSTR
  -------         PROC          _CLEARBUF
  X:1124H         SYMBOL        buf
  D:0004H         SYMBOL        len
  C:8EB9H         LINE#         74
  C:8EC4H         LINE#         75
  C:8EC4H         LINE#         76
  C:8ECEH         LINE#         77
  C:8ECEH         LINE#         78
  C:8EE2H         LINE#         79
  C:8EE4H         LINE#         80
  -------         ENDPROC       _CLEARBUF
  -------         PROC          _HS_MEMCPY
  X:10D0H         SYMBOL        dst
  X:10D3H         SYMBOL        src
  X:10D6H         SYMBOL        len
  C:89B0H         LINE#         81
  C:89BBH         LINE#         82
  C:89BBH         LINE#         83
  C:89C9H         LINE#         84
  C:89C9H         LINE#         85
  C:89F1H         LINE#         86
  C:89F3H         LINE#         87
  -------         ENDPROC       _HS_MEMCPY
  -------         PROC          _HS_STRCPY
  X:109CH         SYMBOL        dst
  X:109FH         SYMBOL        src
  -------         DO            
  D:0006H         SYMBOL        i
  -------         ENDDO         
  C:8699H         LINE#         88
  C:86A4H         LINE#         89
  C:86A4H         LINE#         90
  C:86A7H         LINE#         91
  C:86B7H         LINE#         92
  C:86B7H         LINE#         93
BL51 BANKED LINKER/LOCATER V6.22.2.0                                                  06/01/2022  09:37:04  PAGE 29


  C:86DDH         LINE#         94
  C:86E2H         LINE#         95
  C:86E4H         LINE#         96
  -------         ENDPROC       _HS_STRCPY
  -------         PROC          _MEMISEMPTY
  X:10C5H         SYMBOL        buf
  D:0004H         SYMBOL        len
  C:8E5DH         LINE#         99
  C:8E68H         LINE#         100
  C:8E68H         LINE#         101
  C:8E72H         LINE#         102
  C:8E72H         LINE#         103
  C:8E87H         LINE#         104
  C:8E87H         LINE#         105
  C:8E89H         LINE#         106
  C:8E89H         LINE#         107
  C:8E89H         LINE#         108
  C:8E8AH         LINE#         109
  -------         ENDPROC       _MEMISEMPTY
  -------         PROC          GPIO_CONFIG
  -------         DO            
  X:107CH         SYMBOL        GPIO_InitStructure
  -------         ENDDO         
  C:71D3H         LINE#         111
  C:71D3H         LINE#         112
  C:71D3H         LINE#         114
  C:71D9H         LINE#         118
  C:71DEH         LINE#         119
  C:71E9H         LINE#         121
  C:71F4H         LINE#         124
  C:71FFH         LINE#         126
  C:7205H         LINE#         127
  C:7210H         LINE#         129
  C:7216H         LINE#         130
  C:7220H         LINE#         132
  C:7226H         LINE#         133
  C:7231H         LINE#         135
  C:7237H         LINE#         136
  C:7242H         LINE#         138
  C:7248H         LINE#         139
  C:7253H         LINE#         142
  C:7259H         LINE#         144
  C:725DH         LINE#         145
  C:7268H         LINE#         147
  C:726EH         LINE#         148
  C:7279H         LINE#         150
  C:727FH         LINE#         151
  C:728AH         LINE#         153
  C:7290H         LINE#         154
  C:729BH         LINE#         156
  C:72A1H         LINE#         157
  C:72ACH         LINE#         159
  C:72AEH         LINE#         160
  C:72B0H         LINE#         162
  C:72B2H         LINE#         163
  C:72B4H         LINE#         164
  C:72B6H         LINE#         166
BL51 BANKED LINKER/LOCATER V6.22.2.0                                                  06/01/2022  09:37:04  PAGE 30


  C:72B8H         LINE#         167
  C:72BAH         LINE#         170
  -------         ENDPROC       GPIO_CONFIG
  -------         PROC          UART_CONFIG
  -------         DO            
  X:107CH         SYMBOL        COMx_InitStructure
  -------         ENDDO         
  C:86F3H         LINE#         172
  C:86F3H         LINE#         173
  C:86F3H         LINE#         175
  C:86F9H         LINE#         176
  C:86FDH         LINE#         177
  C:8705H         LINE#         178
  C:870BH         LINE#         179
  C:870EH         LINE#         180
  C:8711H         LINE#         181
  C:8713H         LINE#         182
  C:8716H         LINE#         183
  C:8721H         LINE#         184
  C:872AH         LINE#         187
  C:8730H         LINE#         188
  C:873BH         LINE#         189
  C:8740H         LINE#         190
  -------         ENDPROC       UART_CONFIG
  -------         PROC          TIMER_CONFIG
  -------         DO            
  X:107CH         SYMBOL        TIM_InitStructure
  -------         ENDDO         
  C:87F3H         LINE#         203
  C:87F3H         LINE#         204
  C:87F3H         LINE#         206
  C:87F8H         LINE#         207
  C:87FAH         LINE#         208
  C:87FDH         LINE#         209
  C:8800H         LINE#         210
  C:8802H         LINE#         211
  C:880AH         LINE#         212
  C:880EH         LINE#         214
  C:8818H         LINE#         216
  C:8822H         LINE#         217
  C:882DH         LINE#         219
  C:8837H         LINE#         220
  -------         ENDPROC       TIMER_CONFIG
  -------         PROC          EXTI_CONFIG
  -------         DO            
  X:107CH         SYMBOL        Exti_InitStructure
  -------         ENDDO         
  C:94FBH         LINE#         224
  C:94FBH         LINE#         225
  C:94FBH         LINE#         228
  C:9501H         LINE#         229
  C:9506H         LINE#         230
  C:950AH         LINE#         231
  -------         ENDPROC       EXTI_CONFIG
  -------         PROC          KEYSCAN
  -------         DO            
  X:1385H         SYMBOL        KeyStep
BL51 BANKED LINKER/LOCATER V6.22.2.0                                                  06/01/2022  09:37:04  PAGE 31


  X:1386H         SYMBOL        KeyTime
  X:107CH         SYMBOL        key
  -------         ENDDO         
  C:6ACBH         LINE#         238
  C:6ACBH         LINE#         239
  C:6ACBH         LINE#         243
  C:6AEBH         LINE#         244
  C:6AEBH         LINE#         245
  C:6AEBH         LINE#         246
  C:6AEEH         LINE#         247
  C:6AF9H         LINE#         248
  C:6AF9H         LINE#         249
  C:6AFFH         LINE#         250
  C:6B05H         LINE#         251
  C:6B05H         LINE#         252
  C:6B08H         LINE#         253
  C:6B08H         LINE#         254
  C:6B10H         LINE#         255
  C:6B10H         LINE#         256
  C:6B11H         LINE#         257
  C:6B14H         LINE#         258
  C:6B1FH         LINE#         259
  C:6B1FH         LINE#         260
  C:6B25H         LINE#         261
  C:6B25H         LINE#         262
  C:6B28H         LINE#         263
  C:6B28H         LINE#         264
  C:6B30H         LINE#         265
  C:6B33H         LINE#         266
  C:6B39H         LINE#         267
  C:6B3CH         LINE#         268
  C:6B3CH         LINE#         269
  C:6B42H         LINE#         270
  C:6B45H         LINE#         271
  C:6B4BH         LINE#         272
  C:6B86H         LINE#         273
  C:6B86H         LINE#         274
  C:6B86H         LINE#         275
  C:6B89H         LINE#         276
  C:6B89H         LINE#         277
  C:6B8CH         LINE#         278
  C:6B8CH         LINE#         279
  C:6B8FH         LINE#         280
  C:6B8FH         LINE#         281
  C:6B92H         LINE#         282
  C:6B92H         LINE#         283
  C:6B95H         LINE#         284
  C:6B95H         LINE#         285
  C:6B98H         LINE#         286
  C:6B98H         LINE#         287
  C:6B9BH         LINE#         288
  C:6B9BH         LINE#         289
  C:6B9EH         LINE#         290
  C:6B9EH         LINE#         291
  C:6BA1H         LINE#         292
  C:6BA1H         LINE#         293
  C:6BA4H         LINE#         294
BL51 BANKED LINKER/LOCATER V6.22.2.0                                                  06/01/2022  09:37:04  PAGE 32


  C:6BA4H         LINE#         295
  C:6BA7H         LINE#         296
  C:6BA7H         LINE#         297
  C:6BAAH         LINE#         298
  C:6BAAH         LINE#         299
  C:6BADH         LINE#         300
  C:6BADH         LINE#         301
  C:6BB0H         LINE#         302
  C:6BB0H         LINE#         303
  C:6BB3H         LINE#         304
  C:6BB3H         LINE#         305
  C:6BB6H         LINE#         306
  C:6BB6H         LINE#         307
  C:6BB6H         LINE#         308
  C:6BB6H         LINE#         309
  C:6BBEH         LINE#         310
  C:6BBEH         LINE#         311
  C:6BC4H         LINE#         312
  C:6BC8H         LINE#         313
  C:6BC8H         LINE#         314
  C:6BCAH         LINE#         315
  C:6BCAH         LINE#         316
  C:6BD2H         LINE#         317
  C:6BD2H         LINE#         318
  C:6BD8H         LINE#         319
  C:6BDAH         LINE#         320
  C:6BE2H         LINE#         321
  C:6BE2H         LINE#         322
  C:6BE6H         LINE#         323
  C:6BE6H         LINE#         324
  C:6BE6H         LINE#         326
  C:6BE6H         LINE#         327
  C:6BE8H         LINE#         328
  -------         ENDPROC       KEYSCAN
  -------         PROC          SKEYSCAN
  -------         DO            
  X:1387H         SYMBOL        SkeyStep
  X:1388H         SYMBOL        SkeyTime
  D:0007H         SYMBOL        key
  -------         ENDDO         
  C:6739H         LINE#         333
  C:6739H         LINE#         334
  C:6739H         LINE#         338
  C:6739H         LINE#         339
  C:6746H         LINE#         340
  C:6746H         LINE#         341
  C:6746H         LINE#         342
  C:674DH         LINE#         343
  C:6755H         LINE#         344
  C:675DH         LINE#         345
  C:6765H         LINE#         346
  C:676BH         LINE#         348
  C:6772H         LINE#         349
  C:6772H         LINE#         350
  C:6778H         LINE#         351
  C:677EH         LINE#         352
  C:677EH         LINE#         353
BL51 BANKED LINKER/LOCATER V6.22.2.0                                                  06/01/2022  09:37:04  PAGE 33


  C:6780H         LINE#         354
  C:6780H         LINE#         355
  C:6787H         LINE#         356
  C:678FH         LINE#         357
  C:6797H         LINE#         358
  C:679FH         LINE#         359
  C:67A5H         LINE#         361
  C:67ACH         LINE#         362
  C:67ACH         LINE#         363
  C:67B1H         LINE#         364
  C:67B3H         LINE#         365
  C:67BBH         LINE#         366
  C:67BBH         LINE#         367
  C:67BFH         LINE#         368
  C:67C4H         LINE#         369
  C:67C4H         LINE#         370
  C:67C4H         LINE#         372
  C:67C4H         LINE#         373
  C:67D1H         LINE#         374
  C:67D1H         LINE#         376
  C:67E2H         LINE#         377
  C:67E2H         LINE#         378
  C:67EEH         LINE#         379
  C:67F7H         LINE#         380
  C:67F7H         LINE#         381
  C:680CH         LINE#         382
  C:680CH         LINE#         383
  C:6818H         LINE#         384
  C:6821H         LINE#         385
  C:6821H         LINE#         386
  C:6831H         LINE#         387
  C:6831H         LINE#         388
  C:6839H         LINE#         389
  C:6842H         LINE#         390
  C:6842H         LINE#         391
  C:6842H         LINE#         392
  C:6842H         LINE#         394
  C:6842H         LINE#         395
  C:6842H         LINE#         396
  C:6842H         LINE#         398
  C:6842H         LINE#         399
  C:684AH         LINE#         400
  C:684AH         LINE#         401
  C:6851H         LINE#         402
  C:6851H         LINE#         403
  C:685BH         LINE#         404
  C:685BH         LINE#         405
  C:6869H         LINE#         406
  C:6869H         LINE#         407
  C:686EH         LINE#         408
  C:6871H         LINE#         409
  C:687AH         LINE#         410
  C:687AH         LINE#         411
  C:687AH         LINE#         412
  C:687AH         LINE#         413
  -------         ENDPROC       SKEYSCAN
  -------         PROC          _UNLOCK
BL51 BANKED LINKER/LOCATER V6.22.2.0                                                  06/01/2022  09:37:04  PAGE 34


  D:0007H         SYMBOL        idx
  D:0005H         SYMBOL        time
  B:0020H.0       SYMBOL        sound
  C:93DAH         LINE#         416
  C:93DAH         LINE#         417
  C:93DAH         LINE#         418
  C:93E6H         LINE#         419
  C:93E9H         LINE#         420
  C:93E9H         LINE#         421
  C:93EBH         LINE#         422
  C:93EDH         LINE#         423
  C:93F1H         LINE#         424
  C:93F1H         LINE#         425
  C:93F3H         LINE#         426
  C:93F3H         LINE#         427
  -------         ENDPROC       _UNLOCK
  -------         PROC          RELAYTASK
  C:9514H         LINE#         429
  C:9514H         LINE#         430
  C:9514H         LINE#         431
  C:951AH         LINE#         432
  C:951AH         LINE#         433
  C:951EH         LINE#         434
  C:951EH         LINE#         435
  C:9520H         LINE#         436
  C:9520H         LINE#         437
  C:9520H         LINE#         438
  C:9526H         LINE#         439
  C:9526H         LINE#         440
  C:952AH         LINE#         441
  C:952AH         LINE#         442
  C:952CH         LINE#         443
  C:952CH         LINE#         444
  C:952CH         LINE#         445
  -------         ENDPROC       RELAYTASK
  -------         ENDMOD        DRIVER

  -------         MODULE        LCD12864
  C:0000H         SYMBOL        _ICE_DUMMY_
  C:94ABH         PUBLIC        LcdClear
  D:0080H         PUBLIC        P0
  D:0090H         PUBLIC        P1
  D:00A0H         PUBLIC        P2
  X:089EH         PUBLIC        FlashTime
  D:00B0H         PUBLIC        P3
  C:8432H         PUBLIC        _DisplayCsq
  D:00C0H         PUBLIC        P4
  D:00C8H         PUBLIC        P5
  C:0136H         PUBLIC        AsciiFont
  D:00E8H         PUBLIC        P6
  C:8CABH         PUBLIC        FlashTask
  D:00F8H         PUBLIC        P7
  C:7B4CH         PUBLIC        _DisplayFl
  D:00A8H         PUBLIC        IE
  C:9772H         PUBLIC        LCDAddRow
  D:00B8H         PUBLIC        IP
  C:981EH         PUBLIC        _SetFlash
BL51 BANKED LINKER/LOCATER V6.22.2.0                                                  06/01/2022  09:37:04  PAGE 35


  C:8275H         PUBLIC        _WriteLCDico
  B:0022H.6       PUBLIC        bRight2Left
  D:00D8H         PUBLIC        CCON
  C:9437H         PUBLIC        _CheckUnicode
  X:08A0H         PUBLIC        mapGDRAM
  D:0098H         PUBLIC        SCON
  D:0088H         PUBLIC        TCON
  C:00A6H         PUBLIC        IcoFont
  B:00C8H.2       PUBLIC        P52
  B:00C8H.3       PUBLIC        P53
  B:00C0H.4       PUBLIC        P44
  B:0022H.7       PUBLIC        flg
  D:00F0H         PUBLIC        B
  C:9591H         PUBLIC        _lcd_wcmd
  C:8093H         PUBLIC        _BitBlt
  C:931DH         PUBLIC        _lcd_wdat
  D:00E0H         PUBLIC        ACC
  X:0CA0H         SYMBOL        lcdCol
  C:961BH         PUBLIC        _DisplayString
  C:941AH         PUBLIC        lcd_busy
  C:635DH         PUBLIC        _WriteLCD
  X:0CA1H         PUBLIC        Fl_X
  X:0CA2H         PUBLIC        Fl_Y
  X:0CA3H         SYMBOL        lcdRow
  C:973DH         PUBLIC        _DisplayIco
  C:0736H         PUBLIC        HebrewFont
  D:00D0H         PUBLIC        PSW
  C:9218H         PUBLIC        Init_12864
  -------         PROC          LCD_BUSY
  -------         DO            
  B:0020H.2       SYMBOL        result
  -------         ENDDO         
  C:941AH         LINE#         8
  C:941AH         LINE#         9
  C:941AH         LINE#         12
  C:941DH         LINE#         13
  C:941FH         LINE#         14
  C:9421H         LINE#         15
  C:9423H         LINE#         16
  C:9425H         LINE#         17
  C:9430H         LINE#         18
  C:9434H         LINE#         20
  C:9436H         LINE#         21
  -------         ENDPROC       LCD_BUSY
  -------         PROC          _LCD_WCMD
  D:0007H         SYMBOL        cmd
  C:9591H         LINE#         27
  C:9591H         LINE#         28
  C:9591H         LINE#         29
  C:9596H         LINE#         31
  C:9598H         LINE#         32
  C:959AH         LINE#         33
  C:959CH         LINE#         34
  C:959DH         LINE#         35
  C:959EH         LINE#         36
  C:95A0H         LINE#         37
  C:95A2H         LINE#         39
BL51 BANKED LINKER/LOCATER V6.22.2.0                                                  06/01/2022  09:37:04  PAGE 36


  C:95A4H         LINE#         40
  C:95A6H         LINE#         41
  C:95A8H         LINE#         42
  -------         ENDPROC       _LCD_WCMD
  -------         PROC          L?0070
  -------         ENDPROC       L?0070
  -------         PROC          _LCD_WDAT
  D:0007H         SYMBOL        dat
  C:931DH         LINE#         49
  C:931DH         LINE#         50
  C:931DH         LINE#         51
  C:9322H         LINE#         53
  C:9324H         LINE#         54
  C:9326H         LINE#         55
  C:9328H         LINE#         56
  C:932AH         LINE#         57
  C:932CH         LINE#         59
  C:932EH         LINE#         60
  C:9330H         LINE#         61
  C:9332H         LINE#         62
  -------         ENDPROC       _LCD_WDAT
  -------         PROC          INIT_12864
  C:9218H         LINE#         63
  C:9218H         LINE#         64
  C:9218H         LINE#         65
  C:921AH         LINE#         67
  C:921FH         LINE#         69
  C:9221H         LINE#         70
  C:9224H         LINE#         71
  C:9226H         LINE#         72
  C:922BH         LINE#         73
  C:922DH         LINE#         74
  C:9232H         LINE#         75
  C:9234H         LINE#         76
  C:9239H         LINE#         77
  C:923BH         LINE#         78
  -------         ENDPROC       INIT_12864
  -------         PROC          LCDCLEAR
  C:94ABH         LINE#         80
  C:94ABH         LINE#         81
  C:94ABH         LINE#         82
  C:94B0H         LINE#         83
  C:94B2H         LINE#         85
  C:94BFH         LINE#         87
  -------         ENDPROC       LCDCLEAR
  -------         PROC          _BITBLT
  X:1124H         SYMBOL        pBmp
  -------         DO            
  X:1127H         SYMBOL        i
  D:0006H         SYMBOL        j
  X:1128H         SYMBOL        pNextFrame
  -------         ENDDO         
  C:8093H         LINE#         158
  C:809EH         LINE#         159
  C:809EH         LINE#         161
  C:80B0H         LINE#         163
  C:80B5H         LINE#         164
BL51 BANKED LINKER/LOCATER V6.22.2.0                                                  06/01/2022  09:37:04  PAGE 37


  C:80B5H         LINE#         165
  C:80BAH         LINE#         166
  C:80C4H         LINE#         167
  C:80C9H         LINE#         168
  C:80CEH         LINE#         170
  C:80D4H         LINE#         172
  C:80D6H         LINE#         173
  C:80D6H         LINE#         174
  C:80DCH         LINE#         175
  C:80E6H         LINE#         176
  C:80EBH         LINE#         177
  C:80EDH         LINE#         178
  C:80EDH         LINE#         179
  C:80F3H         LINE#         180
  C:80FDH         LINE#         181
  C:8102H         LINE#         183
  C:810EH         LINE#         184
  -------         ENDPROC       _BITBLT
  -------         PROC          _DISPLAYFL
  D:0006H         SYMBOL        X
  D:0005H         SYMBOL        Y
  B:0020H.0       SYMBOL        e
  C:7B4CH         LINE#         186
  C:7B4EH         LINE#         187
  C:7B4EH         LINE#         189
  C:7B53H         LINE#         190
  C:7B6DH         LINE#         191
  C:7B85H         LINE#         192
  C:7B8AH         LINE#         193
  C:7B8EH         LINE#         194
  C:7B8EH         LINE#         195
  C:7BAFH         LINE#         196
  C:7BAFH         LINE#         197
  -------         ENDPROC       _DISPLAYFL
  -------         PROC          _CHECKUNICODE
  D:0001H         SYMBOL        pInfo
  C:9437H         LINE#         204
  C:9437H         LINE#         205
  C:9437H         LINE#         206
  C:9441H         LINE#         207
  C:9441H         LINE#         208
  C:9447H         LINE#         209
  C:9447H         LINE#         210
  C:9449H         LINE#         211
  C:9449H         LINE#         212
  C:9450H         LINE#         213
  C:9452H         LINE#         214
  C:9453H         LINE#         215
  -------         ENDPROC       _CHECKUNICODE
  -------         PROC          LCDADDROW
  C:9772H         LINE#         216
  C:9772H         LINE#         217
  C:9772H         LINE#         218
  C:9778H         LINE#         219
  C:977CH         LINE#         220
  C:9781H         LINE#         221
  -------         ENDPROC       LCDADDROW
BL51 BANKED LINKER/LOCATER V6.22.2.0                                                  06/01/2022  09:37:04  PAGE 38


  -------         PROC          _WRITELCD
  X:1124H         SYMBOL        pInfo
  -------         DO            
  X:1127H         SYMBOL        x
  D:0007H         SYMBOL        y
  X:1128H         SYMBOL        c
  X:1129H         SYMBOL        Font
  D:0006H         SYMBOL        iUnicode
  -------         ENDDO         
  C:635DH         LINE#         222
  C:6368H         LINE#         223
  C:6368H         LINE#         230
  C:636DH         LINE#         232
  C:637BH         LINE#         234
  C:6396H         LINE#         235
  C:6396H         LINE#         237
  C:639BH         LINE#         239
  C:63A1H         LINE#         240
  C:63A7H         LINE#         246
  C:63AAH         LINE#         247
  C:63AAH         LINE#         249
  C:63B8H         LINE#         250
  C:63C2H         LINE#         251
  C:63C2H         LINE#         252
  C:63C8H         LINE#         253
  C:63D6H         LINE#         254
  C:63D8H         LINE#         256
  C:63D8H         LINE#         257
  C:63E2H         LINE#         261
  C:63E2H         LINE#         266
  C:63E6H         LINE#         267
  C:63E9H         LINE#         268
  C:63E9H         LINE#         269
  C:63FCH         LINE#         270
  C:640EH         LINE#         271
  C:6430H         LINE#         272
  C:6430H         LINE#         276
  C:6430H         LINE#         277
  C:6430H         LINE#         278
  C:6430H         LINE#         279
  C:6436H         LINE#         280
  C:643DH         LINE#         281
  C:643DH         LINE#         282
  C:6442H         LINE#         283
  C:6447H         LINE#         284
  C:6447H         LINE#         286
  C:644AH         LINE#         287
  C:6454H         LINE#         288
  C:6454H         LINE#         289
  C:6456H         LINE#         290
  C:6456H         LINE#         291
  C:6497H         LINE#         292
  C:649CH         LINE#         293
  C:64A6H         LINE#         294
  C:64A9H         LINE#         296
  -------         ENDPROC       _WRITELCD
  -------         PROC          _WRITELCDICO
BL51 BANKED LINKER/LOCATER V6.22.2.0                                                  06/01/2022  09:37:04  PAGE 39


  X:1089H         SYMBOL        Row
  X:108AH         SYMBOL        Col
  D:0003H         SYMBOL        ico
  X:108CH         SYMBOL        mask
  -------         DO            
  D:0007H         SYMBOL        y
  X:108DH         SYMBOL        Font
  -------         ENDDO         
  C:8275H         LINE#         298
  C:827DH         LINE#         299
  C:827DH         LINE#         303
  C:8296H         LINE#         304
  C:8298H         LINE#         305
  C:8298H         LINE#         306
  C:82DFH         LINE#         307
  C:82E4H         LINE#         308
  -------         ENDPROC       _WRITELCDICO
  -------         PROC          _DISPLAYSTRING
  D:0007H         SYMBOL        X
  D:0005H         SYMBOL        Y
  D:0001H         SYMBOL        ptr
  C:961BH         LINE#         310
  C:961BH         LINE#         311
  C:961BH         LINE#         312
  C:9620H         LINE#         313
  C:9625H         LINE#         314
  C:9628H         LINE#         315
  -------         ENDPROC       _DISPLAYSTRING
  -------         PROC          _DISPLAYICO
  D:0007H         SYMBOL        X
  D:0005H         SYMBOL        Y
  D:0003H         SYMBOL        ico
  C:973DH         LINE#         318
  C:973DH         LINE#         319
  C:973DH         LINE#         320
  C:9746H         LINE#         321
  -------         ENDPROC       _DISPLAYICO
  -------         PROC          _DISPLAYCSQ
  X:13A0H         SYMBOL        X
  X:13A1H         SYMBOL        Y
  D:0004H         SYMBOL        csq
  -------         DO            
  D:0006H         SYMBOL        i
  X:13A2H         SYMBOL        msk
  -------         ENDDO         
  C:8432H         LINE#         323
  C:843CH         LINE#         324
  C:843CH         LINE#         326
  C:843FH         LINE#         327
  C:8445H         LINE#         328
  C:844AH         LINE#         329
  C:844AH         LINE#         330
  C:844CH         LINE#         331
  C:844CH         LINE#         332
  C:8453H         LINE#         333
  C:8453H         LINE#         334
  C:845CH         LINE#         335
BL51 BANKED LINKER/LOCATER V6.22.2.0                                                  06/01/2022  09:37:04  PAGE 40


  C:845FH         LINE#         336
  C:8462H         LINE#         337
  C:8480H         LINE#         338
  C:8494H         LINE#         339
  -------         ENDPROC       _DISPLAYCSQ
  -------         PROC          _SETFLASH
  D:0007H         SYMBOL        X
  D:0005H         SYMBOL        Y
  C:981EH         LINE#         346
  C:981EH         LINE#         347
  C:981EH         LINE#         348
  C:9823H         LINE#         349
  C:9826H         LINE#         350
  -------         ENDPROC       _SETFLASH
  -------         PROC          FLASHTASK
  C:8CABH         LINE#         351
  C:8CABH         LINE#         352
  C:8CABH         LINE#         353
  C:8CB9H         LINE#         354
  C:8CB9H         LINE#         356
  C:8CB9H         LINE#         357
  C:8CCCH         LINE#         358
  C:8CCCH         LINE#         359
  C:8CD3H         LINE#         360
  C:8CDAH         LINE#         361
  C:8CDCH         LINE#         362
  C:8CDCH         LINE#         363
  -------         ENDPROC       FLASHTASK
  -------         ENDMOD        LCD12864

  -------         MODULE        GSM
  C:0000H         SYMBOL        _ICE_DUMMY_
  C:5D98H         PUBLIC        _AtCmdCb_cpin
  X:124EH         PUBLIC        StrSetVolum
  D:0080H         PUBLIC        P0
  D:0090H         PUBLIC        P1
  D:00A0H         PUBLIC        P2
  C:8F11H         PUBLIC        _GSM_send_dtmf
  D:00B0H         PUBLIC        P3
  D:00C0H         PUBLIC        P4
  D:00C8H         PUBLIC        P5
  D:00E8H         PUBLIC        P6
  D:00F8H         PUBLIC        P7
  C:7F0DH         PUBLIC        _GSM_SetVolum
  C:29B7H         PUBLIC        _ModemReceiveHandle
  D:00A8H         PUBLIC        IE
  C:8F3CH         PUBLIC        GSM_GetCsq
  D:00B8H         PUBLIC        IP
  C:61F4H         PUBLIC        _AtCmdCb_csq
  X:1262H         PUBLIC        TalkTime
  D:00D8H         PUBLIC        CCON
  C:952DH         PUBLIC        GSM_Huangup
  C:8DA1H         PUBLIC        _AtCmdCb_at
  B:0080H.0       PUBLIC        P00
  C:923CH         PUBLIC        GSM_Repower
  X:1264H         PUBLIC        GsmStatus
  D:0098H         PUBLIC        SCON
BL51 BANKED LINKER/LOCATER V6.22.2.0                                                  06/01/2022  09:37:04  PAGE 41


  B:00C0H.1       PUBLIC        P41
  D:0088H         PUBLIC        TCON
  B:00F8H.0       PUBLIC        P70
  B:0021H.2       PUBLIC        WaitCsq
  D:00F0H         PUBLIC        B
  C:3470H         SYMBOL        _?ix1000
  C:856FH         PUBLIC        _GSM_Call
  D:00E0H         PUBLIC        ACC
  X:1265H         PUBLIC        CallInTime
  X:1267H         PUBLIC        CallOutTime
  B:0021H.3       PUBLIC        GsmCsqFlag
  X:1269H         PUBLIC        GsmInitTime
  X:126BH         PUBLIC        GsmCsq
  X:126CH         PUBLIC        PaOpenTime
  B:0021H.4       PUBLIC        GsmCallOk
  C:8DD0H         PUBLIC        _AtCmdCb_clcc
  X:126DH         PUBLIC        AtCmdBuf
  C:9333H         PUBLIC        GSM_StartInit
  X:12BBH         PUBLIC        AtCmdIdx
  C:347DH         PUBLIC        GSM_InitTask
  C:6084H         PUBLIC        _AtCmdCb_creg
  X:12BCH         PUBLIC        AtCmdRetryTime
  D:00D0H         PUBLIC        PSW
  C:69AAH         PUBLIC        _GsmUARTCmd
  -------         PROC          _ATCMDCB_AT
  D:0001H         SYMBOL        pRspStr
  -------         DO            
  D:0001H         SYMBOL        p
  X:1249H         SYMBOL        count
  -------         ENDDO         
  C:8DA1H         LINE#         21
  C:8DA1H         LINE#         22
  C:8DA1H         LINE#         26
  C:8DA1H         LINE#         34
  C:8DBAH         LINE#         35
  C:8DBAH         LINE#         36
  C:8DBDH         LINE#         37
  C:8DBDH         LINE#         40
  C:8DC8H         LINE#         41
  C:8DC8H         LINE#         42
  C:8DCAH         LINE#         43
  C:8DCDH         LINE#         44
  C:8DCDH         LINE#         45
  C:8DCFH         LINE#         46
  -------         ENDPROC       _ATCMDCB_AT
  -------         PROC          _ATCMDCB_CPIN
  D:0001H         SYMBOL        pRspStr
  -------         DO            
  X:107CH         SYMBOL        rspValue
  C:343AH         SYMBOL        rspStrTable
  X:107DH         SYMBOL        rspType
  X:107FH         SYMBOL        n
  X:1080H         SYMBOL        stat
  X:1081H         SYMBOL        i
  X:1082H         SYMBOL        p
  X:124AH         SYMBOL        count
  -------         ENDDO         
BL51 BANKED LINKER/LOCATER V6.22.2.0                                                  06/01/2022  09:37:04  PAGE 42


  C:5D98H         LINE#         48
  C:5D98H         LINE#         49
  C:5D98H         LINE#         50
  C:5D9DH         LINE#         52
  C:5DA3H         LINE#         53
  C:5DA6H         LINE#         54
  C:5DA8H         LINE#         55
  C:5DAAH         LINE#         56
  C:5DB3H         LINE#         65
  C:5DC5H         LINE#         66
  C:5DC5H         LINE#         67
  C:5DFEH         LINE#         68
  C:5DFEH         LINE#         69
  C:5E0DH         LINE#         70
  C:5E11H         LINE#         71
  C:5E72H         LINE#         72
  C:5E72H         LINE#         73
  C:5E74H         LINE#         74
  C:5E74H         LINE#         75
  C:5E7DH         LINE#         79
  C:5E96H         LINE#         80
  C:5E96H         LINE#         81
  C:5E96H         LINE#         82
  C:5E9CH         LINE#         83
  C:5EA1H         LINE#         85
  C:5EA3H         LINE#         86
  C:5EA3H         LINE#         87
  C:5EACH         LINE#         88
  C:5EACH         LINE#         89
  C:5EB2H         LINE#         90
  C:5EB7H         LINE#         91
  C:5EB9H         LINE#         92
  C:5EB9H         LINE#         93
  C:5EBEH         LINE#         94
  C:5EC4H         LINE#         95
  C:5EC4H         LINE#         96
  C:5ECAH         LINE#         98
  C:5ECCH         LINE#         99
  C:5ECCH         LINE#         100
  C:5ED5H         LINE#         101
  C:5ED5H         LINE#         102
  C:5EDBH         LINE#         103
  C:5EE0H         LINE#         104
  C:5EE2H         LINE#         105
  C:5EE2H         LINE#         106
  C:5EE7H         LINE#         107
  C:5EEDH         LINE#         108
  C:5EEDH         LINE#         109
  C:5EEFH         LINE#         111
  C:5EEFH         LINE#         112
  C:5EF5H         LINE#         114
  C:5EFBH         LINE#         115
  C:5EFBH         LINE#         116
  C:5EFBH         LINE#         117
  C:5EFBH         LINE#         118
  C:5EFBH         LINE#         120
  C:5F0CH         LINE#         121
BL51 BANKED LINKER/LOCATER V6.22.2.0                                                  06/01/2022  09:37:04  PAGE 43


  C:5F11H         LINE#         122
  -------         ENDPROC       _ATCMDCB_CPIN
  -------         PROC          _ATCMDCB_CREG
  D:0001H         SYMBOL        pRspStr
  -------         DO            
  X:107CH         SYMBOL        rspValue
  C:3446H         SYMBOL        rspStrTable
  X:107DH         SYMBOL        rspType
  X:107FH         SYMBOL        n
  X:1080H         SYMBOL        stat
  X:1081H         SYMBOL        i
  X:1082H         SYMBOL        p
  D:0006H         SYMBOL        tmp
  X:124BH         SYMBOL        count
  -------         ENDDO         
  C:6084H         LINE#         124
  C:6084H         LINE#         125
  C:6084H         LINE#         126
  C:6089H         LINE#         128
  C:608FH         LINE#         129
  C:6092H         LINE#         130
  C:6094H         LINE#         131
  C:6096H         LINE#         132
  C:609FH         LINE#         142
  C:60B1H         LINE#         143
  C:60B1H         LINE#         144
  C:60E2H         LINE#         145
  C:60EDH         LINE#         146
  C:60EDH         LINE#         147
  C:60F6H         LINE#         148
  C:6105H         LINE#         149
  C:610CH         LINE#         150
  C:616DH         LINE#         151
  C:6186H         LINE#         152
  C:6186H         LINE#         153
  C:6188H         LINE#         154
  C:6188H         LINE#         155
  C:6191H         LINE#         159
  C:61A3H         LINE#         160
  C:61A3H         LINE#         162
  C:61A3H         LINE#         163
  C:61ACH         LINE#         164
  C:61ACH         LINE#         165
  C:61ACH         LINE#         166
  C:61AEH         LINE#         173
  C:61AEH         LINE#         174
  C:61B5H         LINE#         175
  C:61B5H         LINE#         176
  C:61BAH         LINE#         177
  C:61BAH         LINE#         178
  C:61BCH         LINE#         179
  C:61BCH         LINE#         180
  C:61C5H         LINE#         184
  C:61CBH         LINE#         187
  C:61D0H         LINE#         188
  C:61D2H         LINE#         189
  C:61D2H         LINE#         190
BL51 BANKED LINKER/LOCATER V6.22.2.0                                                  06/01/2022  09:37:04  PAGE 44


  C:61D7H         LINE#         191
  C:61DDH         LINE#         192
  C:61DDH         LINE#         193
  C:61DDH         LINE#         194
  C:61DDH         LINE#         196
  C:61DDH         LINE#         197
  C:61DDH         LINE#         198
  C:61DDH         LINE#         200
  C:61EEH         LINE#         202
  C:61F3H         LINE#         203
  -------         ENDPROC       _ATCMDCB_CREG
  -------         PROC          _ATCMDCB_CSQ
  D:0001H         SYMBOL        pRspStr
  -------         DO            
  X:107CH         SYMBOL        rspValue
  C:344CH         SYMBOL        rspStrTable
  X:107DH         SYMBOL        rspType
  X:107FH         SYMBOL        csq
  X:1080H         SYMBOL        stat
  X:1081H         SYMBOL        i
  X:1082H         SYMBOL        p
  D:0006H         SYMBOL        tmp
  X:124CH         SYMBOL        count
  -------         ENDDO         
  C:61F4H         LINE#         204
  C:61F4H         LINE#         205
  C:61F4H         LINE#         206
  C:61F9H         LINE#         208
  C:61FFH         LINE#         209
  C:6202H         LINE#         210
  C:6204H         LINE#         211
  C:6206H         LINE#         212
  C:620FH         LINE#         216
  C:6211H         LINE#         224
  C:6223H         LINE#         225
  C:6223H         LINE#         226
  C:6254H         LINE#         227
  C:625FH         LINE#         228
  C:625FH         LINE#         229
  C:6268H         LINE#         230
  C:6277H         LINE#         231
  C:627EH         LINE#         232
  C:62DFH         LINE#         233
  C:62F8H         LINE#         234
  C:62F8H         LINE#         235
  C:62FAH         LINE#         236
  C:62FAH         LINE#         237
  C:6303H         LINE#         241
  C:6315H         LINE#         242
  C:6315H         LINE#         244
  C:6315H         LINE#         245
  C:631CH         LINE#         246
  C:6322H         LINE#         247
  C:6327H         LINE#         248
  C:6329H         LINE#         249
  C:6329H         LINE#         250
  C:632EH         LINE#         251
BL51 BANKED LINKER/LOCATER V6.22.2.0                                                  06/01/2022  09:37:04  PAGE 45


  C:6334H         LINE#         252
  C:6334H         LINE#         253
  C:6336H         LINE#         255
  C:6336H         LINE#         256
  C:633EH         LINE#         257
  C:6340H         LINE#         258
  C:6346H         LINE#         259
  C:6346H         LINE#         261
  C:6346H         LINE#         262
  C:6346H         LINE#         263
  C:6346H         LINE#         265
  C:6357H         LINE#         267
  C:635CH         LINE#         268
  -------         ENDPROC       _ATCMDCB_CSQ
  -------         PROC          _ATCMDCB_CLCC
  D:0001H         SYMBOL        pRspStr
  -------         DO            
  D:0001H         SYMBOL        p
  X:124DH         SYMBOL        count
  -------         ENDDO         
  C:8DD0H         LINE#         270
  C:8DD0H         LINE#         271
  C:8DD0H         LINE#         275
  C:8DD0H         LINE#         277
  C:8DE9H         LINE#         278
  C:8DE9H         LINE#         279
  C:8DECH         LINE#         280
  C:8DECH         LINE#         281
  C:8DF7H         LINE#         282
  C:8DF7H         LINE#         283
  C:8DF9H         LINE#         284
  C:8DFCH         LINE#         285
  C:8DFCH         LINE#         286
  C:8DFEH         LINE#         287
  -------         ENDPROC       _ATCMDCB_CLCC
  -------         PROC          GSM_REPOWER
  C:923CH         LINE#         329
  C:923CH         LINE#         330
  C:923CH         LINE#         331
  C:9245H         LINE#         332
  C:924BH         LINE#         333
  C:9255H         LINE#         336
  C:9257H         LINE#         338
  -------         ENDPROC       GSM_REPOWER
  -------         PROC          GSM_STARTINIT
  C:9333H         LINE#         340
  C:9333H         LINE#         341
  C:9333H         LINE#         342
  C:9335H         LINE#         343
  C:933FH         LINE#         344
  C:9345H         LINE#         346
  C:934BH         LINE#         347
  C:934DH         LINE#         348
  -------         ENDPROC       GSM_STARTINIT
  -------         PROC          GSM_GETCSQ
  C:8F3CH         LINE#         351
  C:8F3CH         LINE#         352
BL51 BANKED LINKER/LOCATER V6.22.2.0                                                  06/01/2022  09:37:04  PAGE 46


  C:8F3CH         LINE#         353
  C:8F44H         LINE#         354
  C:8F44H         LINE#         356
  C:8F44H         LINE#         357
  C:8F4EH         LINE#         358
  C:8F54H         LINE#         359
  C:8F5AH         LINE#         360
  C:8F5CH         LINE#         361
  C:8F65H         LINE#         362
  -------         ENDPROC       GSM_GETCSQ
  -------         PROC          _GSM_SETVOLUM
  X:1088H         SYMBOL        volum
  C:7F0DH         LINE#         363
  C:7F12H         LINE#         364
  C:7F12H         LINE#         365
  C:7F1CH         LINE#         366
  C:7F22H         LINE#         367
  C:7F28H         LINE#         369
  C:7F42H         LINE#         374
  C:7F5FH         LINE#         375
  -------         ENDPROC       _GSM_SETVOLUM
  -------         PROC          _GSM_CALL
  X:1096H         SYMBOL        tel
  C:856FH         LINE#         381
  C:857AH         LINE#         382
  C:857AH         LINE#         383
  C:858BH         LINE#         384
  C:858BH         LINE#         385
  C:8594H         LINE#         386
  C:85A2H         LINE#         387
  C:85ABH         LINE#         388
  C:85B8H         LINE#         389
  C:85C0H         LINE#         390
  C:85C6H         LINE#         391
  C:85C8H         LINE#         394
  C:85CDH         LINE#         395
  C:85CFH         LINE#         396
  C:85D1H         LINE#         397
  C:85D1H         LINE#         398
  C:85D2H         LINE#         399
  -------         ENDPROC       _GSM_CALL
  -------         PROC          GSM_HUANGUP
  C:952DH         LINE#         400
  C:952DH         LINE#         401
  C:952DH         LINE#         402
  C:952FH         LINE#         404
  C:9538H         LINE#         409
  C:953EH         LINE#         410
  C:9545H         LINE#         411
  -------         ENDPROC       GSM_HUANGUP
  -------         PROC          GSM_INITTASK
  C:347DH         LINE#         413
  C:347DH         LINE#         414
  C:347DH         LINE#         415
  C:34B1H         LINE#         416
  C:34B1H         LINE#         417
  C:34B1H         LINE#         418
BL51 BANKED LINKER/LOCATER V6.22.2.0                                                  06/01/2022  09:37:04  PAGE 47


  C:34C2H         LINE#         419
  C:34C2H         LINE#         420
  C:34C4H         LINE#         421
  C:34CEH         LINE#         422
  C:34D3H         LINE#         423
  C:34D7H         LINE#         424
  C:34D7H         LINE#         425
  C:34D8H         LINE#         426
  C:34D8H         LINE#         427
  C:34E9H         LINE#         428
  C:34E9H         LINE#         429
  C:34ECH         LINE#         430
  C:34ECH         LINE#         431
  C:34ECH         LINE#         432
  C:34ECH         LINE#         433
  C:34FDH         LINE#         434
  C:34FDH         LINE#         435
  C:34FFH         LINE#         436
  C:3509H         LINE#         437
  C:350FH         LINE#         438
  C:3515H         LINE#         439
  C:3515H         LINE#         440
  C:3518H         LINE#         441
  C:3518H         LINE#         442
  C:3529H         LINE#         443
  C:3529H         LINE#         444
  C:352BH         LINE#         445
  C:3535H         LINE#         446
  C:353BH         LINE#         447
  C:3541H         LINE#         448
  C:3541H         LINE#         449
  C:3544H         LINE#         450
  C:3544H         LINE#         451
  C:3555H         LINE#         452
  C:3555H         LINE#         454
  C:355BH         LINE#         455
  C:3560H         LINE#         456
  C:3562H         LINE#         459
  C:3581H         LINE#         463
  C:358FH         LINE#         465
  C:35ABH         LINE#         466
  C:35B5H         LINE#         467
  C:35BBH         LINE#         468
  C:35BBH         LINE#         469
  C:35BDH         LINE#         470
  C:35BDH         LINE#         471
  C:35CEH         LINE#         472
  C:35CEH         LINE#         473
  C:35DDH         LINE#         474
  C:35DDH         LINE#         475
  C:35F5H         LINE#         476
  C:35FFH         LINE#         477
  C:3618H         LINE#         478
  C:3618H         LINE#         480
  C:3618H         LINE#         481
  C:3644H         LINE#         482
  C:3647H         LINE#         483
BL51 BANKED LINKER/LOCATER V6.22.2.0                                                  06/01/2022  09:37:04  PAGE 48


  C:3647H         LINE#         484
  C:3647H         LINE#         485
  C:3647H         LINE#         486
  C:3647H         LINE#         487
  C:3658H         LINE#         488
  C:3658H         LINE#         489
  C:365BH         LINE#         490
  C:365BH         LINE#         491
  C:365BH         LINE#         492
  C:365BH         LINE#         493
  C:366CH         LINE#         494
  C:366CH         LINE#         495
  C:3676H         LINE#         496
  C:368EH         LINE#         497
  C:369CH         LINE#         498
  C:369CH         LINE#         499
  C:369FH         LINE#         500
  C:36A6H         LINE#         510
  C:36C1H         LINE#         511
  C:36C1H         LINE#         512
  C:36C7H         LINE#         513
  C:36D1H         LINE#         515
  C:36D1H         LINE#         517
  C:36D4H         LINE#         518
  C:36DDH         LINE#         519
  C:36DDH         LINE#         521
  C:36DDH         LINE#         522
  C:36E6H         LINE#         525
  C:36E6H         LINE#         526
  C:36E6H         LINE#         527
  C:36E6H         LINE#         528
  C:36E6H         LINE#         529
  C:36F7H         LINE#         530
  C:36F7H         LINE#         531
  C:3701H         LINE#         532
  C:3712H         LINE#         533
  C:3712H         LINE#         534
  C:371BH         LINE#         535
  C:3721H         LINE#         536
  C:3727H         LINE#         538
  C:3729H         LINE#         540
  C:3738H         LINE#         541
  C:3741H         LINE#         542
  C:3744H         LINE#         543
  C:3744H         LINE#         545
  C:3744H         LINE#         549
  C:3744H         LINE#         550
  C:3744H         LINE#         551
  C:3744H         LINE#         552
  C:3744H         LINE#         553
  C:3752H         LINE#         554
  C:3752H         LINE#         555
  C:375CH         LINE#         561
  C:375CH         LINE#         562
  C:375DH         LINE#         563
  C:375DH         LINE#         564
  C:376BH         LINE#         565
BL51 BANKED LINKER/LOCATER V6.22.2.0                                                  06/01/2022  09:37:04  PAGE 49


  C:376BH         LINE#         566
  C:3775H         LINE#         567
  C:3783H         LINE#         568
  C:3783H         LINE#         569
  C:378CH         LINE#         570
  C:378CH         LINE#         571
  C:378FH         LINE#         572
  C:379CH         LINE#         573
  C:379CH         LINE#         574
  C:37A3H         LINE#         576
  C:37A3H         LINE#         577
  C:37A3H         LINE#         578
  C:37A6H         LINE#         579
  C:37A9H         LINE#         580
  C:37A9H         LINE#         581
  C:37A9H         LINE#         582
  C:37A9H         LINE#         583
  C:37A9H         LINE#         584
  C:37A9H         LINE#         585
  C:37A9H         LINE#         586
  -------         ENDPROC       GSM_INITTASK
  -------         PROC          _MODEMRECEIVEHANDLE
  D:0001H         SYMBOL        buf
  -------         DO            
  C:3452H         SYMBOL        rspStrTable
  X:107FH         SYMBOL        rspType
  X:1081H         SYMBOL        i
  X:1083H         SYMBOL        p
  X:1086H         SYMBOL        j
  X:1087H         SYMBOL        stat
  -------         ENDDO         
  C:29B7H         LINE#         588
  C:29B7H         LINE#         589
  C:29B7H         LINE#         601
  C:29BFH         LINE#         602
  C:29C4H         LINE#         603
  C:29CDH         LINE#         606
  C:29E6H         LINE#         607
  C:29E6H         LINE#         608
  C:2A24H         LINE#         609
  C:2A24H         LINE#         610
  C:2A33H         LINE#         611
  C:2A35H         LINE#         612
  C:2A35H         LINE#         613
  C:2A45H         LINE#         614
  C:2A81H         LINE#         615
  C:2A81H         LINE#         616
  C:2A81H         LINE#         617
  C:2A81H         LINE#         618
  C:2A81H         LINE#         619
  C:2A93H         LINE#         620
  C:2A93H         LINE#         622
  C:2A96H         LINE#         623
  C:2A9FH         LINE#         624
  C:2A9FH         LINE#         625
  C:2AA2H         LINE#         626
  C:2AA2H         LINE#         627
BL51 BANKED LINKER/LOCATER V6.22.2.0                                                  06/01/2022  09:37:04  PAGE 50


  C:2AA2H         LINE#         629
  C:2AC4H         LINE#         630
  C:2AC4H         LINE#         631
  C:2ACAH         LINE#         632
  C:2ACFH         LINE#         634
  C:2ACFH         LINE#         635
  C:2ADAH         LINE#         636
  C:2ADAH         LINE#         638
  C:2ADAH         LINE#         639
  C:2ADAH         LINE#         640
  C:2ADAH         LINE#         641
  C:2ADDH         LINE#         642
  C:2ADDH         LINE#         645
  C:2AE8H         LINE#         646
  C:2AE8H         LINE#         647
  C:2AEBH         LINE#         649
  C:2AF2H         LINE#         650
  C:2AF2H         LINE#         651
  C:2AFBH         LINE#         652
  C:2AFCH         LINE#         654
  C:2AFCH         LINE#         655
  C:2AFFH         LINE#         656
  C:2AFFH         LINE#         657
  C:2AFFH         LINE#         669
  C:2AFFH         LINE#         670
  C:2AFFH         LINE#         671
  C:2AFFH         LINE#         672
  C:2B2DH         LINE#         673
  C:2B3CH         LINE#         674
  C:2B3CH         LINE#         675
  C:2B61H         LINE#         676
  C:2BA1H         LINE#         677
  C:2BB2H         LINE#         679
  C:2BB8H         LINE#         680
  C:2BB8H         LINE#         681
  C:2BBEH         LINE#         682
  C:2BC4H         LINE#         684
  C:2BCBH         LINE#         685
  C:2BDAH         LINE#         686
  C:2BE3H         LINE#         687
  C:2BE6H         LINE#         688
  C:2BE8H         LINE#         689
  C:2BE9H         LINE#         690
  C:2BF1H         LINE#         691
  C:2BF1H         LINE#         692
  C:2BF4H         LINE#         693
  C:2BF4H         LINE#         694
  C:2BF6H         LINE#         695
  C:2C03H         LINE#         696
  C:2C03H         LINE#         698
  C:2C10H         LINE#         699
  C:2C10H         LINE#         700
  C:2C19H         LINE#         701
  C:2C1BH         LINE#         702
  C:2C1BH         LINE#         704
  C:2C1CH         LINE#         705
  C:2C27H         LINE#         706
BL51 BANKED LINKER/LOCATER V6.22.2.0                                                  06/01/2022  09:37:04  PAGE 51


  C:2C27H         LINE#         707
  C:2C32H         LINE#         708
  C:2C32H         LINE#         710
  C:2C32H         LINE#         711
  C:2C35H         LINE#         712
  C:2C38H         LINE#         713
  C:2C38H         LINE#         714
  C:2C38H         LINE#         715
  C:2C38H         LINE#         716
  C:2C38H         LINE#         717
  C:2C38H         LINE#         718
  C:2C38H         LINE#         726
  C:2C38H         LINE#         727
  C:2C38H         LINE#         728
  C:2C38H         LINE#         729
  C:2C66H         LINE#         730
  C:2C75H         LINE#         731
  C:2C75H         LINE#         732
  C:2C78H         LINE#         733
  C:2C78H         LINE#         734
  C:2C78H         LINE#         735
  C:2C78H         LINE#         736
  C:2C7AH         LINE#         737
  C:2C7AH         LINE#         738
  C:2C7AH         LINE#         739
  C:2C7AH         LINE#         740
  C:2C7AH         LINE#         741
  C:2C7AH         LINE#         742
  C:2CA8H         LINE#         743
  C:2CB7H         LINE#         744
  C:2CB7H         LINE#         745
  C:2CDCH         LINE#         746
  C:2D04H         LINE#         747
  C:2D0FH         LINE#         748
  C:2D19H         LINE#         749
  C:2D1CH         LINE#         750
  C:2D1CH         LINE#         751
  C:2D1CH         LINE#         752
  C:2D1CH         LINE#         753
  C:2D1CH         LINE#         754
  C:2D1CH         LINE#         755
  C:2D4AH         LINE#         756
  C:2D56H         LINE#         757
  C:2D56H         LINE#         758
  C:2D7BH         LINE#         759
  C:2DA3H         LINE#         760
  C:2DADH         LINE#         761
  C:2DBAH         LINE#         762
  C:2DBAH         LINE#         763
  C:2DBAH         LINE#         764
  C:2DBAH         LINE#         765
  C:2DBAH         LINE#         766
  C:2DBAH         LINE#         767
  -------         ENDPROC       _MODEMRECEIVEHANDLE
  -------         PROC          _GSMUARTCMD
  X:107CH         SYMBOL        buf
  D:0004H         SYMBOL        len
BL51 BANKED LINKER/LOCATER V6.22.2.0                                                  06/01/2022  09:37:04  PAGE 52


  -------         DO            
  D:0007H         SYMBOL        CmdRes
  -------         ENDDO         
  C:69AAH         LINE#         769
  C:69B5H         LINE#         770
  C:69B5H         LINE#         772
  C:69CCH         LINE#         773
  C:69E4H         LINE#         774
  C:69E4H         LINE#         775
  C:69FDH         LINE#         776
  C:69FDH         LINE#         777
  C:6A29H         LINE#         778
  C:6A39H         LINE#         779
  C:6A39H         LINE#         780
  C:6A39H         LINE#         781
  C:6A39H         LINE#         782
  C:6A3EH         LINE#         783
  C:6A48H         LINE#         784
  C:6A48H         LINE#         785
  C:6A4BH         LINE#         786
  C:6A64H         LINE#         787
  C:6A6EH         LINE#         788
  C:6A87H         LINE#         789
  C:6A87H         LINE#         791
  C:6A87H         LINE#         792
  C:6A91H         LINE#         793
  C:6A97H         LINE#         794
  C:6A9FH         LINE#         795
  C:6A9FH         LINE#         796
  C:6A9FH         LINE#         797
  C:6A9FH         LINE#         798
  C:6A9FH         LINE#         799
  C:6A9FH         LINE#         801
  C:6AA1H         LINE#         802
  C:6AA1H         LINE#         804
  C:6AA1H         LINE#         805
  C:6AA1H         LINE#         806
  C:6AA8H         LINE#         807
  C:6AA8H         LINE#         808
  C:6AB2H         LINE#         809
  C:6AB8H         LINE#         810
  C:6AB9H         LINE#         812
  C:6AB9H         LINE#         813
  C:6ABCH         LINE#         814
  C:6ABCH         LINE#         815
  C:6ABCH         LINE#         816
  C:6ABCH         LINE#         817
  C:6ABCH         LINE#         818
  C:6ABCH         LINE#         820
  C:6ABCH         LINE#         821
  C:6ACAH         LINE#         822
  C:6ACAH         LINE#         823
  -------         ENDPROC       _GSMUARTCMD
  -------         PROC          _GSM_SEND_DTMF
  X:107EH         SYMBOL        k
  -------         DO            
  X:107FH         SYMBOL        dtmf_cmd
BL51 BANKED LINKER/LOCATER V6.22.2.0                                                  06/01/2022  09:37:04  PAGE 53


  -------         ENDDO         
  C:8F11H         LINE#         825
  C:8F16H         LINE#         826
  C:8F16H         LINE#         827
  C:8F29H         LINE#         828
  C:8F33H         LINE#         831
  -------         ENDPROC       _GSM_SEND_DTMF
  -------         ENDMOD        GSM

  -------         MODULE        NAMELIST
  C:0000H         SYMBOL        _ICE_DUMMY_
  D:0080H         PUBLIC        P0
  D:0090H         PUBLIC        P1
  D:00A0H         PUBLIC        P2
  B:0023H.2       SYMBOL        NameEditSaved
  D:00B0H         PUBLIC        P3
  D:00C0H         PUBLIC        P4
  D:00C8H         PUBLIC        P5
  C:4A08H         PUBLIC        _NameDeleteKey
  D:00E8H         PUBLIC        P6
  D:00F8H         PUBLIC        P7
  C:8AC2H         PUBLIC        _WriteNameItemByIdx
  X:12BEH         PUBLIC        EditChar
  C:9761H         PUBLIC        _DelNameItemByRoom
  C:9355H         PUBLIC        _ShowNameByIdx
  C:7533H         PUBLIC        NameEditChageType
  C:000EH         PUBLIC        ClearNameList
  D:00A8H         PUBLIC        IE
  C:82E5H         PUBLIC        _DelNameItemByIdx
  C:888DH         PUBLIC        _GetNameItemByRoom
  C:9631H         PUBLIC        DeleteAllNameCon
  D:00B8H         PUBLIC        IP
  X:12BFH         PUBLIC        EditTime
  X:12C1H         PUBLIC        NameEditItem
  C:8187H         PUBLIC        _AddNameItem
  C:92A8H         PUBLIC        SaveNameCount
  D:00D8H         PUBLIC        CCON
  C:40B3H         PUBLIC        _ShowName
  X:1311H         SYMBOL        NameEditType
  X:1312H         SYMBOL        NameEditIdx
  D:0098H         PUBLIC        SCON
  D:0088H         PUBLIC        TCON
  C:1CC8H         PUBLIC        _NameEditKey
  C:96F1H         PUBLIC        InitNameList
  C:0026H         PUBLIC        EditNameItemCon
  D:00F0H         PUBLIC        B
  C:6ED8H         PUBLIC        HBtab
  D:00E0H         PUBLIC        ACC
  C:70E7H         PUBLIC        _CallByNameItem
  C:7BD7H         PUBLIC        NameSetCon
  C:9377H         PUBLIC        _NameSetKey
  C:95A9H         PUBLIC        _NameDelAllKey
  C:0E7EH         PUBLIC        _RevNamelist
  C:8D71H         PUBLIC        _ReadNameItemByIdx
  D:00D0H         PUBLIC        PSW
  C:90CCH         PUBLIC        DeleteNameCon
  -------         PROC          SAVENAMECOUNT
BL51 BANKED LINKER/LOCATER V6.22.2.0                                                  06/01/2022  09:37:04  PAGE 54


  C:92A8H         LINE#         10
  C:92A8H         LINE#         11
  C:92A8H         LINE#         12
  -------         ENDPROC       SAVENAMECOUNT
  -------         PROC          CLEARNAMELIST
  C:000EH         LINE#         15
  C:000EH         LINE#         16
  C:000EH         LINE#         17
  C:0015H         LINE#         18
  -------         ENDPROC       CLEARNAMELIST
  -------         PROC          INITNAMELIST
  C:96F1H         LINE#         21
  C:96F1H         LINE#         22
  C:96F1H         LINE#         23
  C:9700H         LINE#         24
  C:9700H         LINE#         25
  C:9703H         LINE#         26
  C:9703H         LINE#         27
  -------         ENDPROC       INITNAMELIST
  -------         PROC          L?0247
  -------         ENDPROC       L?0247
  -------         PROC          _WRITENAMEITEMBYIDX
  D:0006H         SYMBOL        idx
  X:1122H         SYMBOL        pItem
  -------         DO            
  D:0006H         SYMBOL        addr
  -------         ENDDO         
  C:8AC2H         LINE#         30
  C:8ACDH         LINE#         31
  C:8ACDH         LINE#         32
  C:8ACDH         LINE#         33
  C:8AD4H         LINE#         34
  -------         ENDPROC       _WRITENAMEITEMBYIDX
  -------         PROC          _READNAMEITEMBYIDX
  D:0006H         SYMBOL        idx
  X:1122H         SYMBOL        pItem
  -------         DO            
  D:0006H         SYMBOL        addr
  -------         ENDDO         
  C:8D71H         LINE#         39
  C:8D7CH         LINE#         40
  C:8D7CH         LINE#         41
  C:8D7CH         LINE#         42
  C:8D83H         LINE#         43
  -------         ENDPROC       _READNAMEITEMBYIDX
  -------         PROC          _GETNAMEITEMBYROOM
  D:0006H         SYMBOL        room
  X:10D0H         SYMBOL        pItem
  -------         DO            
  X:10D3H         SYMBOL        idx
  -------         ENDDO         
  C:888DH         LINE#         47
  C:8898H         LINE#         48
  C:8898H         LINE#         49
  C:889EH         LINE#         50
  C:88ABH         LINE#         51
  C:88B2H         LINE#         52
BL51 BANKED LINKER/LOCATER V6.22.2.0                                                  06/01/2022  09:37:04  PAGE 55


  C:88B2H         LINE#         53
  C:88C8H         LINE#         54
  C:88D1H         LINE#         55
  C:88D1H         LINE#         56
  C:88D5H         LINE#         57
  -------         ENDPROC       _GETNAMEITEMBYROOM
  -------         PROC          _ADDNAMEITEM
  X:10D5H         SYMBOL        pItem
  -------         DO            
  X:10D8H         SYMBOL        idx
  -------         ENDDO         
  C:8187H         LINE#         58
  C:8192H         LINE#         59
  C:8192H         LINE#         60
  C:8198H         LINE#         61
  C:81ABH         LINE#         62
  C:81B2H         LINE#         63
  C:81B2H         LINE#         64
  C:81BDH         LINE#         65
  C:81C6H         LINE#         66
  C:81C6H         LINE#         67
  C:81D6H         LINE#         68
  C:81D6H         LINE#         69
  C:81D9H         LINE#         70
  C:81E7H         LINE#         71
  C:81EAH         LINE#         72
  C:81F9H         LINE#         73
  C:81F9H         LINE#         74
  C:81FDH         LINE#         75
  -------         ENDPROC       _ADDNAMEITEM
  -------         PROC          _DELNAMEITEMBYIDX
  X:10D0H         SYMBOL        idx
  -------         DO            
  X:10D2H         SYMBOL        tmpItem
  -------         ENDDO         
  C:82E5H         LINE#         76
  C:82EDH         LINE#         77
  C:82EDH         LINE#         79
  C:82FBH         LINE#         80
  C:82FBH         LINE#         81
  C:830FH         LINE#         82
  C:830FH         LINE#         83
  C:831DH         LINE#         84
  C:8320H         LINE#         85
  C:8320H         LINE#         87
  C:8320H         LINE#         88
  C:832EH         LINE#         89
  C:8331H         LINE#         90
  C:8342H         LINE#         91
  C:8353H         LINE#         92
  C:8353H         LINE#         93
  C:8353H         LINE#         94
  -------         ENDPROC       _DELNAMEITEMBYIDX
  -------         PROC          _DELNAMEITEMBYROOM
  D:0006H         SYMBOL        room
  -------         DO            
  D:0006H         SYMBOL        idx
BL51 BANKED LINKER/LOCATER V6.22.2.0                                                  06/01/2022  09:37:04  PAGE 56


  -------         ENDDO         
  C:9761H         LINE#         95
  C:9761H         LINE#         96
  C:9761H         LINE#         97
  C:9766H         LINE#         98
  C:976EH         LINE#         99
  C:976EH         LINE#         100
  C:9771H         LINE#         101
  C:9771H         LINE#         102
  -------         ENDPROC       _DELNAMEITEMBYROOM
  -------         PROC          _SHOWNAME
  X:10D0H         SYMBOL        pItem
  B:0020H.0       SYMBOL        tel
  -------         DO            
  X:10D3H         SYMBOL        Disbuf
  X:1123H         SYMBOL        i
  -------         ENDDO         
  C:40B3H         LINE#         109
  C:40BEH         LINE#         110
  C:40BEH         LINE#         113
  C:40C1H         LINE#         115
  C:40C7H         LINE#         116
  C:40C7H         LINE#         117
  C:40D9H         LINE#         118
  C:40D9H         LINE#         119
  C:4100H         LINE#         120
  C:4111H         LINE#         121
  C:416AH         LINE#         123
  C:4185H         LINE#         124
  C:4185H         LINE#         126
  C:419CH         LINE#         130
  C:419CH         LINE#         131
  C:41A5H         LINE#         132
  C:41A5H         LINE#         134
  C:41A5H         LINE#         135
  C:41BFH         LINE#         136
  C:41BFH         LINE#         138
  C:41CCH         LINE#         139
  C:41FBH         LINE#         140
  C:4224H         LINE#         142
  C:4238H         LINE#         143
  C:4238H         LINE#         145
  C:4244H         LINE#         149
  C:4244H         LINE#         150
  C:4246H         LINE#         152
  C:4246H         LINE#         153
  C:4253H         LINE#         154
  C:4266H         LINE#         155
  C:4266H         LINE#         157
  C:4275H         LINE#         161
  C:4275H         LINE#         162
  C:4275H         LINE#         164
  C:42B3H         LINE#         165
  C:42C0H         LINE#         166
  C:42D6H         LINE#         167
  C:42D6H         LINE#         169
  C:42EEH         LINE#         170
BL51 BANKED LINKER/LOCATER V6.22.2.0                                                  06/01/2022  09:37:04  PAGE 57


  C:4306H         LINE#         171
  C:430BH         LINE#         172
  C:430BH         LINE#         173
  C:4314H         LINE#         174
  C:4316H         LINE#         176
  C:4316H         LINE#         177
  C:4325H         LINE#         178
  C:4325H         LINE#         182
  C:4325H         LINE#         183
  C:4325H         LINE#         184
  -------         ENDPROC       _SHOWNAME
  -------         PROC          EDITNAMEITEMCON
  C:0026H         LINE#         186
  C:0026H         LINE#         187
  C:0026H         LINE#         188
  C:0033H         LINE#         189
  C:0038H         LINE#         190
  C:003AH         LINE#         191
  C:0040H         LINE#         192
  -------         ENDPROC       EDITNAMEITEMCON
  -------         PROC          NAMEEDITCHAGETYPE
  -------         DO            
  X:107EH         SYMBOL        tmp
  X:1080H         SYMBOL        tmpItem
  -------         ENDDO         
  C:7533H         LINE#         194
  C:7533H         LINE#         195
  C:7533H         LINE#         198
  C:754DH         LINE#         199
  C:754DH         LINE#         200
  C:754DH         LINE#         201
  C:7552H         LINE#         202
  C:7554H         LINE#         203
  C:7561H         LINE#         204
  C:7574H         LINE#         205
  C:7574H         LINE#         206
  C:757AH         LINE#         207
  C:7589H         LINE#         208
  C:758BH         LINE#         209
  C:758BH         LINE#         210
  C:758BH         LINE#         211
  C:759BH         LINE#         212
  C:75ACH         LINE#         213
  C:75ACH         LINE#         214
  C:75CAH         LINE#         215
  C:75CAH         LINE#         216
  C:75D0H         LINE#         217
  C:75D2H         LINE#         218
  C:75D2H         LINE#         219
  C:75D2H         LINE#         220
  C:75D2H         LINE#         221
  C:75ECH         LINE#         222
  C:75EDH         LINE#         223
  C:75EDH         LINE#         224
  C:75F0H         LINE#         225
  C:75F2H         LINE#         226
  C:75F2H         LINE#         227
BL51 BANKED LINKER/LOCATER V6.22.2.0                                                  06/01/2022  09:37:04  PAGE 58


  C:75F2H         LINE#         228
  -------         ENDPROC       NAMEEDITCHAGETYPE
  -------         PROC          _NAMEEDITKEY
  X:107DH         SYMBOL        key
  -------         DO            
  X:12BDH         SYMBOL        OldKey
  D:0007H         SYMBOL        HBtmp
  -------         ENDDO         
  C:1CC8H         LINE#         230
  C:1CCDH         LINE#         231
  C:1CCDH         LINE#         237
  C:1CD4H         LINE#         238
  C:1CD4H         LINE#         239
  C:1CDCH         LINE#         240
  C:1CDCH         LINE#         241
  C:1CDFH         LINE#         242
  C:1CDFH         LINE#         243
  C:1CEBH         LINE#         244
  C:1CF0H         LINE#         245
  C:1CF2H         LINE#         247
  C:1CF2H         LINE#         248
  C:1D10H         LINE#         251
  C:1D10H         LINE#         252
  C:1D21H         LINE#         253
  C:1D21H         LINE#         254
  C:1D24H         LINE#         255
  C:1D26H         LINE#         257
  C:1D26H         LINE#         258
  C:1D29H         LINE#         259
  C:1D29H         LINE#         260
  C:1D36H         LINE#         261
  C:1D38H         LINE#         263
  C:1D38H         LINE#         264
  C:1D3BH         LINE#         265
  C:1D3BH         LINE#         266
  C:1D3EH         LINE#         268
  C:1D3EH         LINE#         269
  C:1D3EH         LINE#         270
  C:1D44H         LINE#         271
  C:1D4CH         LINE#         272
  C:1D4FH         LINE#         273
  C:1D54H         LINE#         274
  C:1D58H         LINE#         275
  C:1D63H         LINE#         276
  C:1D64H         LINE#         278
  C:1D64H         LINE#         279
  C:1D64H         LINE#         280
  C:1D6BH         LINE#         281
  C:1D6BH         LINE#         282
  C:1D74H         LINE#         283
  C:1D74H         LINE#         284
  C:1D77H         LINE#         285
  C:1D79H         LINE#         287
  C:1D79H         LINE#         288
  C:1D7EH         LINE#         289
  C:1D7EH         LINE#         290
  C:1D7EH         LINE#         291
BL51 BANKED LINKER/LOCATER V6.22.2.0                                                  06/01/2022  09:37:04  PAGE 59


  C:1D7EH         LINE#         292
  C:1D7EH         LINE#         293
  C:1D80H         LINE#         294
  C:1D87H         LINE#         295
  C:1D87H         LINE#         296
  C:1D90H         LINE#         297
  C:1D90H         LINE#         298
  C:1D93H         LINE#         299
  C:1D95H         LINE#         301
  C:1D95H         LINE#         302
  C:1D9BH         LINE#         303
  C:1D9BH         LINE#         304
  C:1D9EH         LINE#         305
  C:1D9EH         LINE#         306
  C:1D9EH         LINE#         307
  C:1DA1H         LINE#         308
  C:1DACH         LINE#         309
  C:1DACH         LINE#         310
  C:1DC6H         LINE#         311
  C:1DC6H         LINE#         312
  C:1DC6H         LINE#         313
  C:1DCFH         LINE#         314
  C:1DCFH         LINE#         315
  C:1DD2H         LINE#         316
  C:1DE9H         LINE#         317
  C:1DECH         LINE#         319
  C:1DECH         LINE#         320
  C:1DEFH         LINE#         322
  C:1DEFH         LINE#         323
  C:1DEFH         LINE#         324
  C:1DEFH         LINE#         325
  C:1E0AH         LINE#         326
  C:1E0AH         LINE#         327
  C:1E10H         LINE#         328
  C:1E10H         LINE#         329
  C:1E1FH         LINE#         330
  C:1E25H         LINE#         331
  C:1E36H         LINE#         332
  C:1E36H         LINE#         333
  C:1E42H         LINE#         334
  C:1E48H         LINE#         335
  C:1E48H         LINE#         336
  C:1E4AH         LINE#         338
  C:1E4AH         LINE#         339
  C:1E4FH         LINE#         340
  C:1E52H         LINE#         341
  C:1E52H         LINE#         342
  C:1E52H         LINE#         343
  C:1E62H         LINE#         344
  C:1E6AH         LINE#         345
  C:1E6CH         LINE#         346
  C:1E6CH         LINE#         347
  C:1E6CH         LINE#         348
  C:1E6CH         LINE#         349
  C:1E75H         LINE#         350
  C:1E75H         LINE#         351
  C:1E78H         LINE#         352
BL51 BANKED LINKER/LOCATER V6.22.2.0                                                  06/01/2022  09:37:04  PAGE 60


  C:1E97H         LINE#         353
  C:1E99H         LINE#         355
  C:1E99H         LINE#         356
  C:1E9EH         LINE#         357
  C:1E9EH         LINE#         358
  C:1E9EH         LINE#         359
  C:1EA0H         LINE#         360
  C:1EA0H         LINE#         361
  C:1EA5H         LINE#         362
  C:1EA8H         LINE#         363
  C:1EA8H         LINE#         364
  C:1EA8H         LINE#         365
  C:1EA8H         LINE#         366
  C:1EA8H         LINE#         367
  C:1EAAH         LINE#         368
  C:1EB1H         LINE#         369
  C:1EB1H         LINE#         370
  C:1EB4H         LINE#         372
  C:1EB4H         LINE#         373
  C:1ED1H         LINE#         374
  C:1ED1H         LINE#         375
  C:1ED6H         LINE#         376
  C:1ED6H         LINE#         377
  C:1EDCH         LINE#         378
  C:1EDCH         LINE#         379
  C:1EE2H         LINE#         380
  C:1EE7H         LINE#         381
  C:1EEBH         LINE#         382
  C:1EEBH         LINE#         383
  C:1F01H         LINE#         384
  C:1F01H         LINE#         385
  C:1F16H         LINE#         386
  C:1F16H         LINE#         387
  C:1F16H         LINE#         388
  C:1F1FH         LINE#         389
  C:1F1FH         LINE#         390
  C:1F36H         LINE#         391
  C:1F48H         LINE#         392
  C:1F4EH         LINE#         393
  C:1F4EH         LINE#         394
  C:1F5BH         LINE#         395
  C:1F5BH         LINE#         396
  C:1F5FH         LINE#         397
  C:1F5FH         LINE#         398
  C:1F62H         LINE#         399
  C:1F62H         LINE#         400
  C:1F62H         LINE#         401
  C:1F71H         LINE#         402
  C:1F71H         LINE#         403
  C:1F8DH         LINE#         404
  C:1F8DH         LINE#         406
  C:1F8DH         LINE#         407
  C:1F8DH         LINE#         408
  C:1FAAH         LINE#         409
  C:1FAAH         LINE#         410
  C:1FAFH         LINE#         411
  C:1FAFH         LINE#         412
BL51 BANKED LINKER/LOCATER V6.22.2.0                                                  06/01/2022  09:37:04  PAGE 61


  C:1FB5H         LINE#         413
  C:1FB5H         LINE#         414
  C:1FBBH         LINE#         415
  C:1FC0H         LINE#         416
  C:1FC0H         LINE#         417
  C:1FC3H         LINE#         418
  C:1FC3H         LINE#         419
  C:1FCBH         LINE#         420
  C:1FCEH         LINE#         421
  C:1FD8H         LINE#         422
  C:1FD8H         LINE#         423
  C:1FE9H         LINE#         424
  C:2010H         LINE#         425
  C:2013H         LINE#         426
  C:201BH         LINE#         427
  C:201BH         LINE#         428
  C:202BH         LINE#         429
  C:203EH         LINE#         430
  C:2041H         LINE#         432
  C:2041H         LINE#         433
  C:2051H         LINE#         434
  C:2055H         LINE#         435
  C:205EH         LINE#         436
  C:205EH         LINE#         437
  C:2064H         LINE#         438
  C:2072H         LINE#         439
  C:2076H         LINE#         440
  C:2088H         LINE#         441
  C:208CH         LINE#         442
  C:209EH         LINE#         444
  C:20B1H         LINE#         445
  C:20B3H         LINE#         447
  C:20B3H         LINE#         448
  C:20D9H         LINE#         449
  C:20D9H         LINE#         450
  C:20D9H         LINE#         451
  C:20DFH         LINE#         452
  C:20E7H         LINE#         453
  C:20EFH         LINE#         454
  C:20EFH         LINE#         455
  C:20F1H         LINE#         456
  C:20F1H         LINE#         457
  C:20F1H         LINE#         458
  C:20F1H         LINE#         459
  C:20FAH         LINE#         460
  C:20FAH         LINE#         461
  C:2125H         LINE#         462
  C:2125H         LINE#         463
  C:2125H         LINE#         464
  C:2125H         LINE#         465
  C:2125H         LINE#         467
  C:212DH         LINE#         468
  C:2145H         LINE#         469
  -------         ENDPROC       _NAMEEDITKEY
  -------         PROC          DELETENAMECON
  C:90CCH         LINE#         471
  C:90CCH         LINE#         472
BL51 BANKED LINKER/LOCATER V6.22.2.0                                                  06/01/2022  09:37:04  PAGE 62


  C:90CCH         LINE#         473
  C:90D9H         LINE#         474
  C:90DEH         LINE#         475
  C:90E0H         LINE#         476
  C:90E6H         LINE#         477
  -------         ENDPROC       DELETENAMECON
  -------         PROC          _NAMEDELETEKEY
  X:107DH         SYMBOL        key
  -------         DO            
  X:107EH         SYMBOL        tmp
  X:1080H         SYMBOL        tmpItem
  -------         ENDDO         
  C:4A08H         LINE#         480
  C:4A0DH         LINE#         481
  C:4A0DH         LINE#         484
  C:4A14H         LINE#         485
  C:4A14H         LINE#         486
  C:4A1CH         LINE#         487
  C:4A1CH         LINE#         488
  C:4A1FH         LINE#         489
  C:4A1FH         LINE#         490
  C:4A2BH         LINE#         491
  C:4A30H         LINE#         492
  C:4A34H         LINE#         493
  C:4A36H         LINE#         495
  C:4A36H         LINE#         496
  C:4A41H         LINE#         497
  C:4A43H         LINE#         498
  C:4A46H         LINE#         500
  C:4A46H         LINE#         501
  C:4A46H         LINE#         502
  C:4A4CH         LINE#         503
  C:4A55H         LINE#         504
  C:4A65H         LINE#         505
  C:4A65H         LINE#         506
  C:4A65H         LINE#         507
  C:4A6AH         LINE#         508
  C:4A77H         LINE#         509
  C:4A87H         LINE#         510
  C:4A87H         LINE#         511
  C:4A8DH         LINE#         512
  C:4A9CH         LINE#         513
  C:4A9EH         LINE#         514
  C:4A9EH         LINE#         515
  C:4A9EH         LINE#         516
  C:4AB7H         LINE#         517
  C:4AB7H         LINE#         518
  C:4AD5H         LINE#         519
  C:4AD5H         LINE#         520
  C:4AE3H         LINE#         521
  C:4AE6H         LINE#         522
  C:4AE6H         LINE#         523
  C:4AE9H         LINE#         524
  C:4AECH         LINE#         526
  C:4AECH         LINE#         527
  C:4AECH         LINE#         528
  C:4AECH         LINE#         529
BL51 BANKED LINKER/LOCATER V6.22.2.0                                                  06/01/2022  09:37:04  PAGE 63


  C:4AEFH         LINE#         530
  C:4AFAH         LINE#         531
  C:4AFAH         LINE#         532
  C:4B0BH         LINE#         533
  C:4B0BH         LINE#         534
  C:4B0BH         LINE#         535
  C:4B14H         LINE#         536
  C:4B14H         LINE#         537
  C:4B17H         LINE#         538
  C:4B2EH         LINE#         539
  C:4B31H         LINE#         541
  C:4B31H         LINE#         542
  C:4B34H         LINE#         544
  C:4B34H         LINE#         545
  C:4B34H         LINE#         546
  C:4B34H         LINE#         547
  C:4B39H         LINE#         548
  C:4B3DH         LINE#         549
  C:4B4CH         LINE#         550
  C:4B51H         LINE#         551
  C:4B61H         LINE#         552
  C:4B61H         LINE#         553
  C:4B67H         LINE#         554
  C:4B76H         LINE#         555
  C:4B78H         LINE#         556
  C:4B78H         LINE#         557
  C:4B78H         LINE#         558
  C:4B7DH         LINE#         559
  C:4B81H         LINE#         560
  C:4B90H         LINE#         561
  C:4B95H         LINE#         562
  C:4BA5H         LINE#         563
  C:4BA5H         LINE#         564
  C:4BABH         LINE#         565
  C:4BBAH         LINE#         566
  C:4BBCH         LINE#         567
  C:4BBCH         LINE#         568
  C:4BBCH         LINE#         569
  C:4BC1H         LINE#         570
  C:4BC5H         LINE#         571
  C:4BC7H         LINE#         572
  C:4BCEH         LINE#         573
  C:4BCEH         LINE#         574
  C:4BD1H         LINE#         576
  C:4BD1H         LINE#         577
  C:4BE7H         LINE#         578
  C:4BE7H         LINE#         579
  C:4BEEH         LINE#         580
  C:4BEEH         LINE#         581
  C:4C05H         LINE#         582
  C:4C17H         LINE#         583
  C:4C1DH         LINE#         584
  C:4C1DH         LINE#         585
  C:4C27H         LINE#         586
  C:4C27H         LINE#         587
  C:4C2BH         LINE#         588
  C:4C2BH         LINE#         589
BL51 BANKED LINKER/LOCATER V6.22.2.0                                                  06/01/2022  09:37:04  PAGE 64


  C:4C2BH         LINE#         590
  C:4C36H         LINE#         591
  -------         ENDPROC       _NAMEDELETEKEY
  -------         PROC          DELETEALLNAMECON
  C:9631H         LINE#         593
  C:9631H         LINE#         594
  C:9631H         LINE#         595
  C:9637H         LINE#         596
  C:963AH         LINE#         597
  -------         ENDPROC       DELETEALLNAMECON
  -------         PROC          _NAMEDELALLKEY
  D:0007H         SYMBOL        key
  C:95A9H         LINE#         599
  C:95A9H         LINE#         600
  C:95A9H         LINE#         601
  C:95B6H         LINE#         602
  C:95B6H         LINE#         603
  C:95B6H         LINE#         604
  C:95B9H         LINE#         605
  C:95BCH         LINE#         606
  C:95BCH         LINE#         607
  C:95BCH         LINE#         608
  C:95BCH         LINE#         609
  C:95BFH         LINE#         610
  C:95BFH         LINE#         611
  C:95BFH         LINE#         612
  -------         ENDPROC       _NAMEDELALLKEY
  -------         PROC          NAMESETCON
  -------         DO            
  X:10D0H         SYMBOL        Disbuf
  -------         ENDDO         
  C:7BD7H         LINE#         614
  C:7BD7H         LINE#         615
  C:7BD7H         LINE#         617
  C:7BDDH         LINE#         618
  C:7BE0H         LINE#         619
  C:7BECH         LINE#         620
  C:7BF9H         LINE#         621
  C:7C06H         LINE#         622
  C:7C13H         LINE#         623
  C:7C39H         LINE#         624
  -------         ENDPROC       NAMESETCON
  -------         PROC          _NAMESETKEY
  D:0007H         SYMBOL        key
  C:9377H         LINE#         626
  C:9377H         LINE#         627
  C:9377H         LINE#         628
  C:938BH         LINE#         629
  C:938BH         LINE#         630
  C:938BH         LINE#         631
  C:938EH         LINE#         632
  C:938EH         LINE#         633
  C:938EH         LINE#         634
  C:9391H         LINE#         635
  C:9391H         LINE#         636
  C:9391H         LINE#         637
  C:9394H         LINE#         638
BL51 BANKED LINKER/LOCATER V6.22.2.0                                                  06/01/2022  09:37:04  PAGE 65


  C:9394H         LINE#         639
  C:9394H         LINE#         640
  C:9394H         LINE#         641
  C:9397H         LINE#         642
  C:9397H         LINE#         643
  C:9397H         LINE#         644
  -------         ENDPROC       _NAMESETKEY
  -------         PROC          _SHOWNAMEBYIDX
  D:0006H         SYMBOL        idx
  -------         DO            
  X:107EH         SYMBOL        tmpItem
  -------         ENDDO         
  C:9355H         LINE#         646
  C:9355H         LINE#         647
  C:9355H         LINE#         649
  C:9362H         LINE#         650
  C:9362H         LINE#         651
  C:936BH         LINE#         652
  C:9376H         LINE#         653
  C:9376H         LINE#         654
  -------         ENDPROC       _SHOWNAMEBYIDX
  -------         PROC          _CALLBYNAMEITEM
  X:107EH         SYMBOL        NameItem
  X:1081H         SYMBOL        telIdx
  -------         DO            
  X:1082H         SYMBOL        Disbuf
  -------         ENDDO         
  C:70E7H         LINE#         693
  C:70F7H         LINE#         694
  C:70F7H         LINE#         697
  C:7115H         LINE#         698
  C:7115H         LINE#         699
  C:7139H         LINE#         700
  C:7139H         LINE#         701
  C:713CH         LINE#         703
  C:7155H         LINE#         704
  C:7155H         LINE#         705
  C:7183H         LINE#         706
  C:7185H         LINE#         708
  C:7185H         LINE#         709
  C:71C0H         LINE#         710
  C:71C0H         LINE#         711
  C:71CDH         LINE#         712
  C:71CFH         LINE#         713
  C:71CFH         LINE#         714
  C:71D1H         LINE#         715
  C:71D1H         LINE#         716
  C:71D2H         LINE#         717
  -------         ENDPROC       _CALLBYNAMEITEM
  -------         PROC          _REVNAMELIST
  D:0001H         SYMBOL        buf
  -------         DO            
  X:107CH         SYMBOL        i
  X:107EH         SYMBOL        cnt
  X:1080H         SYMBOL        j
  X:1082H         SYMBOL        tmpItem
  X:10D2H         SYMBOL        p
BL51 BANKED LINKER/LOCATER V6.22.2.0                                                  06/01/2022  09:37:04  PAGE 66


  -------         ENDDO         
  C:0E7EH         LINE#         719
  C:0E7EH         LINE#         720
  C:0E7EH         LINE#         724
  C:0E89H         LINE#         726
  C:0E91H         LINE#         727
  C:0E91H         LINE#         728
  C:0E9AH         LINE#         729
  C:0EA5H         LINE#         731
  C:0EA5H         LINE#         732
  C:0EAEH         LINE#         733
  C:0ED2H         LINE#         734
  C:0ED9H         LINE#         735
  C:0ED9H         LINE#         736
  C:0EEBH         LINE#         737
  C:0F13H         LINE#         738
  C:0F13H         LINE#         739
  C:0F2BH         LINE#         740
  C:0F50H         LINE#         741
  C:0F50H         LINE#         742
  C:0F74H         LINE#         743
  C:0F7EH         LINE#         744
  C:0F7EH         LINE#         745
  C:0F90H         LINE#         747
  C:0F9DH         LINE#         748
  C:0FC5H         LINE#         750
  C:0FE9H         LINE#         751
  C:0FF3H         LINE#         752
  C:0FF3H         LINE#         753
  C:1005H         LINE#         755
  C:100CH         LINE#         756
  C:1030H         LINE#         757
  C:1030H         LINE#         758
  C:104EH         LINE#         759
  C:105CH         LINE#         760
  C:105EH         LINE#         761
  C:1070H         LINE#         762
  C:1070H         LINE#         764
  C:1094H         LINE#         765
  C:109EH         LINE#         766
  C:109EH         LINE#         767
  C:10B0H         LINE#         769
  C:10B7H         LINE#         770
  C:10DBH         LINE#         771
  C:10DBH         LINE#         772
  C:10F9H         LINE#         773
  C:1107H         LINE#         774
  C:1109H         LINE#         775
  C:111BH         LINE#         776
  C:111BH         LINE#         778
  C:113FH         LINE#         779
  C:1149H         LINE#         780
  C:1149H         LINE#         781
  C:115BH         LINE#         783
  C:1162H         LINE#         784
  C:1186H         LINE#         785
  C:1186H         LINE#         786
BL51 BANKED LINKER/LOCATER V6.22.2.0                                                  06/01/2022  09:37:04  PAGE 67


  C:11A4H         LINE#         787
  C:11B2H         LINE#         788
  C:11B4H         LINE#         789
  C:11C6H         LINE#         790
  C:11C6H         LINE#         792
  C:11EAH         LINE#         793
  C:11F4H         LINE#         794
  C:11F4H         LINE#         795
  C:1206H         LINE#         797
  C:120DH         LINE#         798
  C:1231H         LINE#         799
  C:1231H         LINE#         800
  C:124FH         LINE#         801
  C:125DH         LINE#         802
  C:125FH         LINE#         803
  C:1271H         LINE#         804
  C:1271H         LINE#         805
  C:1284H         LINE#         806
  C:12EBH         LINE#         807
  C:12F1H         LINE#         808
  C:12F1H         LINE#         810
  C:12FDH         LINE#         811
  C:12FDH         LINE#         812
  C:12FDH         LINE#         813
  C:12FDH         LINE#         814
  C:130EH         LINE#         815
  C:1322H         LINE#         816
  C:1322H         LINE#         817
  C:1332H         LINE#         818
  C:1334H         LINE#         820
  C:1334H         LINE#         821
  C:135BH         LINE#         822
  C:135BH         LINE#         823
  C:1361H         LINE#         824
  -------         ENDPROC       _REVNAMELIST
  -------         ENDMOD        NAMELIST

  -------         MODULE        EEPROM
  C:0000H         SYMBOL        _ICE_DUMMY_
  C:965DH         PUBLIC        IIC_stop
  D:0080H         PUBLIC        P0
  D:0090H         PUBLIC        P1
  D:00A0H         PUBLIC        P2
  D:00B0H         PUBLIC        P3
  D:00C0H         PUBLIC        P4
  D:00C8H         PUBLIC        P5
  D:00E8H         PUBLIC        P6
  D:00F8H         PUBLIC        P7
  D:00A8H         PUBLIC        IE
  D:00B8H         PUBLIC        IP
  C:85D3H         PUBLIC        _readBuf_at24c02
  D:00D8H         PUBLIC        CCON
  C:9704H         PUBLIC        IIC_Aack
  C:974FH         PUBLIC        _IIC_delayms
  C:7C62H         PUBLIC        _writeBuf_at24c02
  D:0098H         PUBLIC        SCON
  D:0088H         PUBLIC        TCON
BL51 BANKED LINKER/LOCATER V6.22.2.0                                                  06/01/2022  09:37:04  PAGE 68


  B:00F8H.1       PUBLIC        P71
  B:00F8H.2       PUBLIC        P72
  B:00F8H.3       PUBLIC        P73
  D:00F0H         PUBLIC        B
  D:00E0H         PUBLIC        ACC
  C:008EH         PUBLIC        IIC_nack
  C:90F9H         PUBLIC        IIC_ack
  C:9647H         PUBLIC        IIC_start
  C:8E8BH         PUBLIC        IIC_read_byte
  C:8B68H         PUBLIC        _IIC_send_byte
  D:00D0H         PUBLIC        PSW
  -------         PROC          _IIC_DELAYMS
  D:0007H         SYMBOL        t
  -------         DO            
  D:0006H         SYMBOL        j
  -------         ENDDO         
  C:974FH         LINE#         13
  C:974FH         LINE#         14
  C:974FH         LINE#         16
  C:9755H         LINE#         17
  C:9760H         LINE#         18
  -------         ENDPROC       _IIC_DELAYMS
  -------         PROC          IIC_START
  C:9647H         LINE#         19
  C:9647H         LINE#         20
  C:9647H         LINE#         21
  C:9649H         LINE#         22
  C:964EH         LINE#         23
  C:9650H         LINE#         24
  C:9655H         LINE#         25
  C:9657H         LINE#         26
  C:965CH         LINE#         27
  -------         ENDPROC       IIC_START
  -------         PROC          IIC_STOP
  C:965DH         LINE#         29
  C:965DH         LINE#         30
  C:965DH         LINE#         31
  C:965FH         LINE#         32
  C:9664H         LINE#         33
  C:9666H         LINE#         34
  C:966BH         LINE#         35
  C:966DH         LINE#         36
  C:9672H         LINE#         37
  -------         ENDPROC       IIC_STOP
  -------         PROC          L?0033
  -------         ENDPROC       L?0033
  -------         PROC          IIC_ACK
  -------         DO            
  D:0007H         SYMBOL        i
  -------         ENDDO         
  C:90F9H         LINE#         39
  C:90F9H         LINE#         40
  C:90F9H         LINE#         41
  C:90FBH         LINE#         42
  C:90FDH         LINE#         43
  C:9102H         LINE#         44
  C:910EH         LINE#         45
BL51 BANKED LINKER/LOCATER V6.22.2.0                                                  06/01/2022  09:37:04  PAGE 69


  C:9110H         LINE#         46
  C:9115H         LINE#         47
  -------         ENDPROC       IIC_ACK
  -------         PROC          IIC_NACK
  C:008EH         LINE#         49
  C:008EH         LINE#         50
  C:008EH         LINE#         51
  C:0090H         LINE#         52
  C:0092H         LINE#         53
  C:0097H         LINE#         54
  C:0099H         LINE#         55
  C:009EH         LINE#         56
  C:00A0H         LINE#         57
  C:00A2H         LINE#         58
  -------         ENDPROC       IIC_NACK
  -------         PROC          IIC_AACK
  C:9704H         LINE#         60
  C:9704H         LINE#         61
  C:9704H         LINE#         62
  C:9706H         LINE#         63
  C:9708H         LINE#         64
  C:970DH         LINE#         65
  C:970FH         LINE#         66
  C:9714H         LINE#         67
  C:9716H         LINE#         68
  -------         ENDPROC       IIC_AACK
  -------         PROC          _IIC_SEND_BYTE
  D:0007H         SYMBOL        date
  -------         DO            
  D:0006H         SYMBOL        i
  D:0007H         SYMBOL        temp
  -------         ENDDO         
  C:8B68H         LINE#         72
  C:8B68H         LINE#         73
  C:8B68H         LINE#         75
  C:8B68H         LINE#         76
  C:8B6AH         LINE#         77
  C:8B6AH         LINE#         78
  C:8B6CH         LINE#         79
  C:8B71H         LINE#         80
  C:8B7BH         LINE#         81
  C:8B7FH         LINE#         82
  C:8B84H         LINE#         83
  C:8B86H         LINE#         84
  C:8B8BH         LINE#         85
  C:8B8DH         LINE#         86
  C:8B92H         LINE#         87
  C:8B94H         LINE#         88
  C:8B99H         LINE#         89
  C:8B9BH         LINE#         90
  C:8BA0H         LINE#         93
  -------         ENDPROC       _IIC_SEND_BYTE
  -------         PROC          IIC_READ_BYTE
  -------         DO            
  D:0006H         SYMBOL        i
  D:0007H         SYMBOL        k
  -------         ENDDO         
BL51 BANKED LINKER/LOCATER V6.22.2.0                                                  06/01/2022  09:37:04  PAGE 70


  C:8E8BH         LINE#         95
  C:8E8BH         LINE#         96
  C:8E8BH         LINE#         97
  C:8E8BH         LINE#         98
  C:8E8DH         LINE#         99
  C:8E92H         LINE#         100
  C:8E94H         LINE#         101
  C:8E99H         LINE#         102
  C:8E9BH         LINE#         103
  C:8E9BH         LINE#         104
  C:8E9DH         LINE#         105
  C:8EA2H         LINE#         106
  C:8EA6H         LINE#         107
  C:8EACH         LINE#         108
  C:8EAEH         LINE#         109
  C:8EB3H         LINE#         110
  C:8EB8H         LINE#         111
  C:8EB8H         LINE#         112
  -------         ENDPROC       IIC_READ_BYTE
  -------         PROC          _WRITEBUF_AT24C02
  X:1125H         SYMBOL        address
  X:1127H         SYMBOL        buf
  X:112AH         SYMBOL        len
  C:7C62H         LINE#         150
  C:7C73H         LINE#         151
  C:7C73H         LINE#         152
  C:7C75H         LINE#         153
  C:7C75H         LINE#         154
  C:7C75H         LINE#         155
  C:7C75H         LINE#         156
  C:7C75H         LINE#         157
  C:7C75H         LINE#         158
  C:7C75H         LINE#         159
  C:7C77H         LINE#         160
  C:7C85H         LINE#         161
  C:7C85H         LINE#         162
  C:7C9CH         LINE#         163
  C:7C9FH         LINE#         164
  C:7CADH         LINE#         165
  C:7CC4H         LINE#         166
  C:7CC4H         LINE#         167
  C:7CC7H         LINE#         168
  C:7CCCH         LINE#         169
  C:7CCCH         LINE#         170
  C:7CCCH         LINE#         171
  C:7CCFH         LINE#         172
  C:7CD7H         LINE#         173
  C:7CDAH         LINE#         174
  C:7CE0H         LINE#         175
  C:7CE3H         LINE#         176
  C:7CE3H         LINE#         177
  C:7CE5H         LINE#         178
  C:7CE8H         LINE#         179
  -------         ENDPROC       _WRITEBUF_AT24C02
  -------         PROC          _READBUF_AT24C02
  D:0004H         SYMBOL        address
  D:0001H         SYMBOL        buf
BL51 BANKED LINKER/LOCATER V6.22.2.0                                                  06/01/2022  09:37:04  PAGE 71


  X:112AH         SYMBOL        len
  -------         DO            
  X:112CH         SYMBOL        dat
  -------         ENDDO         
  C:85D3H         LINE#         182
  C:85D7H         LINE#         183
  C:85D7H         LINE#         185
  C:85D7H         LINE#         186
  C:85D7H         LINE#         187
  C:85DAH         LINE#         188
  C:85DFH         LINE#         189
  C:85E2H         LINE#         190
  C:85E7H         LINE#         191
  C:85EAH         LINE#         192
  C:85EDH         LINE#         193
  C:85F2H         LINE#         194
  C:85F5H         LINE#         195
  C:8604H         LINE#         196
  C:8604H         LINE#         197
  C:8610H         LINE#         198
  C:8617H         LINE#         199
  C:861AH         LINE#         200
  C:8621H         LINE#         201
  C:8623H         LINE#         202
  C:862AH         LINE#         203
  C:862DH         LINE#         204
  C:8630H         LINE#         205
  C:8635H         LINE#         206
  -------         ENDPROC       _READBUF_AT24C02
  -------         ENDMOD        EEPROM

  -------         MODULE        SYSSTATUS
  C:0000H         SYMBOL        _ICE_DUMMY_
  D:0080H         PUBLIC        P0
  D:0090H         PUBLIC        P1
  C:879FH         PUBLIC        _ReadRoomByIdx
  D:00A0H         PUBLIC        P2
  D:00B0H         PUBLIC        P3
  D:00C0H         PUBLIC        P4
  D:00C8H         PUBLIC        P5
  D:00E8H         PUBLIC        P6
  D:00F8H         PUBLIC        P7
  D:00A8H         PUBLIC        IE
  C:6CF6H         PUBLIC        _InputSysPsw
  X:11CFH         PUBLIC        IdleTime
  X:11D1H         PUBLIC        NameItemCall
  X:1221H         PUBLIC        Volum
  D:00B8H         PUBLIC        IP
  D:00D8H         PUBLIC        CCON
  C:7E03H         PUBLIC        _GetIdxByRoom
  X:1222H         PUBLIC        MainShow
  C:9454H         PUBLIC        InputSysPswCon
  X:1223H         PUBLIC        InputRoom
  X:1225H         PUBLIC        InputLen
  D:0098H         PUBLIC        SCON
  D:0088H         PUBLIC        TCON
  B:00E8H.1       PUBLIC        P61
BL51 BANKED LINKER/LOCATER V6.22.2.0                                                  06/01/2022  09:37:04  PAGE 72


  X:1226H         PUBLIC        InputIdx
  X:1227H         PUBLIC        InputMax
  C:849DH         PUBLIC        _SysCard
  C:75F3H         PUBLIC        InitUserPara
  D:00F0H         PUBLIC        B
  X:1229H         PUBLIC        UsrPara
  C:522EH         PUBLIC        _SaveSubPara
  C:5910H         PUBLIC        _SysSubSetKey
  C:8BA1H         PUBLIC        SysSettingCon
  X:1231H         PUBLIC        SysPara
  D:00E0H         PUBLIC        ACC
  X:1241H         PUBLIC        NameListIdx
  X:1243H         PUBLIC        SysStatus
  X:1244H         PUBLIC        CallTleIdx
  C:7399H         PUBLIC        _SysSettingKey
  X:1245H         PUBLIC        InputPsw
  C:8DFFH         PUBLIC        _InputRoomCon
  C:5049H         PUBLIC        ShowSubPara
  C:8508H         PUBLIC        ShowInputRoom
  C:687BH         PUBLIC        InitSysPara
  C:8F66H         PUBLIC        SysIdleCon
  C:5C1BH         PUBLIC        _SysKey
  C:65F2H         PUBLIC        _SysIdleKey
  C:7F96H         PUBLIC        ShowInputPsw
  C:6EF3H         PUBLIC        _SysInputRoom
  C:8842H         PUBLIC        _SysTalkKey
  D:00D0H         PUBLIC        PSW
  C:5F12H         PUBLIC        _SubSetCon
  -------         PROC          INITSYSPARA
  B:0020H.0       SYMBOL        rst
  C:687BH         LINE#         22
  C:687BH         LINE#         23
  C:687BH         LINE#         24
  C:6890H         LINE#         25
  C:689FH         LINE#         26
  C:689FH         LINE#         27
  C:68A9H         LINE#         28
  C:68B0H         LINE#         29
  C:68B4H         LINE#         30
  C:68B8H         LINE#         31
  C:68BCH         LINE#         32
  C:68BEH         LINE#         33
  C:68C2H         LINE#         34
  C:68C6H         LINE#         35
  C:68C9H         LINE#         36
  C:68CDH         LINE#         37
  C:68D5H         LINE#         38
  C:68EAH         LINE#         39
  C:68EAH         LINE#         41
  C:6902H         LINE#         42
  C:6913H         LINE#         43
  C:6924H         LINE#         44
  C:6935H         LINE#         45
  C:6946H         LINE#         46
  C:6957H         LINE#         47
  C:6968H         LINE#         48
  C:6979H         LINE#         49
BL51 BANKED LINKER/LOCATER V6.22.2.0                                                  06/01/2022  09:37:04  PAGE 73


  C:698AH         LINE#         51
  C:6993H         LINE#         52
  C:6993H         LINE#         53
  C:6996H         LINE#         54
  C:6996H         LINE#         55
  C:699EH         LINE#         59
  C:69A4H         LINE#         60
  C:69A4H         LINE#         61
  C:69A6H         LINE#         62
  C:69A7H         LINE#         64
  C:69A7H         LINE#         65
  C:69A9H         LINE#         66
  C:69A9H         LINE#         67
  -------         ENDPROC       INITSYSPARA
  -------         PROC          INITUSERPARA
  C:75F3H         LINE#         69
  C:75F3H         LINE#         70
  C:75F3H         LINE#         71
  C:7609H         LINE#         72
  C:7617H         LINE#         73
  C:7617H         LINE#         74
  C:7621H         LINE#         75
  C:7626H         LINE#         76
  C:762AH         LINE#         77
  C:762EH         LINE#         78
  C:7643H         LINE#         79
  C:7643H         LINE#         81
  C:765BH         LINE#         82
  C:7673H         LINE#         83
  C:768BH         LINE#         85
  C:768EH         LINE#         86
  C:7691H         LINE#         87
  -------         ENDPROC       INITUSERPARA
  -------         PROC          _READROOMBYIDX
  D:0006H         SYMBOL        idx
  D:0005H         SYMBOL        type
  -------         DO            
  X:10E1H         SYMBOL        room
  D:0006H         SYMBOL        addr
  -------         ENDDO         
  C:879FH         LINE#         90
  C:879FH         LINE#         91
  C:879FH         LINE#         93
  C:879FH         LINE#         94
  C:87ABH         LINE#         95
  C:87ABH         LINE#         96
  C:87ABH         LINE#         97
  C:87B2H         LINE#         98
  C:87B9H         LINE#         99
  C:87BBH         LINE#         100
  C:87BBH         LINE#         101
  C:87C5H         LINE#         102
  C:87C7H         LINE#         103
  C:87C9H         LINE#         104
  C:87C9H         LINE#         105
  C:87D0H         LINE#         106
  C:87D8H         LINE#         107
BL51 BANKED LINKER/LOCATER V6.22.2.0                                                  06/01/2022  09:37:04  PAGE 74


  C:87D8H         LINE#         108
  C:87D8H         LINE#         111
  C:87EAH         LINE#         112
  C:87F2H         LINE#         113
  -------         ENDPROC       _READROOMBYIDX
  -------         PROC          _GETIDXBYROOM
  X:10DAH         SYMBOL        room
  X:10DCH         SYMBOL        type
  -------         DO            
  X:10DDH         SYMBOL        i
  D:0006H         SYMBOL        DstRoom
  X:10DFH         SYMBOL        iMax
  -------         ENDDO         
  C:7E03H         LINE#         115
  C:7E0EH         LINE#         116
  C:7E0EH         LINE#         117
  C:7E13H         LINE#         120
  C:7E1FH         LINE#         121
  C:7E1FH         LINE#         122
  C:7E1FH         LINE#         123
  C:7E22H         LINE#         124
  C:7E24H         LINE#         125
  C:7E24H         LINE#         126
  C:7E27H         LINE#         127
  C:7E29H         LINE#         128
  C:7E29H         LINE#         129
  C:7E38H         LINE#         130
  C:7E38H         LINE#         131
  C:7E38H         LINE#         132
  C:7E4EH         LINE#         133
  C:7E4EH         LINE#         134
  C:7E56H         LINE#         135
  C:7E62H         LINE#         136
  C:7E62H         LINE#         137
  C:7E6BH         LINE#         138
  C:7E6BH         LINE#         139
  C:7E73H         LINE#         140
  C:7E73H         LINE#         141
  C:7E73H         LINE#         142
  C:7E73H         LINE#         143
  C:7E81H         LINE#         144
  C:7E83H         LINE#         145
  C:7E87H         LINE#         146
  -------         ENDPROC       _GETIDXBYROOM
  -------         PROC          SYSIDLECON
  C:8F66H         LINE#         151
  C:8F66H         LINE#         152
  C:8F66H         LINE#         153
  C:8F6CH         LINE#         154
  C:8F74H         LINE#         155
  C:8F7BH         LINE#         156
  C:8F7FH         LINE#         157
  C:8F85H         LINE#         158
  C:8F8BH         LINE#         159
  -------         ENDPROC       SYSIDLECON
  -------         PROC          SYSSETTINGCON
  C:8BA1H         LINE#         161
BL51 BANKED LINKER/LOCATER V6.22.2.0                                                  06/01/2022  09:37:04  PAGE 75


  C:8BA1H         LINE#         162
  C:8BA1H         LINE#         163
  C:8BA7H         LINE#         164
  C:8BAAH         LINE#         165
  C:8BB7H         LINE#         166
  C:8BC4H         LINE#         167
  C:8BCDH         LINE#         168
  C:8BD4H         LINE#         169
  C:8BD8H         LINE#         170
  -------         ENDPROC       SYSSETTINGCON
  -------         PROC          SHOWINPUTROOM
  -------         DO            
  X:107EH         SYMBOL        Disbuf
  -------         ENDDO         
  C:8508H         LINE#         172
  C:8508H         LINE#         173
  C:8508H         LINE#         175
  C:850BH         LINE#         176
  C:8518H         LINE#         177
  C:8528H         LINE#         178
  C:8528H         LINE#         180
  C:8545H         LINE#         181
  C:856EH         LINE#         182
  C:856EH         LINE#         188
  -------         ENDPROC       SHOWINPUTROOM
  -------         PROC          _INPUTROOMCON
  D:0007H         SYMBOL        key
  C:8DFFH         LINE#         189
  C:8DFFH         LINE#         190
  C:8DFFH         LINE#         191
  C:8E05H         LINE#         192
  C:8E0FH         LINE#         193
  C:8E15H         LINE#         194
  C:8E18H         LINE#         195
  C:8E18H         LINE#         196
  C:8E19H         LINE#         197
  C:8E19H         LINE#         198
  C:8E1CH         LINE#         199
  C:8E29H         LINE#         200
  -------         ENDPROC       _INPUTROOMCON
  -------         PROC          _SYSINPUTROOM
  X:107DH         SYMBOL        key
  C:6EF3H         LINE#         203
  C:6EF8H         LINE#         204
  C:6EF8H         LINE#         205
  C:6F03H         LINE#         206
  C:6F03H         LINE#         207
  C:6F03H         LINE#         208
  C:6F13H         LINE#         209
  C:6F13H         LINE#         210
  C:6F24H         LINE#         211
  C:6F24H         LINE#         212
  C:6F29H         LINE#         213
  C:6F35H         LINE#         214
  C:6F35H         LINE#         215
  C:6F3BH         LINE#         216
  C:6F3CH         LINE#         217
BL51 BANKED LINKER/LOCATER V6.22.2.0                                                  06/01/2022  09:37:04  PAGE 76


  C:6F48H         LINE#         218
  C:6F48H         LINE#         219
  C:6F4BH         LINE#         220
  C:6F4BH         LINE#         221
  C:6F4DH         LINE#         223
  C:6F4DH         LINE#         224
  C:6F50H         LINE#         225
  C:6F59H         LINE#         226
  C:6F5AH         LINE#         228
  C:6F5AH         LINE#         229
  C:6F5AH         LINE#         230
  C:6F5DH         LINE#         231
  C:6F62H         LINE#         232
  C:6F6BH         LINE#         233
  C:6F72H         LINE#         234
  C:6F76H         LINE#         235
  C:6F78H         LINE#         236
  C:6F78H         LINE#         237
  C:6F81H         LINE#         238
  C:6F81H         LINE#         239
  C:6F84H         LINE#         240
  C:6F9BH         LINE#         241
  C:6F9EH         LINE#         242
  C:6FA0H         LINE#         244
  C:6FA0H         LINE#         246
  C:6FA3H         LINE#         248
  C:6FA6H         LINE#         249
  C:6FA6H         LINE#         250
  C:6FA6H         LINE#         251
  C:6FA6H         LINE#         252
  C:6FB6H         LINE#         253
  C:6FB6H         LINE#         254
  C:6FBFH         LINE#         255
  C:6FBFH         LINE#         256
  C:6FC2H         LINE#         257
  C:6FD9H         LINE#         258
  C:6FEBH         LINE#         259
  C:6FEEH         LINE#         260
  C:6FEEH         LINE#         261
  C:6FEEH         LINE#         262
  -------         ENDPROC       _SYSINPUTROOM
  -------         PROC          L?0293
  -------         ENDPROC       L?0293
  -------         PROC          SHOWINPUTPSW
  -------         DO            
  X:107EH         SYMBOL        Disbuf
  D:0005H         SYMBOL        i
  D:0006H         SYMBOL        l
  -------         ENDDO         
  C:7F96H         LINE#         265
  C:7F96H         LINE#         266
  C:7F96H         LINE#         269
  C:7F99H         LINE#         271
  C:7FA0H         LINE#         272
  C:7FA0H         LINE#         273
  C:7FADH         LINE#         274
  C:7FADH         LINE#         287
BL51 BANKED LINKER/LOCATER V6.22.2.0                                                  06/01/2022  09:37:04  PAGE 77


  C:7FC4H         LINE#         289
  C:7FD0H         LINE#         290
  C:7FD0H         LINE#         291
  C:7FE3H         LINE#         292
  C:7FE6H         LINE#         293
  C:7FF8H         LINE#         298
  C:8004H         LINE#         300
  -------         ENDPROC       SHOWINPUTPSW
  -------         PROC          INPUTSYSPSWCON
  C:9454H         LINE#         305
  C:9454H         LINE#         306
  C:9454H         LINE#         307
  C:945AH         LINE#         308
  C:9464H         LINE#         309
  C:9469H         LINE#         310
  C:946CH         LINE#         311
  -------         ENDPROC       INPUTSYSPSWCON
  -------         PROC          _INPUTSYSPSW
  X:107DH         SYMBOL        key
  C:6CF6H         LINE#         314
  C:6CFBH         LINE#         315
  C:6CFBH         LINE#         316
  C:6D0DH         LINE#         317
  C:6D0DH         LINE#         318
  C:6D0DH         LINE#         319
  C:6D2DH         LINE#         320
  C:6D2DH         LINE#         321
  C:6D4AH         LINE#         322
  C:6D4AH         LINE#         323
  C:6D4DH         LINE#         325
  C:6D4DH         LINE#         326
  C:6D4DH         LINE#         327
  C:6D50H         LINE#         328
  C:6D55H         LINE#         329
  C:6D5FH         LINE#         330
  C:6D64H         LINE#         331
  C:6D66H         LINE#         332
  C:6D66H         LINE#         333
  C:6D6FH         LINE#         334
  C:6D6FH         LINE#         335
  C:6D72H         LINE#         336
  C:6D89H         LINE#         337
  C:6D8CH         LINE#         338
  C:6D8EH         LINE#         340
  C:6D8EH         LINE#         343
  C:6D91H         LINE#         345
  C:6D91H         LINE#         346
  C:6D91H         LINE#         347
  C:6D93H         LINE#         348
  C:6D93H         LINE#         349
  C:6D96H         LINE#         350
  C:6D96H         LINE#         351
  C:6D96H         LINE#         352
  C:6DA6H         LINE#         353
  C:6DA6H         LINE#         354
  C:6DAFH         LINE#         355
  C:6DAFH         LINE#         356
BL51 BANKED LINKER/LOCATER V6.22.2.0                                                  06/01/2022  09:37:04  PAGE 78


  C:6DB2H         LINE#         357
  C:6DCFH         LINE#         358
  C:6DF2H         LINE#         359
  C:6DF5H         LINE#         360
  C:6DF5H         LINE#         361
  C:6DF5H         LINE#         362
  -------         ENDPROC       _INPUTSYSPSW
  -------         PROC          _SYSIDLEKEY
  X:107DH         SYMBOL        key
  C:65F2H         LINE#         364
  C:65F7H         LINE#         365
  C:65F7H         LINE#         366
  C:6611H         LINE#         367
  C:6611H         LINE#         368
  C:6611H         LINE#         374
  C:6611H         LINE#         375
  C:6614H         LINE#         376
  C:6614H         LINE#         377
  C:6617H         LINE#         378
  C:6617H         LINE#         379
  C:661AH         LINE#         380
  C:661DH         LINE#         381
  C:661DH         LINE#         382
  C:6620H         LINE#         383
  C:6623H         LINE#         384
  C:6623H         LINE#         385
  C:6636H         LINE#         386
  C:6636H         LINE#         387
  C:664BH         LINE#         388
  C:664BH         LINE#         389
  C:6657H         LINE#         390
  C:6659H         LINE#         392
  C:6659H         LINE#         393
  C:6660H         LINE#         394
  C:6660H         LINE#         395
  C:6660H         LINE#         396
  C:6660H         LINE#         397
  C:6662H         LINE#         398
  C:6662H         LINE#         399
  C:6675H         LINE#         400
  C:6675H         LINE#         401
  C:6682H         LINE#         402
  C:6682H         LINE#         403
  C:668AH         LINE#         404
  C:668AH         LINE#         405
  C:6695H         LINE#         406
  C:6697H         LINE#         408
  C:6697H         LINE#         409
  C:66A5H         LINE#         410
  C:66A5H         LINE#         411
  C:66A7H         LINE#         413
  C:66A7H         LINE#         414
  C:66BBH         LINE#         415
  C:66BBH         LINE#         416
  C:66C6H         LINE#         417
  C:66C6H         LINE#         418
  C:66C8H         LINE#         419
BL51 BANKED LINKER/LOCATER V6.22.2.0                                                  06/01/2022  09:37:04  PAGE 79


  C:66C8H         LINE#         420
  C:66DEH         LINE#         421
  C:66DEH         LINE#         422
  C:66E3H         LINE#         423
  C:66ECH         LINE#         424
  C:66F9H         LINE#         425
  C:66F9H         LINE#         426
  C:66FFH         LINE#         427
  C:6701H         LINE#         428
  C:670DH         LINE#         429
  C:670DH         LINE#         430
  C:6710H         LINE#         431
  C:6710H         LINE#         432
  C:6712H         LINE#         434
  C:6712H         LINE#         435
  C:6715H         LINE#         436
  C:671EH         LINE#         437
  C:671EH         LINE#         438
  C:6720H         LINE#         440
  C:6720H         LINE#         441
  C:6725H         LINE#         442
  C:6725H         LINE#         443
  C:6725H         LINE#         444
  C:6725H         LINE#         445
  C:6735H         LINE#         446
  C:6735H         LINE#         447
  C:6738H         LINE#         448
  C:6738H         LINE#         449
  -------         ENDPROC       _SYSIDLEKEY
  -------         PROC          _SYSSETTINGKEY
  X:107DH         SYMBOL        key
  C:7399H         LINE#         451
  C:739EH         LINE#         452
  C:739EH         LINE#         453
  C:73AAH         LINE#         454
  C:73AAH         LINE#         455
  C:73B3H         LINE#         456
  C:73B3H         LINE#         457
  C:73B6H         LINE#         458
  C:73CDH         LINE#         459
  C:73DAH         LINE#         460
  C:73EAH         LINE#         461
  C:73EAH         LINE#         462
  C:73EBH         LINE#         463
  C:73EBH         LINE#         464
  C:73EBH         LINE#         465
  C:73EDH         LINE#         467
  C:73EDH         LINE#         468
  C:73FAH         LINE#         469
  C:7400H         LINE#         470
  C:7400H         LINE#         471
  C:7401H         LINE#         472
  C:7408H         LINE#         473
  C:7408H         LINE#         474
  C:7408H         LINE#         475
  C:740AH         LINE#         476
  C:7411H         LINE#         477
BL51 BANKED LINKER/LOCATER V6.22.2.0                                                  06/01/2022  09:37:04  PAGE 80


  C:7411H         LINE#         478
  C:7414H         LINE#         479
  C:7414H         LINE#         480
  C:741CH         LINE#         481
  C:741CH         LINE#         482
  C:7434H         LINE#         483
  C:7434H         LINE#         484
  C:743AH         LINE#         486
  C:743AH         LINE#         487
  C:7456H         LINE#         488
  C:7456H         LINE#         489
  C:7456H         LINE#         490
  C:7459H         LINE#         491
  C:7459H         LINE#         492
  C:7459H         LINE#         493
  C:745CH         LINE#         494
  C:745CH         LINE#         495
  C:745CH         LINE#         496
  C:745FH         LINE#         497
  C:745FH         LINE#         498
  C:745FH         LINE#         499
  C:7462H         LINE#         500
  C:7462H         LINE#         501
  C:7462H         LINE#         502
  C:7467H         LINE#         503
  C:7467H         LINE#         514
  C:7467H         LINE#         515
  C:7467H         LINE#         543
  -------         ENDPROC       _SYSSETTINGKEY
  -------         PROC          _SYSTALKKEY
  X:107DH         SYMBOL        key
  C:8842H         LINE#         545
  C:8847H         LINE#         546
  C:8847H         LINE#         548
  C:8853H         LINE#         549
  C:8853H         LINE#         550
  C:8856H         LINE#         552
  C:8856H         LINE#         553
  C:8868H         LINE#         554
  C:8868H         LINE#         555
  C:8868H         LINE#         556
  C:8868H         LINE#         557
  C:886BH         LINE#         558
  C:886EH         LINE#         559
  C:886EH         LINE#         560
  C:886EH         LINE#         561
  C:8877H         LINE#         562
  C:8877H         LINE#         563
  C:8879H         LINE#         564
  C:8879H         LINE#         565
  C:8879H         LINE#         566
  C:887BH         LINE#         567
  C:887BH         LINE#         568
  C:8884H         LINE#         569
  C:8884H         LINE#         570
  C:8887H         LINE#         571
  C:888CH         LINE#         572
BL51 BANKED LINKER/LOCATER V6.22.2.0                                                  06/01/2022  09:37:04  PAGE 81


  C:888CH         LINE#         573
  C:888CH         LINE#         574
  C:888CH         LINE#         575
  -------         ENDPROC       _SYSTALKKEY
  -------         PROC          SHOWSUBPARA
  -------         DO            
  X:107EH         SYMBOL        Disbuf
  -------         ENDDO         
  C:5049H         LINE#         579
  C:5049H         LINE#         580
  C:5049H         LINE#         582
  C:504CH         LINE#         583
  C:5083H         LINE#         584
  C:5083H         LINE#         585
  C:5083H         LINE#         586
  C:509CH         LINE#         587
  C:509FH         LINE#         588
  C:509FH         LINE#         589
  C:50B8H         LINE#         590
  C:50BBH         LINE#         591
  C:50BBH         LINE#         592
  C:50D4H         LINE#         593
  C:50D7H         LINE#         594
  C:50D7H         LINE#         595
  C:50F0H         LINE#         596
  C:50F3H         LINE#         597
  C:50F3H         LINE#         598
  C:5116H         LINE#         599
  C:5120H         LINE#         600
  C:5120H         LINE#         601
  C:5122H         LINE#         602
  C:5124H         LINE#         604
  C:5124H         LINE#         605
  C:5126H         LINE#         606
  C:5126H         LINE#         607
  C:5128H         LINE#         608
  C:5128H         LINE#         609
  C:5141H         LINE#         610
  C:5143H         LINE#         611
  C:5143H         LINE#         612
  C:515CH         LINE#         613
  C:515EH         LINE#         614
  C:515EH         LINE#         615
  C:5177H         LINE#         616
  C:5179H         LINE#         617
  C:5179H         LINE#         618
  C:519CH         LINE#         619
  C:519CH         LINE#         620
  C:519CH         LINE#         621
  C:51AFH         LINE#         622
  C:51AFH         LINE#         625
  C:51BCH         LINE#         626
  C:51D8H         LINE#         628
  C:51D8H         LINE#         633
  C:51E5H         LINE#         634
  C:51F5H         LINE#         635
  C:51F5H         LINE#         636
BL51 BANKED LINKER/LOCATER V6.22.2.0                                                  06/01/2022  09:37:04  PAGE 82


  C:5212H         LINE#         637
  C:522DH         LINE#         638
  C:522DH         LINE#         640
  -------         ENDPROC       SHOWSUBPARA
  -------         PROC          _SUBSETCON
  D:0007H         SYMBOL        type
  -------         DO            
  D:0006H         SYMBOL        tmp
  -------         ENDDO         
  C:5F12H         LINE#         642
  C:5F12H         LINE#         643
  C:5F12H         LINE#         645
  C:5F17H         LINE#         646
  C:5F4AH         LINE#         647
  C:5F4AH         LINE#         648
  C:5F4AH         LINE#         649
  C:5F50H         LINE#         650
  C:5F5AH         LINE#         651
  C:5F65H         LINE#         652
  C:5F68H         LINE#         653
  C:5F68H         LINE#         654
  C:5F6EH         LINE#         655
  C:5F76H         LINE#         656
  C:5F7FH         LINE#         657
  C:5F82H         LINE#         658
  C:5F82H         LINE#         659
  C:5F88H         LINE#         660
  C:5F91H         LINE#         661
  C:5F9AH         LINE#         662
  C:5F9DH         LINE#         663
  C:5F9DH         LINE#         664
  C:5FA3H         LINE#         665
  C:5FABH         LINE#         666
  C:5FB4H         LINE#         667
  C:5FB7H         LINE#         668
  C:5FB7H         LINE#         669
  C:5FBDH         LINE#         670
  C:5FC5H         LINE#         671
  C:5FCEH         LINE#         672
  C:5FD0H         LINE#         673
  C:5FD0H         LINE#         674
  C:5FD6H         LINE#         675
  C:5FDFH         LINE#         676
  C:5FE8H         LINE#         677
  C:5FEAH         LINE#         678
  C:5FEAH         LINE#         679
  C:5FF0H         LINE#         680
  C:5FF9H         LINE#         681
  C:6002H         LINE#         682
  C:6004H         LINE#         683
  C:6004H         LINE#         684
  C:600AH         LINE#         685
  C:6013H         LINE#         686
  C:601CH         LINE#         687
  C:601EH         LINE#         688
  C:601EH         LINE#         689
  C:6024H         LINE#         690
BL51 BANKED LINKER/LOCATER V6.22.2.0                                                  06/01/2022  09:37:04  PAGE 83


  C:602DH         LINE#         691
  C:603AH         LINE#         692
  C:603AH         LINE#         693
  C:603AH         LINE#         694
  C:603FH         LINE#         695
  C:6047H         LINE#         696
  C:6050H         LINE#         697
  C:6050H         LINE#         698
  C:6056H         LINE#         699
  C:605DH         LINE#         700
  C:605FH         LINE#         701
  C:607BH         LINE#         702
  C:607BH         LINE#         703
  C:6081H         LINE#         704
  C:6081H         LINE#         705
  -------         ENDPROC       _SUBSETCON
  -------         PROC          _SAVESUBPARA
  D:0007H         SYMBOL        type
  X:107EH         SYMBOL        dat
  C:522EH         LINE#         708
  C:5236H         LINE#         709
  C:5236H         LINE#         710
  C:526AH         LINE#         711
  C:526AH         LINE#         712
  C:526AH         LINE#         713
  C:5279H         LINE#         714
  C:5292H         LINE#         715
  C:5295H         LINE#         716
  C:5295H         LINE#         717
  C:529EH         LINE#         718
  C:52B6H         LINE#         719
  C:52B9H         LINE#         720
  C:52B9H         LINE#         721
  C:52C2H         LINE#         722
  C:52DAH         LINE#         723
  C:52DDH         LINE#         724
  C:52DDH         LINE#         725
  C:52F1H         LINE#         726
  C:5309H         LINE#         727
  C:530CH         LINE#         728
  C:530CH         LINE#         729
  C:5320H         LINE#         730
  C:5338H         LINE#         731
  C:533BH         LINE#         732
  C:533BH         LINE#         733
  C:5344H         LINE#         734
  C:535CH         LINE#         735
  C:535EH         LINE#         736
  C:535EH         LINE#         737
  C:5371H         LINE#         738
  C:5371H         LINE#         739
  C:5376H         LINE#         740
  C:538DH         LINE#         741
  C:538DH         LINE#         742
  C:538FH         LINE#         743
  C:538FH         LINE#         744
  C:539FH         LINE#         745
BL51 BANKED LINKER/LOCATER V6.22.2.0                                                  06/01/2022  09:37:04  PAGE 84


  C:539FH         LINE#         746
  C:53A4H         LINE#         747
  C:53BFH         LINE#         748
  C:53BFH         LINE#         749
  C:53C1H         LINE#         750
  C:53C1H         LINE#         751
  C:53D1H         LINE#         752
  C:53D1H         LINE#         753
  C:53D6H         LINE#         754
  C:53F1H         LINE#         755
  C:53F9H         LINE#         756
  C:53F9H         LINE#         757
  C:53F9H         LINE#         758
  C:53F9H         LINE#         759
  -------         ENDPROC       _SAVESUBPARA
  -------         PROC          _SYSSUBSETKEY
  X:107DH         SYMBOL        key
  C:5910H         LINE#         762
  C:5915H         LINE#         763
  C:5915H         LINE#         764
  C:591CH         LINE#         765
  C:591CH         LINE#         766
  C:591EH         LINE#         768
  C:591EH         LINE#         769
  C:592EH         LINE#         770
  C:592EH         LINE#         771
  C:592EH         LINE#         772
  C:5947H         LINE#         773
  C:5947H         LINE#         774
  C:594DH         LINE#         775
  C:594DH         LINE#         776
  C:594FH         LINE#         777
  C:5951H         LINE#         779
  C:5951H         LINE#         780
  C:5953H         LINE#         781
  C:5953H         LINE#         782
  C:5955H         LINE#         784
  C:5955H         LINE#         786
  C:595BH         LINE#         787
  C:5972H         LINE#         788
  C:5975H         LINE#         789
  C:5977H         LINE#         790
  C:5977H         LINE#         791
  C:5979H         LINE#         793
  C:5979H         LINE#         794
  C:5982H         LINE#         795
  C:5982H         LINE#         796
  C:5992H         LINE#         797
  C:5998H         LINE#         798
  C:5999H         LINE#         800
  C:5999H         LINE#         801
  C:599CH         LINE#         802
  C:599CH         LINE#         804
  C:599CH         LINE#         805
  C:59B2H         LINE#         806
  C:59B2H         LINE#         807
  C:59C4H         LINE#         808
BL51 BANKED LINKER/LOCATER V6.22.2.0                                                  06/01/2022  09:37:04  PAGE 85


  C:59C4H         LINE#         809
  C:59CAH         LINE#         810
  C:59D3H         LINE#         811
  C:59D6H         LINE#         812
  C:59E3H         LINE#         813
  C:59E3H         LINE#         814
  C:59F0H         LINE#         815
  C:59F0H         LINE#         816
  C:59F6H         LINE#         817
  C:59FCH         LINE#         818
  C:59FCH         LINE#         819
  C:59FFH         LINE#         820
  C:5A06H         LINE#         821
  C:5A06H         LINE#         822
  C:5A21H         LINE#         823
  C:5A21H         LINE#         824
  C:5A27H         LINE#         825
  C:5A2BH         LINE#         826
  C:5A2BH         LINE#         827
  C:5A2DH         LINE#         828
  C:5A55H         LINE#         829
  C:5A55H         LINE#         830
  C:5A5BH         LINE#         831
  C:5A63H         LINE#         832
  C:5A74H         LINE#         833
  C:5A74H         LINE#         834
  C:5A83H         LINE#         835
  C:5A85H         LINE#         837
  C:5A85H         LINE#         838
  C:5A94H         LINE#         839
  C:5A94H         LINE#         840
  C:5A94H         LINE#         841
  C:5A94H         LINE#         842
  C:5A97H         LINE#         843
  -------         ENDPROC       _SYSSUBSETKEY
  -------         PROC          _SYSKEY
  X:107CH         SYMBOL        Key
  C:5C1BH         LINE#         845
  C:5C20H         LINE#         846
  C:5C20H         LINE#         847
  C:5C29H         LINE#         848
  C:5C9BH         LINE#         849
  C:5C9BH         LINE#         850
  C:5C9BH         LINE#         851
  C:5CA3H         LINE#         852
  C:5CA6H         LINE#         853
  C:5CA6H         LINE#         854
  C:5CAEH         LINE#         855
  C:5CB1H         LINE#         856
  C:5CB1H         LINE#         857
  C:5CB9H         LINE#         858
  C:5CBCH         LINE#         859
  C:5CBCH         LINE#         860
  C:5CC4H         LINE#         861
  C:5CC7H         LINE#         862
  C:5CC7H         LINE#         863
  C:5CCFH         LINE#         864
BL51 BANKED LINKER/LOCATER V6.22.2.0                                                  06/01/2022  09:37:04  PAGE 86


  C:5CD2H         LINE#         865
  C:5CD2H         LINE#         866
  C:5CDAH         LINE#         867
  C:5CDDH         LINE#         868
  C:5CDDH         LINE#         869
  C:5CE5H         LINE#         870
  C:5CE8H         LINE#         871
  C:5CE8H         LINE#         872
  C:5CF0H         LINE#         873
  C:5CF2H         LINE#         874
  C:5CF2H         LINE#         875
  C:5CFAH         LINE#         876
  C:5CFCH         LINE#         877
  C:5CFCH         LINE#         878
  C:5D04H         LINE#         879
  C:5D06H         LINE#         880
  C:5D06H         LINE#         881
  C:5D0EH         LINE#         882
  C:5D10H         LINE#         883
  C:5D10H         LINE#         884
  C:5D18H         LINE#         885
  C:5D1AH         LINE#         886
  C:5D1AH         LINE#         887
  C:5D22H         LINE#         888
  C:5D24H         LINE#         889
  C:5D24H         LINE#         890
  C:5D2CH         LINE#         891
  C:5D2EH         LINE#         892
  C:5D2EH         LINE#         893
  C:5D36H         LINE#         894
  C:5D38H         LINE#         895
  C:5D38H         LINE#         896
  C:5D40H         LINE#         897
  C:5D42H         LINE#         898
  C:5D42H         LINE#         899
  C:5D4AH         LINE#         900
  C:5D4CH         LINE#         901
  C:5D4CH         LINE#         902
  C:5D54H         LINE#         903
  C:5D56H         LINE#         904
  C:5D56H         LINE#         905
  C:5D56H         LINE#         906
  C:5D5EH         LINE#         907
  C:5D60H         LINE#         908
  C:5D60H         LINE#         909
  C:5D60H         LINE#         910
  C:5D60H         LINE#         911
  C:5D60H         LINE#         912
  C:5D60H         LINE#         913
  C:5D60H         LINE#         914
  C:5D60H         LINE#         915
  C:5D60H         LINE#         916
  C:5D60H         LINE#         917
  C:5D68H         LINE#         918
  C:5D68H         LINE#         919
  C:5D68H         LINE#         920
  C:5D8EH         LINE#         921
BL51 BANKED LINKER/LOCATER V6.22.2.0                                                  06/01/2022  09:37:04  PAGE 87


  C:5D8EH         LINE#         922
  C:5D97H         LINE#         923
  C:5D97H         LINE#         924
  -------         ENDPROC       _SYSKEY
  -------         PROC          _SYSCARD
  X:107CH         SYMBOL        card
  C:849DH         LINE#         926
  C:84A8H         LINE#         927
  C:84A8H         LINE#         928
  C:84BBH         LINE#         929
  C:84BBH         LINE#         930
  C:84BBH         LINE#         931
  C:84BBH         LINE#         932
  C:84C9H         LINE#         933
  C:84C9H         LINE#         934
  C:84C9H         LINE#         935
  C:84C9H         LINE#         936
  C:84C9H         LINE#         937
  C:84C9H         LINE#         938
  C:84C9H         LINE#         939
  C:84DFH         LINE#         940
  C:84DFH         LINE#         941
  C:84EBH         LINE#         942
  C:84EDH         LINE#         944
  C:84EDH         LINE#         945
  C:84F0H         LINE#         946
  C:84F0H         LINE#         947
  C:84FEH         LINE#         948
  C:84FEH         LINE#         949
  C:8507H         LINE#         950
  C:8507H         LINE#         951
  C:8507H         LINE#         953
  C:8507H         LINE#         954
  -------         ENDPROC       _SYSCARD
  -------         ENDMOD        SYSSTATUS

  -------         MODULE        UNLOCKPASSWORD
  C:0000H         SYMBOL        _ICE_DUMMY_
  D:0080H         PUBLIC        P0
  D:0090H         PUBLIC        P1
  D:00A0H         PUBLIC        P2
  D:00B0H         PUBLIC        P3
  D:00C0H         PUBLIC        P4
  D:00C8H         PUBLIC        P5
  D:00E8H         PUBLIC        P6
  D:00F8H         PUBLIC        P7
  C:7CEDH         PUBLIC        PswSetCon
  D:00A8H         PUBLIC        IE
  C:948EH         PUBLIC        SaveSysPsw
  C:9398H         PUBLIC        _PswSetKey
  C:95C0H         PUBLIC        _PswDelAllKey
  D:00B8H         PUBLIC        IP
  C:810FH         PUBLIC        _CheckPsw
  C:9471H         PUBLIC        _ReadPswByIdx
  D:00D8H         PUBLIC        CCON
  C:9800H         PUBLIC        ClearPsw
  C:9185H         PUBLIC        EditSysPswCon
BL51 BANKED LINKER/LOCATER V6.22.2.0                                                  06/01/2022  09:37:04  PAGE 88


  C:8FECH         PUBLIC        _WritePswByIdx
  C:9116H         PUBLIC        _DelPswByRoom
  C:3DF2H         PUBLIC        _SysPswEditKey
  D:0098H         PUBLIC        SCON
  C:9160H         PUBLIC        DeletePswCon
  D:0088H         PUBLIC        TCON
  C:8354H         PUBLIC        _DelPswByIdx
  C:88D6H         PUBLIC        _GetPswByRoom
  C:5766H         PUBLIC        _PswDeleteKey
  D:00F0H         PUBLIC        B
  D:00E0H         PUBLIC        ACC
  C:9673H         PUBLIC        DeleteAllPswCon
  C:9717H         PUBLIC        InitPsw
  X:1379H         PUBLIC        PswEditItem
  C:8013H         PUBLIC        _AddPswItem
  X:1383H         SYMBOL        PswEditMidx
  C:92CBH         PUBLIC        SavePswCount
  C:37B2H         PUBLIC        _ShowPsw
  C:913BH         PUBLIC        EditPswCon
  X:1384H         SYMBOL        PswEditIdx
  C:2592H         PUBLIC        _PswEditKey
  C:9260H         PUBLIC        InputPswCon
  C:64AAH         PUBLIC        _PswInputKey
  D:00D0H         PUBLIC        PSW
  -------         PROC          SAVEPSWCOUNT
  C:92CBH         LINE#         11
  C:92CBH         LINE#         12
  C:92CBH         LINE#         13
  -------         ENDPROC       SAVEPSWCOUNT
  -------         PROC          CLEARPSW
  C:9800H         LINE#         16
  C:9800H         LINE#         17
  C:9800H         LINE#         18
  C:9807H         LINE#         19
  -------         ENDPROC       CLEARPSW
  -------         PROC          INITPSW
  C:9717H         LINE#         22
  C:9717H         LINE#         23
  C:9717H         LINE#         24
  C:9726H         LINE#         25
  C:9726H         LINE#         26
  C:9729H         LINE#         27
  C:9729H         LINE#         28
  -------         ENDPROC       INITPSW
  -------         PROC          L?0239
  -------         ENDPROC       L?0239
  -------         PROC          _WRITEPSWBYIDX
  D:0006H         SYMBOL        idx
  D:0001H         SYMBOL        pItem
  -------         DO            
  D:0006H         SYMBOL        addr
  -------         ENDDO         
  C:8FECH         LINE#         30
  C:8FECH         LINE#         31
  C:8FECH         LINE#         32
  C:8FECH         LINE#         33
  C:8FF6H         LINE#         34
BL51 BANKED LINKER/LOCATER V6.22.2.0                                                  06/01/2022  09:37:04  PAGE 89


  -------         ENDPROC       _WRITEPSWBYIDX
  -------         PROC          _READPSWBYIDX
  D:0006H         SYMBOL        idx
  D:0001H         SYMBOL        pItem
  -------         DO            
  D:0006H         SYMBOL        addr
  -------         ENDDO         
  C:9471H         LINE#         37
  C:9471H         LINE#         38
  C:9471H         LINE#         39
  C:9471H         LINE#         40
  C:947BH         LINE#         41
  -------         ENDPROC       _READPSWBYIDX
  -------         PROC          _GETPSWBYROOM
  D:0006H         SYMBOL        room
  X:1398H         SYMBOL        pItem
  -------         DO            
  X:139BH         SYMBOL        idx
  -------         ENDDO         
  C:88D6H         LINE#         44
  C:88E1H         LINE#         45
  C:88E1H         LINE#         46
  C:88E7H         LINE#         47
  C:88F4H         LINE#         48
  C:88FBH         LINE#         49
  C:88FBH         LINE#         50
  C:8911H         LINE#         51
  C:891AH         LINE#         52
  C:891AH         LINE#         53
  C:891EH         LINE#         54
  -------         ENDPROC       _GETPSWBYROOM
  -------         PROC          _CHECKPSW
  X:107EH         SYMBOL        psw
  -------         DO            
  X:1080H         SYMBOL        i
  X:1082H         SYMBOL        pItem
  -------         ENDDO         
  C:810FH         LINE#         56
  C:8117H         LINE#         57
  C:8117H         LINE#         58
  C:811CH         LINE#         60
  C:812DH         LINE#         61
  C:8137H         LINE#         62
  C:8137H         LINE#         63
  C:8139H         LINE#         64
  C:8139H         LINE#         65
  C:8156H         LINE#         66
  C:8156H         LINE#         67
  C:815FH         LINE#         68
  C:8173H         LINE#         69
  C:8173H         LINE#         70
  C:8175H         LINE#         71
  C:8175H         LINE#         72
  C:8185H         LINE#         73
  C:8186H         LINE#         74
  -------         ENDPROC       _CHECKPSW
  -------         PROC          _ADDPSWITEM
BL51 BANKED LINKER/LOCATER V6.22.2.0                                                  06/01/2022  09:37:04  PAGE 90


  X:1084H         SYMBOL        pItem
  -------         DO            
  X:1087H         SYMBOL        idx
  -------         ENDDO         
  C:8013H         LINE#         76
  C:801EH         LINE#         77
  C:801EH         LINE#         78
  C:8024H         LINE#         79
  C:8037H         LINE#         81
  C:803EH         LINE#         82
  C:803EH         LINE#         83
  C:8047H         LINE#         84
  C:8052H         LINE#         85
  C:805BH         LINE#         86
  C:805BH         LINE#         87
  C:806BH         LINE#         88
  C:806BH         LINE#         90
  C:806EH         LINE#         91
  C:807CH         LINE#         92
  C:807FH         LINE#         93
  C:808EH         LINE#         94
  C:808EH         LINE#         96
  C:8092H         LINE#         97
  -------         ENDPROC       _ADDPSWITEM
  -------         PROC          _DELPSWBYIDX
  X:1082H         SYMBOL        idx
  -------         DO            
  X:1084H         SYMBOL        tmpItem
  -------         ENDDO         
  C:8354H         LINE#         99
  C:835CH         LINE#         100
  C:835CH         LINE#         102
  C:836AH         LINE#         103
  C:836AH         LINE#         104
  C:837EH         LINE#         105
  C:837EH         LINE#         106
  C:838CH         LINE#         107
  C:838FH         LINE#         108
  C:838FH         LINE#         110
  C:838FH         LINE#         111
  C:839DH         LINE#         112
  C:83A0H         LINE#         113
  C:83B1H         LINE#         114
  C:83C2H         LINE#         115
  C:83C2H         LINE#         116
  C:83C2H         LINE#         117
  -------         ENDPROC       _DELPSWBYIDX
  -------         PROC          _DELPSWBYROOM
  X:1080H         SYMBOL        room
  -------         DO            
  D:0006H         SYMBOL        idx
  -------         ENDDO         
  C:9116H         LINE#         119
  C:911EH         LINE#         120
  C:911EH         LINE#         121
  C:9120H         LINE#         122
  C:9128H         LINE#         123
BL51 BANKED LINKER/LOCATER V6.22.2.0                                                  06/01/2022  09:37:04  PAGE 91


  C:9128H         LINE#         124
  C:912BH         LINE#         125
  C:9138H         LINE#         126
  C:913AH         LINE#         127
  -------         ENDPROC       _DELPSWBYROOM
  C:37AAH         SYMBOL        L?0238
  -------         PROC          L?0237
  -------         ENDPROC       L?0237
  C:37AAH         SYMBOL        L?0238
  -------         PROC          _SHOWPSW
  X:1084H         SYMBOL        pItem
  B:0020H.0       SYMBOL        edit
  -------         DO            
  X:1087H         SYMBOL        Disbuf
  X:10A7H         SYMBOL        i
  X:10A8H         SYMBOL        tmp
  -------         ENDDO         
  C:37B2H         LINE#         133
  C:37BDH         LINE#         134
  C:37BDH         LINE#         137
  C:37C0H         LINE#         138
  C:37C7H         LINE#         139
  C:37C7H         LINE#         140
  C:37D3H         LINE#         141
  C:37D6H         LINE#         142
  C:37E1H         LINE#         144
  C:37E1H         LINE#         145
  C:3802H         LINE#         146
  C:3802H         LINE#         149
  C:3805H         LINE#         150
  C:3834H         LINE#         151
  C:385AH         LINE#         152
  C:385CH         LINE#         154
  C:385CH         LINE#         155
  C:385FH         LINE#         157
  C:385FH         LINE#         159
  C:3865H         LINE#         160
  C:3865H         LINE#         163
  C:3878H         LINE#         167
  C:3878H         LINE#         168
  C:3878H         LINE#         169
  C:387EH         LINE#         170
  C:387EH         LINE#         171
  C:389DH         LINE#         172
  C:389DH         LINE#         175
  C:38BFH         LINE#         176
  C:38D3H         LINE#         177
  C:38F1H         LINE#         178
  C:38F1H         LINE#         179
  C:390BH         LINE#         180
  C:3928H         LINE#         181
  C:3930H         LINE#         182
  C:3949H         LINE#         183
  C:3955H         LINE#         184
  C:396AH         LINE#         185
  C:396AH         LINE#         188
  C:396AH         LINE#         192
BL51 BANKED LINKER/LOCATER V6.22.2.0                                                  06/01/2022  09:37:04  PAGE 92


  C:396AH         LINE#         193
  C:396CH         LINE#         195
  C:396CH         LINE#         196
  C:3979H         LINE#         197
  C:398EH         LINE#         198
  C:398EH         LINE#         201
  C:39A1H         LINE#         205
  C:39A1H         LINE#         206
  C:39A1H         LINE#         207
  C:39ACH         LINE#         208
  C:39ACH         LINE#         209
  C:39CBH         LINE#         210
  C:39CBH         LINE#         213
  C:39EDH         LINE#         214
  C:3A01H         LINE#         215
  C:3A1FH         LINE#         216
  C:3A1FH         LINE#         217
  C:3A39H         LINE#         218
  C:3A56H         LINE#         219
  C:3A5EH         LINE#         220
  C:3A77H         LINE#         221
  C:3A83H         LINE#         222
  C:3A98H         LINE#         223
  C:3A98H         LINE#         226
  C:3A98H         LINE#         230
  C:3A98H         LINE#         231
  C:3A9AH         LINE#         233
  C:3A9AH         LINE#         234
  C:3AA7H         LINE#         235
  C:3ABCH         LINE#         236
  C:3ABCH         LINE#         239
  C:3ACFH         LINE#         243
  C:3ACFH         LINE#         244
  C:3ACFH         LINE#         245
  C:3ACFH         LINE#         246
  C:3ACFH         LINE#         247
  -------         ENDPROC       _SHOWPSW
  -------         PROC          EDITPSWCON
  C:913BH         LINE#         249
  C:913BH         LINE#         250
  C:913BH         LINE#         251
  C:9148H         LINE#         252
  C:914DH         LINE#         253
  C:914FH         LINE#         254
  C:9155H         LINE#         255
  -------         ENDPROC       EDITPSWCON
  -------         PROC          _PSWEDITKEY
  X:107DH         SYMBOL        key
  -------         DO            
  X:107EH         SYMBOL        tmp
  X:1080H         SYMBOL        tmpItem
  B:0021H.5       SYMBOL        Saved
  -------         ENDDO         
  C:2592H         LINE#         258
  C:2597H         LINE#         259
  C:2597H         LINE#         263
  C:259EH         LINE#         264
BL51 BANKED LINKER/LOCATER V6.22.2.0                                                  06/01/2022  09:37:04  PAGE 93


  C:259EH         LINE#         265
  C:25A9H         LINE#         266
  C:25A9H         LINE#         267
  C:25ACH         LINE#         268
  C:25ACH         LINE#         269
  C:25B8H         LINE#         270
  C:25BDH         LINE#         271
  C:25C0H         LINE#         273
  C:25C0H         LINE#         274
  C:2607H         LINE#         277
  C:2607H         LINE#         278
  C:2616H         LINE#         279
  C:2627H         LINE#         280
  C:2638H         LINE#         281
  C:2638H         LINE#         282
  C:263BH         LINE#         283
  C:263DH         LINE#         285
  C:263DH         LINE#         286
  C:2640H         LINE#         287
  C:2640H         LINE#         288
  C:264DH         LINE#         289
  C:264FH         LINE#         290
  C:2659H         LINE#         291
  C:2663H         LINE#         292
  C:2664H         LINE#         294
  C:2664H         LINE#         295
  C:2667H         LINE#         296
  C:2667H         LINE#         298
  C:2667H         LINE#         299
  C:2667H         LINE#         300
  C:266DH         LINE#         301
  C:2672H         LINE#         302
  C:2675H         LINE#         303
  C:2686H         LINE#         304
  C:2686H         LINE#         305
  C:2686H         LINE#         306
  C:268BH         LINE#         307
  C:2698H         LINE#         308
  C:26ABH         LINE#         309
  C:26ABH         LINE#         310
  C:26B1H         LINE#         311
  C:26C0H         LINE#         312
  C:26C2H         LINE#         313
  C:26C2H         LINE#         314
  C:26C2H         LINE#         315
  C:26C5H         LINE#         316
  C:26C5H         LINE#         323
  C:26C7H         LINE#         324
  C:26C7H         LINE#         325
  C:26D1H         LINE#         326
  C:26D6H         LINE#         333
  C:26D9H         LINE#         334
  C:26D9H         LINE#         335
  C:26DCH         LINE#         336
  C:26DFH         LINE#         338
  C:26DFH         LINE#         339
  C:26DFH         LINE#         340
BL51 BANKED LINKER/LOCATER V6.22.2.0                                                  06/01/2022  09:37:04  PAGE 94


  C:26EAH         LINE#         341
  C:26EAH         LINE#         342
  C:2704H         LINE#         343
  C:2704H         LINE#         344
  C:2704H         LINE#         345
  C:270DH         LINE#         346
  C:270DH         LINE#         347
  C:2710H         LINE#         348
  C:2727H         LINE#         349
  C:272AH         LINE#         351
  C:272AH         LINE#         352
  C:272DH         LINE#         354
  C:272DH         LINE#         355
  C:272DH         LINE#         356
  C:272DH         LINE#         357
  C:2736H         LINE#         358
  C:2736H         LINE#         359
  C:2739H         LINE#         360
  C:2753H         LINE#         361
  C:2755H         LINE#         363
  C:2755H         LINE#         364
  C:275BH         LINE#         365
  C:275EH         LINE#         366
  C:276BH         LINE#         367
  C:277EH         LINE#         368
  C:277EH         LINE#         369
  C:2784H         LINE#         370
  C:2793H         LINE#         371
  C:2795H         LINE#         372
  C:2795H         LINE#         373
  C:2795H         LINE#         374
  C:2795H         LINE#         375
  C:279EH         LINE#         376
  C:279EH         LINE#         377
  C:27A1H         LINE#         378
  C:27BEH         LINE#         379
  C:27C1H         LINE#         381
  C:27C1H         LINE#         382
  C:27C7H         LINE#         383
  C:27CAH         LINE#         384
  C:27D9H         LINE#         385
  C:27E9H         LINE#         386
  C:27E9H         LINE#         387
  C:27EFH         LINE#         388
  C:27FEH         LINE#         389
  C:2800H         LINE#         390
  C:2800H         LINE#         391
  C:2800H         LINE#         392
  C:2800H         LINE#         393
  C:2805H         LINE#         394
  C:2807H         LINE#         395
  C:2814H         LINE#         396
  C:2824H         LINE#         397
  C:2824H         LINE#         398
  C:282AH         LINE#         399
  C:2839H         LINE#         400
  C:283BH         LINE#         401
BL51 BANKED LINKER/LOCATER V6.22.2.0                                                  06/01/2022  09:37:04  PAGE 95


  C:283BH         LINE#         402
  C:283BH         LINE#         403
  C:283BH         LINE#         404
  C:2842H         LINE#         405
  C:2842H         LINE#         406
  C:2845H         LINE#         408
  C:2845H         LINE#         410
  C:285BH         LINE#         411
  C:285BH         LINE#         412
  C:286FH         LINE#         413
  C:286FH         LINE#         414
  C:286FH         LINE#         415
  C:2878H         LINE#         416
  C:2878H         LINE#         417
  C:288FH         LINE#         418
  C:28A2H         LINE#         419
  C:28A8H         LINE#         420
  C:28B7H         LINE#         421
  C:28B7H         LINE#         422
  C:28BCH         LINE#         423
  C:28C1H         LINE#         424
  C:28C1H         LINE#         425
  C:28C1H         LINE#         426
  C:28CEH         LINE#         427
  C:28CEH         LINE#         428
  C:28CEH         LINE#         429
  C:28CEH         LINE#         430
  C:28D1H         LINE#         431
  C:28D1H         LINE#         432
  C:28DAH         LINE#         433
  C:28DAH         LINE#         434
  C:28F7H         LINE#         435
  C:2920H         LINE#         436
  C:2926H         LINE#         437
  C:2926H         LINE#         438
  C:293FH         LINE#         439
  C:293FH         LINE#         440
  C:293FH         LINE#         441
  C:293FH         LINE#         442
  C:2941H         LINE#         443
  C:2941H         LINE#         444
  C:294AH         LINE#         445
  C:294AH         LINE#         446
  C:2967H         LINE#         447
  C:2990H         LINE#         448
  C:2996H         LINE#         449
  C:2996H         LINE#         450
  C:29AFH         LINE#         451
  C:29AFH         LINE#         452
  C:29B3H         LINE#         453
  C:29B3H         LINE#         454
  C:29B3H         LINE#         455
  C:29B3H         LINE#         456
  C:29B3H         LINE#         457
  C:29B6H         LINE#         458
  -------         ENDPROC       _PSWEDITKEY
  -------         PROC          DELETEPSWCON
BL51 BANKED LINKER/LOCATER V6.22.2.0                                                  06/01/2022  09:37:04  PAGE 96


  C:9160H         LINE#         460
  C:9160H         LINE#         461
  C:9160H         LINE#         462
  C:916DH         LINE#         463
  C:9172H         LINE#         464
  C:9174H         LINE#         465
  C:917AH         LINE#         466
  -------         ENDPROC       DELETEPSWCON
  -------         PROC          _PSWDELETEKEY
  X:107DH         SYMBOL        key
  -------         DO            
  X:107EH         SYMBOL        tmp
  B:0021H.6       SYMBOL        Saved
  -------         ENDDO         
  C:5766H         LINE#         469
  C:576BH         LINE#         470
  C:576BH         LINE#         473
  C:5772H         LINE#         474
  C:5772H         LINE#         475
  C:577AH         LINE#         476
  C:577AH         LINE#         477
  C:577DH         LINE#         478
  C:577DH         LINE#         479
  C:5789H         LINE#         480
  C:578EH         LINE#         481
  C:5790H         LINE#         483
  C:5790H         LINE#         484
  C:57A3H         LINE#         485
  C:57A3H         LINE#         486
  C:57A6H         LINE#         487
  C:57B3H         LINE#         488
  C:57B5H         LINE#         489
  C:57B8H         LINE#         490
  C:57B8H         LINE#         492
  C:57B8H         LINE#         493
  C:57B8H         LINE#         494
  C:57BEH         LINE#         495
  C:57C3H         LINE#         496
  C:57C6H         LINE#         497
  C:57D0H         LINE#         498
  C:57D0H         LINE#         499
  C:57D0H         LINE#         500
  C:57D5H         LINE#         501
  C:57E2H         LINE#         502
  C:57F5H         LINE#         503
  C:57F5H         LINE#         504
  C:57FBH         LINE#         505
  C:580AH         LINE#         506
  C:580CH         LINE#         507
  C:580CH         LINE#         508
  C:580CH         LINE#         509
  C:580FH         LINE#         510
  C:5812H         LINE#         512
  C:5812H         LINE#         513
  C:5812H         LINE#         514
  C:581AH         LINE#         515
  C:581AH         LINE#         516
BL51 BANKED LINKER/LOCATER V6.22.2.0                                                  06/01/2022  09:37:04  PAGE 97


  C:5824H         LINE#         517
  C:5824H         LINE#         518
  C:5824H         LINE#         519
  C:582DH         LINE#         520
  C:582DH         LINE#         521
  C:5830H         LINE#         522
  C:5847H         LINE#         523
  C:5849H         LINE#         528
  C:5849H         LINE#         529
  C:5849H         LINE#         530
  C:5849H         LINE#         531
  C:584EH         LINE#         532
  C:5850H         LINE#         533
  C:585DH         LINE#         534
  C:586DH         LINE#         535
  C:586DH         LINE#         536
  C:5873H         LINE#         537
  C:5882H         LINE#         538
  C:5884H         LINE#         539
  C:5884H         LINE#         540
  C:5884H         LINE#         541
  C:5884H         LINE#         542
  C:588BH         LINE#         543
  C:588BH         LINE#         544
  C:588EH         LINE#         546
  C:588EH         LINE#         548
  C:589EH         LINE#         549
  C:589EH         LINE#         550
  C:58A4H         LINE#         551
  C:58A4H         LINE#         552
  C:58A4H         LINE#         553
  C:58ADH         LINE#         554
  C:58ADH         LINE#         555
  C:58C4H         LINE#         556
  C:58D7H         LINE#         557
  C:58DDH         LINE#         558
  C:58ECH         LINE#         559
  C:58ECH         LINE#         560
  C:58F1H         LINE#         561
  C:58F6H         LINE#         562
  C:58F6H         LINE#         563
  C:58F6H         LINE#         564
  C:5900H         LINE#         565
  C:5900H         LINE#         566
  C:5904H         LINE#         567
  C:5904H         LINE#         568
  C:5904H         LINE#         569
  C:5904H         LINE#         570
  C:5904H         LINE#         571
  C:590FH         LINE#         572
  -------         ENDPROC       _PSWDELETEKEY
  -------         PROC          DELETEALLPSWCON
  C:9673H         LINE#         574
  C:9673H         LINE#         575
  C:9673H         LINE#         576
  C:9679H         LINE#         577
  C:967CH         LINE#         578
BL51 BANKED LINKER/LOCATER V6.22.2.0                                                  06/01/2022  09:37:04  PAGE 98


  -------         ENDPROC       DELETEALLPSWCON
  -------         PROC          _PSWDELALLKEY
  D:0007H         SYMBOL        key
  C:95C0H         LINE#         580
  C:95C0H         LINE#         581
  C:95C0H         LINE#         582
  C:95CDH         LINE#         583
  C:95CDH         LINE#         584
  C:95CDH         LINE#         585
  C:95D0H         LINE#         586
  C:95D3H         LINE#         587
  C:95D3H         LINE#         588
  C:95D3H         LINE#         589
  C:95D3H         LINE#         590
  C:95D6H         LINE#         591
  C:95D6H         LINE#         592
  C:95D6H         LINE#         593
  -------         ENDPROC       _PSWDELALLKEY
  -------         PROC          PSWSETCON
  -------         DO            
  X:1084H         SYMBOL        Disbuf
  -------         ENDDO         
  C:7CEDH         LINE#         595
  C:7CEDH         LINE#         596
  C:7CEDH         LINE#         599
  C:7CF3H         LINE#         601
  C:7CF6H         LINE#         602
  C:7D02H         LINE#         603
  C:7D0FH         LINE#         604
  C:7D1CH         LINE#         605
  C:7D29H         LINE#         606
  C:7D4FH         LINE#         607
  -------         ENDPROC       PSWSETCON
  -------         PROC          _PSWSETKEY
  D:0007H         SYMBOL        key
  C:9398H         LINE#         610
  C:9398H         LINE#         611
  C:9398H         LINE#         612
  C:93ACH         LINE#         613
  C:93ACH         LINE#         614
  C:93ACH         LINE#         615
  C:93AFH         LINE#         616
  C:93AFH         LINE#         617
  C:93AFH         LINE#         618
  C:93B2H         LINE#         619
  C:93B2H         LINE#         620
  C:93B2H         LINE#         621
  C:93B5H         LINE#         622
  C:93B5H         LINE#         623
  C:93B5H         LINE#         624
  C:93B5H         LINE#         625
  C:93B8H         LINE#         626
  C:93B8H         LINE#         627
  C:93B8H         LINE#         628
  -------         ENDPROC       _PSWSETKEY
  -------         PROC          INPUTPSWCON
  C:9260H         LINE#         630
BL51 BANKED LINKER/LOCATER V6.22.2.0                                                  06/01/2022  09:37:04  PAGE 99


  C:9260H         LINE#         631
  C:9260H         LINE#         632
  C:926DH         LINE#         633
  C:9273H         LINE#         634
  C:9276H         LINE#         635
  C:927CH         LINE#         636
  C:927FH         LINE#         638
  -------         ENDPROC       INPUTPSWCON
  -------         PROC          _PSWINPUTKEY
  X:107DH         SYMBOL        key
  C:64AAH         LINE#         641
  C:64AFH         LINE#         642
  C:64AFH         LINE#         643
  C:64B3H         LINE#         644
  C:64B3H         LINE#         645
  C:64BAH         LINE#         646
  C:64BAH         LINE#         662
  C:64BAH         LINE#         663
  C:64C3H         LINE#         664
  C:64C3H         LINE#         665
  C:64C6H         LINE#         666
  C:64E3H         LINE#         667
  C:64E5H         LINE#         680
  C:64E5H         LINE#         681
  C:64E5H         LINE#         682
  C:64E5H         LINE#         683
  C:64E5H         LINE#         684
  C:64ECH         LINE#         685
  C:64ECH         LINE#         686
  C:64EFH         LINE#         688
  C:64EFH         LINE#         690
  C:6505H         LINE#         691
  C:6505H         LINE#         692
  C:650FH         LINE#         693
  C:650FH         LINE#         706
  C:650FH         LINE#         707
  C:6518H         LINE#         708
  C:6518H         LINE#         709
  C:6535H         LINE#         710
  C:655EH         LINE#         711
  C:6564H         LINE#         712
  C:6564H         LINE#         713
  C:657DH         LINE#         714
  C:657DH         LINE#         715
  C:6581H         LINE#         716
  C:6581H         LINE#         720
  C:6589H         LINE#         721
  C:6589H         LINE#         723
  C:6589H         LINE#         725
  C:6598H         LINE#         726
  C:6598H         LINE#         727
  C:65A4H         LINE#         728
  C:65ADH         LINE#         729
  C:65B7H         LINE#         730
  C:65BEH         LINE#         731
  C:65C2H         LINE#         732
  C:65C8H         LINE#         734
BL51 BANKED LINKER/LOCATER V6.22.2.0                                                  06/01/2022  09:37:04  PAGE 100


  C:65C8H         LINE#         736
  C:65C8H         LINE#         737
  C:65D2H         LINE#         738
  C:65D7H         LINE#         739
  C:65DCH         LINE#         740
  C:65DFH         LINE#         741
  C:65E4H         LINE#         742
  C:65EDH         LINE#         743
  C:65EDH         LINE#         744
  C:65EEH         LINE#         755
  C:65EEH         LINE#         756
  C:65EEH         LINE#         757
  C:65EEH         LINE#         758
  C:65EEH         LINE#         759
  C:65F1H         LINE#         760
  -------         ENDPROC       _PSWINPUTKEY
  -------         PROC          EDITSYSPSWCON
  C:9185H         LINE#         763
  C:9185H         LINE#         764
  C:9185H         LINE#         765
  C:9192H         LINE#         766
  C:9197H         LINE#         767
  C:9199H         LINE#         768
  C:919FH         LINE#         769
  -------         ENDPROC       EDITSYSPSWCON
  -------         PROC          SAVESYSPSW
  C:948EH         LINE#         771
  C:948EH         LINE#         772
  C:948EH         LINE#         773
  -------         ENDPROC       SAVESYSPSW
  -------         PROC          _SYSPSWEDITKEY
  X:107DH         SYMBOL        key
  -------         DO            
  D:0006H         SYMBOL        tmp
  B:0021H.7       SYMBOL        Saved
  -------         ENDDO         
  C:3DF2H         LINE#         776
  C:3DF7H         LINE#         777
  C:3DF7H         LINE#         780
  C:3DFEH         LINE#         781
  C:3DFEH         LINE#         782
  C:3E09H         LINE#         783
  C:3E09H         LINE#         784
  C:3E0CH         LINE#         785
  C:3E0CH         LINE#         786
  C:3E18H         LINE#         787
  C:3E1DH         LINE#         788
  C:3E20H         LINE#         790
  C:3E20H         LINE#         791
  C:3E56H         LINE#         793
  C:3E56H         LINE#         794
  C:3E6AH         LINE#         795
  C:3E6DH         LINE#         796
  C:3E70H         LINE#         797
  C:3E7DH         LINE#         798
  C:3E7FH         LINE#         799
  C:3E89H         LINE#         800
BL51 BANKED LINKER/LOCATER V6.22.2.0                                                  06/01/2022  09:37:04  PAGE 101


  C:3E93H         LINE#         801
  C:3E94H         LINE#         803
  C:3E94H         LINE#         804
  C:3E9EH         LINE#         805
  C:3EA8H         LINE#         806
  C:3EABH         LINE#         807
  C:3EABH         LINE#         809
  C:3EABH         LINE#         810
  C:3EABH         LINE#         811
  C:3EBBH         LINE#         812
  C:3EBBH         LINE#         814
  C:3EBBH         LINE#         815
  C:3EC1H         LINE#         816
  C:3ECAH         LINE#         817
  C:3ECDH         LINE#         818
  C:3EDBH         LINE#         819
  C:3EDBH         LINE#         820
  C:3EDBH         LINE#         821
  C:3EDEH         LINE#         822
  C:3EDEH         LINE#         823
  C:3EE0H         LINE#         824
  C:3EE0H         LINE#         825
  C:3EEAH         LINE#         826
  C:3EEFH         LINE#         827
  C:3EF2H         LINE#         828
  C:3EF2H         LINE#         829
  C:3EF5H         LINE#         830
  C:3EF8H         LINE#         832
  C:3EF8H         LINE#         833
  C:3EF8H         LINE#         834
  C:3F03H         LINE#         835
  C:3F03H         LINE#         836
  C:3F17H         LINE#         837
  C:3F17H         LINE#         838
  C:3F17H         LINE#         839
  C:3F20H         LINE#         840
  C:3F20H         LINE#         841
  C:3F23H         LINE#         842
  C:3F3DH         LINE#         843
  C:3F3FH         LINE#         845
  C:3F3FH         LINE#         846
  C:3F41H         LINE#         848
  C:3F41H         LINE#         849
  C:3F41H         LINE#         850
  C:3F41H         LINE#         851
  C:3F4AH         LINE#         852
  C:3F4AH         LINE#         853
  C:3F4DH         LINE#         854
  C:3F6AH         LINE#         855
  C:3F6CH         LINE#         857
  C:3F6CH         LINE#         858
  C:3F72H         LINE#         859
  C:3F75H         LINE#         860
  C:3F7FH         LINE#         861
  C:3F88H         LINE#         862
  C:3F88H         LINE#         863
  C:3F8EH         LINE#         864
BL51 BANKED LINKER/LOCATER V6.22.2.0                                                  06/01/2022  09:37:04  PAGE 102


  C:3F95H         LINE#         865
  C:3F97H         LINE#         866
  C:3F97H         LINE#         867
  C:3F97H         LINE#         868
  C:3F97H         LINE#         869
  C:3F9CH         LINE#         870
  C:3F9EH         LINE#         871
  C:3FA0H         LINE#         872
  C:3FA0H         LINE#         873
  C:3FA0H         LINE#         874
  C:3FA7H         LINE#         875
  C:3FA7H         LINE#         876
  C:3FAAH         LINE#         878
  C:3FAAH         LINE#         880
  C:3FC0H         LINE#         881
  C:3FC0H         LINE#         882
  C:3FCDH         LINE#         883
  C:3FCDH         LINE#         884
  C:3FCDH         LINE#         885
  C:3FD6H         LINE#         886
  C:3FD6H         LINE#         887
  C:3FF3H         LINE#         888
  C:401CH         LINE#         889
  C:4022H         LINE#         890
  C:4022H         LINE#         891
  C:403BH         LINE#         892
  C:403BH         LINE#         893
  C:403BH         LINE#         894
  C:403BH         LINE#         895
  C:403DH         LINE#         896
  C:403DH         LINE#         897
  C:4046H         LINE#         898
  C:4046H         LINE#         899
  C:4063H         LINE#         900
  C:408CH         LINE#         901
  C:4092H         LINE#         902
  C:4092H         LINE#         903
  C:40ABH         LINE#         904
  C:40ABH         LINE#         905
  C:40AFH         LINE#         906
  C:40AFH         LINE#         907
  C:40AFH         LINE#         908
  C:40AFH         LINE#         909
  C:40AFH         LINE#         910
  C:40B2H         LINE#         911
  -------         ENDPROC       _SYSPSWEDITKEY
  -------         ENDMOD        UNLOCKPASSWORD

  -------         MODULE        SYSSTRING
  C:0000H         SYMBOL        _ICE_DUMMY_
  C:1910H         PUBLIC        StrTabErr
  C:19ABH         PUBLIC        StrTabListCount
  D:0080H         PUBLIC        P0
  C:1903H         PUBLIC        StrTabSaveOK
  D:0090H         PUBLIC        P1
  D:00A0H         PUBLIC        P2
  C:1A0AH         PUBLIC        StrTabDelAllCard
BL51 BANKED LINKER/LOCATER V6.22.2.0                                                  06/01/2022  09:37:04  PAGE 103


  D:00B0H         PUBLIC        P3
  D:00C0H         PUBLIC        P4
  D:00C8H         PUBLIC        P5
  C:1934H         PUBLIC        StrTabDelOK
  C:18DBH         PUBLIC        StrTabNum
  D:00E8H         PUBLIC        P6
  D:00F8H         PUBLIC        P7
  C:9782H         PUBLIC        ShowConfirmSave
  C:18B5H         PUBLIC        StrTabDelAllName
  C:1C3DH         PUBLIC        StrTabMain1
  C:1C53H         PUBLIC        StrTabMain2
  C:9792H         PUBLIC        ShowConfirmDel
  D:00A8H         PUBLIC        IE
  C:1C6FH         PUBLIC        StrTabMain3
  C:1C88H         PUBLIC        StrTabMain4
  C:1B20H         PUBLIC        StrTabOn
  C:9546H         PUBLIC        ShowUnlock
  C:97B2H         PUBLIC        ShowDeleteOK
  D:00B8H         PUBLIC        IP
  C:1C9CH         PUBLIC        StrTabRoomErr
  C:1ADBH         PUBLIC        StrTabCamrea
  C:1B75H         PUBLIC        StrTabSimCardBusy
  C:1B0CH         PUBLIC        StrTabUnlockKey2
  D:00D8H         PUBLIC        CCON
  C:1B32H         PUBLIC        StrTabGsmErr
  C:97E2H         PUBLIC        ShowReset
  C:7734H         PUBLIC        _ShowMain
  C:1B60H         PUBLIC        StrTabNotSimCard
  C:1857H         PUBLIC        FhChar
  C:19CCH         PUBLIC        StrTabCardSet1
  C:19E2H         PUBLIC        StrTabCardSet2
  C:1BC7H         PUBLIC        StrTabGsmCsqGood
  C:19FAH         PUBLIC        StrTabCardSet3
  D:0098H         PUBLIC        SCON
  D:0088H         PUBLIC        TCON
  C:187DH         PUBLIC        StrTabNameSet1
  C:1896H         PUBLIC        StrTabNameSet2
  C:18A4H         PUBLIC        StrTabNameSet3
  C:1BADH         PUBLIC        StrTabGsmCsqMed
  X:1365H         PUBLIC        DisBuf
  C:1996H         PUBLIC        StrTabPsw1
  D:00F0H         PUBLIC        B
  C:1940H         PUBLIC        StrTabDelAllPsw
  C:19A3H         PUBLIC        StrTabPsw2
  C:1862H         PUBLIC        StrTabSysSet
  C:1A4AH         PUBLIC        StrTabUnlock
  C:89F4H         PUBLIC        ShowTalkTime
  D:00E0H         PUBLIC        ACC
  C:96B4H         PUBLIC        ShowCardErr
  C:1BDBH         PUBLIC        StrTabMainA1
  C:97A2H         PUBLIC        ShowErr
  C:1BF4H         PUBLIC        StrTabMainA2
  C:1C0CH         PUBLIC        StrTabMainA3
  C:969FH         PUBLIC        ShowSaveOK
  C:1A25H         PUBLIC        StrTabCard
  C:1C27H         PUBLIC        StrTabMainA4
  C:1B85H         PUBLIC        StrTabGsmCsqErr
BL51 BANKED LINKER/LOCATER V6.22.2.0                                                  06/01/2022  09:37:04  PAGE 104


  C:19B8H         PUBLIC        StrTabSysPsw
  C:1A75H         PUBLIC        StrTabCall
  C:1AE7H         PUBLIC        StrTabRelay
  C:18E2H         PUBLIC        StrTabName
  C:1CBEH         PUBLIC        StrTabReset
  C:1B97H         PUBLIC        StrTabGsmCsqLow
  C:1CB4H         PUBLIC        StrTabTalk
  C:1AADH         PUBLIC        StrTabCallTime
  C:191EH         PUBLIC        StrTabDel
  C:1A5FH         PUBLIC        StrTabTalkValum
  C:1AC0H         PUBLIC        StrTabTone
  C:97D2H         PUBLIC        ShowRoomErr
  C:1AF8H         PUBLIC        StrTabUnlockKey
  C:195BH         PUBLIC        StrTabPswSet1
  C:1B29H         PUBLIC        StrTabOff
  C:1972H         PUBLIC        StrTabPswSet2
  C:1986H         PUBLIC        StrTabPswSet3
  C:18D0H         PUBLIC        StrTabRoom
  C:1B50H         PUBLIC        StrTabSimCardReady
  C:1A81H         PUBLIC        StrTabTalkTime
  C:1878H         PUBLIC        StrTabSysSet1
  C:7E88H         PUBLIC        ShowGsmCsq
  C:18EDH         PUBLIC        StrTabMakeSure
  C:97C2H         PUBLIC        ShowGsmErr
  C:1A94H         PUBLIC        StrTabRingTime
  C:18E8H         PUBLIC        StrTabTel
  D:00D0H         PUBLIC        PSW
  C:1A31H         PUBLIC        StrTabCardErr
  -------         PROC          SHOWCONFIRMSAVE
  C:9782H         LINE#         166
  C:9782H         LINE#         167
  C:9782H         LINE#         168
  C:9785H         LINE#         169
  -------         ENDPROC       SHOWCONFIRMSAVE
  -------         PROC          SHOWCONFIRMDEL
  C:9792H         LINE#         171
  C:9792H         LINE#         172
  C:9792H         LINE#         173
  C:9795H         LINE#         174
  -------         ENDPROC       SHOWCONFIRMDEL
  -------         PROC          SHOWSAVEOK
  C:969FH         LINE#         176
  C:969FH         LINE#         177
  C:969FH         LINE#         178
  C:96A2H         LINE#         179
  C:96AFH         LINE#         180
  -------         ENDPROC       SHOWSAVEOK
  -------         PROC          SHOWERR
  C:97A2H         LINE#         182
  C:97A2H         LINE#         183
  C:97A2H         LINE#         184
  C:97A5H         LINE#         185
  -------         ENDPROC       SHOWERR
  -------         PROC          SHOWDELETEOK
  C:97B2H         LINE#         187
  C:97B2H         LINE#         188
  C:97B2H         LINE#         189
BL51 BANKED LINKER/LOCATER V6.22.2.0                                                  06/01/2022  09:37:04  PAGE 105


  C:97B5H         LINE#         190
  -------         ENDPROC       SHOWDELETEOK
  -------         PROC          SHOWCARDERR
  C:96B4H         LINE#         193
  C:96B4H         LINE#         194
  C:96B4H         LINE#         195
  C:96B7H         LINE#         196
  C:96C4H         LINE#         197
  -------         ENDPROC       SHOWCARDERR
  -------         PROC          SHOWUNLOCK
  B:0020H.1       SYMBOL        Sound
  C:9546H         LINE#         199
  C:9546H         LINE#         200
  C:9546H         LINE#         201
  C:9549H         LINE#         202
  C:9556H         LINE#         203
  C:9559H         LINE#         204
  C:9559H         LINE#         205
  C:955EH         LINE#         206
  C:955EH         LINE#         207
  -------         ENDPROC       SHOWUNLOCK
  -------         PROC          SHOWGSMERR
  C:97C2H         LINE#         209
  C:97C2H         LINE#         210
  C:97C2H         LINE#         211
  C:97C5H         LINE#         212
  -------         ENDPROC       SHOWGSMERR
  -------         PROC          SHOWROOMERR
  C:97D2H         LINE#         215
  C:97D2H         LINE#         216
  C:97D2H         LINE#         217
  C:97D5H         LINE#         218
  -------         ENDPROC       SHOWROOMERR
  -------         PROC          SHOWGSMCSQ
  C:7E88H         LINE#         221
  C:7E88H         LINE#         222
  C:7E88H         LINE#         223
  C:7E90H         LINE#         224
  C:7E90H         LINE#         226
  C:7E90H         LINE#         227
  C:7E9CH         LINE#         228
  C:7EA3H         LINE#         229
  C:7EA3H         LINE#         230
  C:7EABH         LINE#         232
  C:7EABH         LINE#         233
  C:7EB2H         LINE#         234
  C:7EB2H         LINE#         235
  C:7EBAH         LINE#         237
  C:7EBAH         LINE#         238
  C:7EC1H         LINE#         239
  C:7EC1H         LINE#         240
  C:7EC9H         LINE#         242
  C:7EC9H         LINE#         243
  C:7ED7H         LINE#         244
  C:7ED7H         LINE#         245
  C:7EDFH         LINE#         249
  C:7EDFH         LINE#         252
BL51 BANKED LINKER/LOCATER V6.22.2.0                                                  06/01/2022  09:37:04  PAGE 106


  C:7EE8H         LINE#         253
  C:7EE8H         LINE#         254
  C:7EEEH         LINE#         255
  C:7EF0H         LINE#         256
  C:7EFBH         LINE#         257
  C:7EFBH         LINE#         258
  C:7EFFH         LINE#         259
  C:7F01H         LINE#         261
  C:7F01H         LINE#         262
  C:7F0CH         LINE#         263
  C:7F0CH         LINE#         275
  -------         ENDPROC       SHOWGSMCSQ
  -------         PROC          _SHOWMAIN
  X:1088H         SYMBOL        first
  C:7734H         LINE#         277
  C:7739H         LINE#         278
  C:7739H         LINE#         280
  C:7743H         LINE#         281
  C:7743H         LINE#         283
  C:7743H         LINE#         291
  C:7746H         LINE#         292
  C:774EH         LINE#         293
  C:774EH         LINE#         294
  C:7757H         LINE#         295
  C:7764H         LINE#         296
  C:7771H         LINE#         297
  C:777AH         LINE#         298
  C:7787H         LINE#         299
  C:7790H         LINE#         300
  C:7790H         LINE#         302
  C:7790H         LINE#         304
  C:779AH         LINE#         305
  C:77A2H         LINE#         306
  C:77ABH         LINE#         308
  C:77B8H         LINE#         309
  C:77C1H         LINE#         311
  C:77CEH         LINE#         316
  C:77D1H         LINE#         317
  C:77D1H         LINE#         342
  -------         ENDPROC       _SHOWMAIN
  -------         PROC          SHOWTALKTIME
  C:89F4H         LINE#         344
  C:89F4H         LINE#         345
  C:89F4H         LINE#         346
  C:89F7H         LINE#         348
  C:8A04H         LINE#         349
  C:8A2AH         LINE#         350
  -------         ENDPROC       SHOWTALKTIME
  -------         PROC          SHOWRESET
  C:97E2H         LINE#         356
  C:97E2H         LINE#         357
  C:97E2H         LINE#         358
  C:97E5H         LINE#         359
  -------         ENDPROC       SHOWRESET
  -------         ENDMOD        SYSSTRING

  -------         MODULE        CARD
BL51 BANKED LINKER/LOCATER V6.22.2.0                                                  06/01/2022  09:37:04  PAGE 107


  C:0000H         SYMBOL        _ICE_DUMMY_
  C:53FCH         PUBLIC        _CardDeleteKey
  D:0080H         PUBLIC        P0
  D:0090H         PUBLIC        P1
  D:00A0H         PUBLIC        P2
  D:00B0H         PUBLIC        P3
  D:00C0H         PUBLIC        P4
  D:00C8H         PUBLIC        P5
  D:00E8H         PUBLIC        P6
  D:00F8H         PUBLIC        P7
  D:00A8H         PUBLIC        IE
  C:9689H         PUBLIC        DeleteAllCardCon
  C:972AH         PUBLIC        InitCard
  X:1390H         PUBLIC        CardEditItem
  C:72BBH         PUBLIC        _AddCardItem
  D:00B8H         PUBLIC        IP
  X:1396H         SYMBOL        CardEditMidx
  C:92EEH         PUBLIC        SaveCardCount
  C:457AH         PUBLIC        _ShowCard
  D:00D8H         PUBLIC        CCON
  C:91CFH         PUBLIC        EditCardCon
  X:1397H         SYMBOL        CardEditIdx
  C:55B4H         PUBLIC        _CardEditKey
  D:0098H         PUBLIC        SCON
  D:0088H         PUBLIC        TCON
  C:8AF2H         PUBLIC        _CardEditCardIn
  D:00F0H         PUBLIC        B
  D:00E0H         PUBLIC        ACC
  C:8F8FH         PUBLIC        _DelCardByCard
  C:7D78H         PUBLIC        CardSetCon
  C:93B9H         PUBLIC        _CardSetKey
  C:95D7H         PUBLIC        _CardDelAllKey
  C:7694H         PUBLIC        _CheckCard
  C:8D40H         PUBLIC        _ReadCardByIdx
  C:980AH         PUBLIC        ClearCard
  C:8D0FH         PUBLIC        _WriteCardByIdx
  C:91AAH         PUBLIC        _DelCardByRoom
  C:8C45H         PUBLIC        DeleteCardCon
  C:83C3H         PUBLIC        _DelCardByIdx
  D:00D0H         PUBLIC        PSW
  -------         PROC          SAVECARDCOUNT
  C:92EEH         LINE#         11
  C:92EEH         LINE#         12
  C:92EEH         LINE#         13
  -------         ENDPROC       SAVECARDCOUNT
  -------         PROC          CLEARCARD
  C:980AH         LINE#         16
  C:980AH         LINE#         17
  C:980AH         LINE#         18
  C:9811H         LINE#         19
  -------         ENDPROC       CLEARCARD
  -------         PROC          INITCARD
  C:972AH         LINE#         22
  C:972AH         LINE#         23
  C:972AH         LINE#         24
  C:9739H         LINE#         25
  C:9739H         LINE#         26
BL51 BANKED LINKER/LOCATER V6.22.2.0                                                  06/01/2022  09:37:04  PAGE 108


  C:973CH         LINE#         27
  C:973CH         LINE#         28
  -------         ENDPROC       INITCARD
  -------         PROC          _WRITECARDBYIDX
  D:0006H         SYMBOL        idx
  X:108BH         SYMBOL        pItem
  -------         DO            
  D:0006H         SYMBOL        addr
  -------         ENDDO         
  C:8D0FH         LINE#         30
  C:8D1AH         LINE#         31
  C:8D1AH         LINE#         32
  C:8D1AH         LINE#         33
  C:8D21H         LINE#         34
  -------         ENDPROC       _WRITECARDBYIDX
  -------         PROC          _READCARDBYIDX
  D:0006H         SYMBOL        idx
  X:108EH         SYMBOL        pItem
  -------         DO            
  D:0006H         SYMBOL        addr
  -------         ENDDO         
  C:8D40H         LINE#         37
  C:8D4BH         LINE#         38
  C:8D4BH         LINE#         39
  C:8D4BH         LINE#         40
  C:8D52H         LINE#         41
  -------         ENDPROC       _READCARDBYIDX
  -------         PROC          _CHECKCARD
  X:1083H         SYMBOL        card
  -------         DO            
  X:1086H         SYMBOL        tmpItem
  X:108CH         SYMBOL        idx
  D:0007H         SYMBOL        i
  -------         ENDDO         
  C:7694H         LINE#         56
  C:769FH         LINE#         57
  C:769FH         LINE#         59
  C:76A6H         LINE#         61
  C:76B0H         LINE#         62
  C:76B0H         LINE#         63
  C:76B2H         LINE#         64
  C:76B2H         LINE#         65
  C:76C8H         LINE#         66
  C:76C8H         LINE#         67
  C:76D1H         LINE#         68
  C:76D3H         LINE#         69
  C:76D3H         LINE#         70
  C:76F5H         LINE#         71
  C:76F5H         LINE#         72
  C:76F5H         LINE#         73
  C:76F5H         LINE#         74
  C:76FAH         LINE#         75
  C:76FEH         LINE#         76
  C:76FEH         LINE#         77
  C:7716H         LINE#         78
  C:771FH         LINE#         79
  C:771FH         LINE#         80
BL51 BANKED LINKER/LOCATER V6.22.2.0                                                  06/01/2022  09:37:04  PAGE 109


  C:772DH         LINE#         81
  C:772FH         LINE#         82
  C:7733H         LINE#         83
  -------         ENDPROC       _CHECKCARD
  -------         PROC          _ADDCARDITEM
  X:1080H         SYMBOL        pItem
  -------         DO            
  X:1083H         SYMBOL        tmpItem
  X:1089H         SYMBOL        idx
  D:0007H         SYMBOL        i
  -------         ENDDO         
  C:72BBH         LINE#         85
  C:72C6H         LINE#         86
  C:72C6H         LINE#         88
  C:72CDH         LINE#         90
  C:72E3H         LINE#         91
  C:72E3H         LINE#         92
  C:72ECH         LINE#         94
  C:7308H         LINE#         95
  C:7308H         LINE#         96
  C:7309H         LINE#         97
  C:7309H         LINE#         98
  C:7333H         LINE#         99
  C:7333H         LINE#         100
  C:7333H         LINE#         101
  C:7333H         LINE#         102
  C:7338H         LINE#         103
  C:733CH         LINE#         104
  C:733CH         LINE#         105
  C:7345H         LINE#         106
  C:7345H         LINE#         107
  C:7345H         LINE#         108
  C:7353H         LINE#         109
  C:7356H         LINE#         110
  C:7366H         LINE#         111
  C:7366H         LINE#         112
  C:7374H         LINE#         113
  C:7382H         LINE#         114
  C:7385H         LINE#         115
  C:7394H         LINE#         116
  C:7394H         LINE#         117
  C:7398H         LINE#         118
  -------         ENDPROC       _ADDCARDITEM
  -------         PROC          _DELCARDBYIDX
  X:1083H         SYMBOL        idx
  -------         DO            
  X:1085H         SYMBOL        tmpItem
  -------         ENDDO         
  C:83C3H         LINE#         120
  C:83CBH         LINE#         121
  C:83CBH         LINE#         123
  C:83D9H         LINE#         124
  C:83D9H         LINE#         125
  C:83EDH         LINE#         126
  C:83EDH         LINE#         127
  C:83FBH         LINE#         128
  C:83FEH         LINE#         129
BL51 BANKED LINKER/LOCATER V6.22.2.0                                                  06/01/2022  09:37:04  PAGE 110


  C:83FEH         LINE#         131
  C:83FEH         LINE#         132
  C:840CH         LINE#         133
  C:840FH         LINE#         134
  C:8420H         LINE#         135
  C:8431H         LINE#         136
  C:8431H         LINE#         137
  C:8431H         LINE#         138
  -------         ENDPROC       _DELCARDBYIDX
  -------         PROC          _DELCARDBYROOM
  X:1080H         SYMBOL        room
  -------         DO            
  D:0006H         SYMBOL        idx
  -------         ENDDO         
  C:91AAH         LINE#         140
  C:91B2H         LINE#         141
  C:91B2H         LINE#         142
  C:91B4H         LINE#         143
  C:91BCH         LINE#         144
  C:91BCH         LINE#         145
  C:91BFH         LINE#         146
  C:91CCH         LINE#         147
  C:91CEH         LINE#         148
  -------         ENDPROC       _DELCARDBYROOM
  -------         PROC          _DELCARDBYCARD
  X:1080H         SYMBOL        card
  -------         DO            
  D:0006H         SYMBOL        idx
  -------         ENDDO         
  C:8F8FH         LINE#         150
  C:8F9AH         LINE#         151
  C:8F9AH         LINE#         152
  C:8F9CH         LINE#         153
  C:8FA4H         LINE#         154
  C:8FA4H         LINE#         155
  C:8FA7H         LINE#         156
  C:8FB5H         LINE#         157
  C:8FB7H         LINE#         158
  -------         ENDPROC       _DELCARDBYCARD
  -------         PROC          _SHOWCARD
  X:1082H         SYMBOL        pItem
  B:0020H.0       SYMBOL        edit
  -------         DO            
  X:1085H         SYMBOL        num
  X:1089H         SYMBOL        Disbuf
  -------         ENDDO         
  C:457AH         LINE#         165
  C:4585H         LINE#         166
  C:4585H         LINE#         170
  C:4588H         LINE#         196
  C:45A9H         LINE#         197
  C:45A9H         LINE#         199
  C:45ACH         LINE#         200
  C:45DBH         LINE#         201
  C:4601H         LINE#         202
  C:4603H         LINE#         204
  C:4603H         LINE#         206
BL51 BANKED LINKER/LOCATER V6.22.2.0                                                  06/01/2022  09:37:04  PAGE 111


  C:4606H         LINE#         207
  C:4606H         LINE#         209
  C:460CH         LINE#         210
  C:460CH         LINE#         212
  C:461FH         LINE#         216
  C:461FH         LINE#         217
  C:4625H         LINE#         218
  C:4625H         LINE#         220
  C:4632H         LINE#         221
  C:464EH         LINE#         222
  C:464EH         LINE#         227
  C:466AH         LINE#         228
  C:4683H         LINE#         229
  C:46C2H         LINE#         230
  C:46DBH         LINE#         231
  C:471AH         LINE#         232
  C:4733H         LINE#         233
  C:4772H         LINE#         234
  C:47A2H         LINE#         235
  C:47CBH         LINE#         236
  C:47CBH         LINE#         238
  C:47CBH         LINE#         239
  -------         ENDPROC       _SHOWCARD
  -------         PROC          EDITCARDCON
  C:91CFH         LINE#         241
  C:91CFH         LINE#         242
  C:91CFH         LINE#         243
  C:91DCH         LINE#         244
  C:91E1H         LINE#         245
  C:91E3H         LINE#         246
  C:91E9H         LINE#         247
  -------         ENDPROC       EDITCARDCON
  -------         PROC          _CARDEDITKEY
  X:107DH         SYMBOL        key
  -------         DO            
  X:107EH         SYMBOL        tmp
  B:0023H.0       SYMBOL        Saved
  -------         ENDDO         
  C:55B4H         LINE#         250
  C:55B9H         LINE#         251
  C:55B9H         LINE#         254
  C:55C0H         LINE#         255
  C:55C0H         LINE#         256
  C:55C8H         LINE#         257
  C:55C8H         LINE#         258
  C:55CBH         LINE#         259
  C:55CBH         LINE#         260
  C:55D7H         LINE#         261
  C:55DCH         LINE#         262
  C:55DEH         LINE#         264
  C:55DEH         LINE#         265
  C:55FCH         LINE#         267
  C:55FCH         LINE#         268
  C:560DH         LINE#         269
  C:560DH         LINE#         270
  C:5610H         LINE#         271
  C:5612H         LINE#         273
BL51 BANKED LINKER/LOCATER V6.22.2.0                                                  06/01/2022  09:37:04  PAGE 112


  C:5612H         LINE#         274
  C:5615H         LINE#         275
  C:5615H         LINE#         276
  C:5622H         LINE#         277
  C:5624H         LINE#         278
  C:5625H         LINE#         280
  C:5625H         LINE#         281
  C:5628H         LINE#         282
  C:5628H         LINE#         284
  C:5628H         LINE#         285
  C:5628H         LINE#         286
  C:562EH         LINE#         287
  C:5633H         LINE#         288
  C:5636H         LINE#         289
  C:5640H         LINE#         290
  C:5640H         LINE#         291
  C:5640H         LINE#         292
  C:5645H         LINE#         293
  C:5652H         LINE#         294
  C:5665H         LINE#         295
  C:5665H         LINE#         296
  C:566BH         LINE#         297
  C:567AH         LINE#         298
  C:567CH         LINE#         299
  C:567CH         LINE#         300
  C:567CH         LINE#         305
  C:567FH         LINE#         306
  C:5682H         LINE#         308
  C:5682H         LINE#         309
  C:5682H         LINE#         310
  C:568AH         LINE#         311
  C:568AH         LINE#         312
  C:5694H         LINE#         313
  C:5694H         LINE#         314
  C:5694H         LINE#         315
  C:569DH         LINE#         316
  C:569DH         LINE#         317
  C:56A0H         LINE#         318
  C:56B7H         LINE#         319
  C:56B9H         LINE#         324
  C:56B9H         LINE#         325
  C:56B9H         LINE#         344
  C:56B9H         LINE#         345
  C:56BEH         LINE#         346
  C:56C0H         LINE#         347
  C:56CDH         LINE#         348
  C:56DDH         LINE#         349
  C:56DDH         LINE#         350
  C:56E3H         LINE#         351
  C:56F2H         LINE#         352
  C:56F4H         LINE#         353
  C:56F4H         LINE#         354
  C:56F4H         LINE#         355
  C:56F4H         LINE#         356
  C:56FBH         LINE#         357
  C:56FBH         LINE#         358
  C:56FEH         LINE#         360
BL51 BANKED LINKER/LOCATER V6.22.2.0                                                  06/01/2022  09:37:04  PAGE 113


  C:56FEH         LINE#         362
  C:570EH         LINE#         363
  C:570EH         LINE#         364
  C:5714H         LINE#         365
  C:5714H         LINE#         366
  C:5714H         LINE#         367
  C:571DH         LINE#         368
  C:571DH         LINE#         369
  C:5734H         LINE#         370
  C:5746H         LINE#         371
  C:574CH         LINE#         372
  C:5756H         LINE#         373
  C:5756H         LINE#         374
  C:575AH         LINE#         375
  C:575AH         LINE#         376
  C:575AH         LINE#         377
  C:575AH         LINE#         384
  C:575AH         LINE#         385
  C:575AH         LINE#         386
  C:5765H         LINE#         387
  -------         ENDPROC       _CARDEDITKEY
  -------         PROC          _CARDEDITCARDIN
  X:107FH         SYMBOL        card
  C:8AF2H         LINE#         389
  C:8AFDH         LINE#         390
  C:8AFDH         LINE#         399
  C:8B22H         LINE#         400
  -------         ENDPROC       _CARDEDITCARDIN
  -------         PROC          DELETECARDCON
  C:8C45H         LINE#         403
  C:8C45H         LINE#         404
  C:8C45H         LINE#         405
  C:8C52H         LINE#         406
  C:8C57H         LINE#         407
  C:8C59H         LINE#         408
  C:8C5FH         LINE#         409
  -------         ENDPROC       DELETECARDCON
  -------         PROC          _CARDDELETEKEY
  X:107DH         SYMBOL        key
  -------         DO            
  X:107EH         SYMBOL        tmp
  B:0023H.1       SYMBOL        Saved
  -------         ENDDO         
  C:53FCH         LINE#         412
  C:5401H         LINE#         413
  C:5401H         LINE#         416
  C:5408H         LINE#         417
  C:5408H         LINE#         418
  C:5410H         LINE#         419
  C:5410H         LINE#         420
  C:5413H         LINE#         421
  C:5413H         LINE#         422
  C:541FH         LINE#         423
  C:5424H         LINE#         424
  C:5426H         LINE#         426
  C:5426H         LINE#         427
  C:5435H         LINE#         428
BL51 BANKED LINKER/LOCATER V6.22.2.0                                                  06/01/2022  09:37:04  PAGE 114


  C:5435H         LINE#         429
  C:543EH         LINE#         430
  C:543EH         LINE#         431
  C:543EH         LINE#         432
  C:543EH         LINE#         433
  C:5440H         LINE#         434
  C:5453H         LINE#         435
  C:5453H         LINE#         436
  C:5456H         LINE#         437
  C:5463H         LINE#         438
  C:5465H         LINE#         439
  C:5468H         LINE#         440
  C:5468H         LINE#         442
  C:5468H         LINE#         443
  C:5468H         LINE#         444
  C:546EH         LINE#         445
  C:5473H         LINE#         446
  C:5476H         LINE#         447
  C:5480H         LINE#         448
  C:5480H         LINE#         449
  C:5480H         LINE#         450
  C:5485H         LINE#         451
  C:5492H         LINE#         452
  C:54A5H         LINE#         453
  C:54A5H         LINE#         454
  C:54ABH         LINE#         455
  C:54BAH         LINE#         456
  C:54BCH         LINE#         457
  C:54BCH         LINE#         458
  C:54BCH         LINE#         459
  C:54BFH         LINE#         460
  C:54C2H         LINE#         462
  C:54C2H         LINE#         463
  C:54C2H         LINE#         464
  C:54CAH         LINE#         465
  C:54CAH         LINE#         466
  C:54D4H         LINE#         467
  C:54D4H         LINE#         468
  C:54D4H         LINE#         469
  C:54DDH         LINE#         470
  C:54DDH         LINE#         471
  C:54E0H         LINE#         472
  C:54F7H         LINE#         473
  C:54F9H         LINE#         478
  C:54F9H         LINE#         479
  C:54F9H         LINE#         480
  C:54F9H         LINE#         481
  C:54FEH         LINE#         482
  C:5500H         LINE#         483
  C:550DH         LINE#         484
  C:551DH         LINE#         485
  C:551DH         LINE#         486
  C:5523H         LINE#         487
  C:5532H         LINE#         488
  C:5534H         LINE#         489
  C:5534H         LINE#         490
  C:5534H         LINE#         491
BL51 BANKED LINKER/LOCATER V6.22.2.0                                                  06/01/2022  09:37:04  PAGE 115


  C:5534H         LINE#         492
  C:553BH         LINE#         493
  C:553BH         LINE#         494
  C:553EH         LINE#         496
  C:553EH         LINE#         498
  C:554EH         LINE#         499
  C:554EH         LINE#         500
  C:5554H         LINE#         501
  C:5554H         LINE#         502
  C:5554H         LINE#         503
  C:555DH         LINE#         504
  C:555DH         LINE#         505
  C:5574H         LINE#         506
  C:5586H         LINE#         507
  C:558CH         LINE#         508
  C:558CH         LINE#         509
  C:5596H         LINE#         510
  C:5596H         LINE#         511
  C:559AH         LINE#         512
  C:559AH         LINE#         513
  C:559AH         LINE#         514
  C:559AH         LINE#         515
  C:559AH         LINE#         516
  C:55B3H         LINE#         517
  -------         ENDPROC       _CARDDELETEKEY
  -------         PROC          DELETEALLCARDCON
  C:9689H         LINE#         519
  C:9689H         LINE#         520
  C:9689H         LINE#         521
  C:968FH         LINE#         522
  C:9692H         LINE#         523
  -------         ENDPROC       DELETEALLCARDCON
  -------         PROC          _CARDDELALLKEY
  D:0007H         SYMBOL        key
  C:95D7H         LINE#         525
  C:95D7H         LINE#         526
  C:95D7H         LINE#         527
  C:95E4H         LINE#         528
  C:95E4H         LINE#         529
  C:95E4H         LINE#         530
  C:95E7H         LINE#         531
  C:95EAH         LINE#         532
  C:95EAH         LINE#         533
  C:95EAH         LINE#         534
  C:95EAH         LINE#         535
  C:95EDH         LINE#         536
  C:95EDH         LINE#         537
  C:95EDH         LINE#         538
  -------         ENDPROC       _CARDDELALLKEY
  -------         PROC          CARDSETCON
  -------         DO            
  X:1080H         SYMBOL        Disbuf
  -------         ENDDO         
  C:7D78H         LINE#         540
  C:7D78H         LINE#         541
  C:7D78H         LINE#         544
  C:7D7EH         LINE#         546
BL51 BANKED LINKER/LOCATER V6.22.2.0                                                  06/01/2022  09:37:04  PAGE 116


  C:7D81H         LINE#         547
  C:7D8DH         LINE#         548
  C:7D9AH         LINE#         549
  C:7DA7H         LINE#         550
  C:7DB4H         LINE#         551
  C:7DDAH         LINE#         552
  -------         ENDPROC       CARDSETCON
  -------         PROC          _CARDSETKEY
  D:0007H         SYMBOL        key
  C:93B9H         LINE#         555
  C:93B9H         LINE#         556
  C:93B9H         LINE#         557
  C:93CDH         LINE#         558
  C:93CDH         LINE#         559
  C:93CDH         LINE#         560
  C:93D0H         LINE#         561
  C:93D0H         LINE#         562
  C:93D0H         LINE#         563
  C:93D3H         LINE#         564
  C:93D3H         LINE#         565
  C:93D3H         LINE#         566
  C:93D6H         LINE#         567
  C:93D6H         LINE#         568
  C:93D6H         LINE#         569
  C:93D6H         LINE#         570
  C:93D9H         LINE#         571
  C:93D9H         LINE#         572
  C:93D9H         LINE#         573
  -------         ENDPROC       _CARDSETKEY
  -------         ENDMOD        CARD

  -------         MODULE        CARDREAD
  C:0000H         SYMBOL        _ICE_DUMMY_
  D:0080H         PUBLIC        P0
  D:0090H         PUBLIC        P1
  D:00A0H         PUBLIC        P2
  D:00B0H         PUBLIC        P3
  D:00C0H         PUBLIC        P4
  D:00C8H         PUBLIC        P5
  B:0022H.0       PUBLIC        errflg
  D:00E8H         PUBLIC        P6
  D:00F8H         PUBLIC        P7
  D:00A8H         PUBLIC        IE
  C:94E1H         PUBLIC        CardReadInit
  B:0022H.1       PUBLIC        CardReadOK
  D:00B8H         PUBLIC        IP
  X:1313H         PUBLIC        CodeOld
  X:1317H         PUBLIC        RfidCardBuf
  D:00D8H         PUBLIC        CCON
  X:132BH         PUBLIC        CodeCheckTs
  X:132CH         PUBLIC        CardRaw
  X:1354H         PUBLIC        CardCh
  X:1356H         PUBLIC        CardBitCount
  C:6BE9H         PUBLIC        CardIrq
  D:0098H         PUBLIC        SCON
  X:1357H         PUBLIC        CodeIn
  X:135BH         PUBLIC        CardChCount
BL51 BANKED LINKER/LOCATER V6.22.2.0                                                  06/01/2022  09:37:04  PAGE 117


  B:00B0H.2       PUBLIC        P32
  D:0088H         PUBLIC        TCON
  X:135CH         PUBLIC        CardGetBit
  D:00F0H         PUBLIC        B
  X:135DH         PUBLIC        CardRt
  X:135EH         PUBLIC        CardInTime
  D:00E0H         PUBLIC        ACC
  C:8CDDH         PUBLIC        CardMsTask
  B:0022H.2       PUBLIC        CardGetOk
  C:1362H         PUBLIC        CheckRfidCard
  X:1360H         PUBLIC        CardCode
  D:00D0H         PUBLIC        PSW
  -------         PROC          CARDREADINIT
  C:94E1H         LINE#         21
  C:94E1H         LINE#         22
  C:94E1H         LINE#         23
  C:94E6H         LINE#         24
  C:94EAH         LINE#         25
  C:94F0H         LINE#         26
  C:94F2H         LINE#         27
  C:94F6H         LINE#         28
  C:94F8H         LINE#         29
  C:94FAH         LINE#         30
  -------         ENDPROC       CARDREADINIT
  -------         PROC          CARDMSTASK
  C:8CDDH         LINE#         32
  C:8CDDH         LINE#         33
  C:8CDDH         LINE#         34
  C:8CE7H         LINE#         35
  C:8CE7H         LINE#         36
  C:8CF5H         LINE#         37
  C:8CF5H         LINE#         38
  C:8CFFH         LINE#         39
  C:8D04H         LINE#         40
  C:8D0EH         LINE#         41
  C:8D0EH         LINE#         42
  C:8D0EH         LINE#         43
  -------         ENDPROC       CARDMSTASK
  -------         PROC          CHECKRFIDCARD
  -------         DO            
  X:107CH         SYMBOL        i
  X:107DH         SYMBOL        n
  X:107EH         SYMBOL        k
  X:107FH         SYMBOL        j
  X:1080H         SYMBOL        num
  D:0007H         SYMBOL        tmp
  D:0006H         SYMBOL        chk
  -------         ENDDO         
  C:1362H         LINE#         348
  C:1362H         LINE#         349
  C:1362H         LINE#         351
  C:1367H         LINE#         356
  C:1371H         LINE#         362
  C:1376H         LINE#         363
  C:138BH         LINE#         364
  C:138BH         LINE#         365
  C:138EH         LINE#         366
BL51 BANKED LINKER/LOCATER V6.22.2.0                                                  06/01/2022  09:37:04  PAGE 118


  C:139BH         LINE#         367
  C:139DH         LINE#         368
  C:13A9H         LINE#         369
  C:13A9H         LINE#         371
  C:13A9H         LINE#         372
  C:13ACH         LINE#         373
  C:13BEH         LINE#         374
  C:13BEH         LINE#         375
  C:140BH         LINE#         376
  C:143FH         LINE#         377
  C:1448H         LINE#         379
  C:145AH         LINE#         380
  C:145AH         LINE#         381
  C:145CH         LINE#         383
  C:1470H         LINE#         384
  C:1470H         LINE#         385
  C:1476H         LINE#         386
  C:1476H         LINE#         387
  C:149AH         LINE#         388
  C:14D4H         LINE#         389
  C:14DDH         LINE#         390
  C:14E8H         LINE#         391
  C:14EEH         LINE#         392
  C:14EEH         LINE#         394
  C:1500H         LINE#         395
  C:1512H         LINE#         396
  C:1525H         LINE#         397
  C:152EH         LINE#         399
  C:153FH         LINE#         400
  C:1551H         LINE#         401
  C:156AH         LINE#         402
  C:1575H         LINE#         404
  C:1584H         LINE#         405
  C:1589H         LINE#         406
  C:15A0H         LINE#         407
  C:15ACH         LINE#         408
  C:15BAH         LINE#         411
  C:15CCH         LINE#         412
  C:15CCH         LINE#         413
  C:15DCH         LINE#         414
  C:15E2H         LINE#         415
  C:15E2H         LINE#         416
  C:15E6H         LINE#         417
  C:15E6H         LINE#         418
  C:15E7H         LINE#         419
  C:15E7H         LINE#         420
  C:15EBH         LINE#         421
  C:15F5H         LINE#         423
  C:15F9H         LINE#         426
  C:1600H         LINE#         427
  C:1600H         LINE#         428
  C:161FH         LINE#         429
  C:1621H         LINE#         431
  C:1621H         LINE#         432
  C:164EH         LINE#         433
  C:164EH         LINE#         435
  C:1668H         LINE#         436
BL51 BANKED LINKER/LOCATER V6.22.2.0                                                  06/01/2022  09:37:04  PAGE 119


  C:1668H         LINE#         437
  C:166AH         LINE#         438
  C:166CH         LINE#         439
  C:166CH         LINE#         440
  C:1675H         LINE#         441
  C:167BH         LINE#         442
  C:167BH         LINE#         443
  C:168AH         LINE#         444
  C:16A3H         LINE#         445
  C:16C5H         LINE#         446
  C:16DEH         LINE#         447
  C:1700H         LINE#         448
  C:1719H         LINE#         449
  C:173BH         LINE#         451
  C:1793H         LINE#         452
  C:1793H         LINE#         453
  C:17A0H         LINE#         454
  C:17A0H         LINE#         455
  C:17A2H         LINE#         456
  C:17A4H         LINE#         457
  C:17B8H         LINE#         458
  C:17DAH         LINE#         459
  C:17E3H         LINE#         460
  C:17F6H         LINE#         461
  C:17F6H         LINE#         462
  C:180EH         LINE#         463
  C:1816H         LINE#         464
  C:181FH         LINE#         466
  C:181FH         LINE#         467
  C:181FH         LINE#         469
  C:181FH         LINE#         470
  C:1833H         LINE#         471
  C:1838H         LINE#         472
  C:1839H         LINE#         474
  C:1839H         LINE#         475
  C:1842H         LINE#         476
  -------         ENDPROC       CHECKRFIDCARD
  -------         PROC          CARDIRQ
  C:6BE9H         LINE#         478
  C:6BE9H         LINE#         479
  C:6BE9H         LINE#         481
  C:6BEFH         LINE#         482
  C:6BEFH         LINE#         484
  C:6BEFH         LINE#         486
  C:6C01H         LINE#         487
  C:6C01H         LINE#         488
  C:6C07H         LINE#         489
  C:6C16H         LINE#         491
  C:6C16H         LINE#         492
  C:6C16H         LINE#         493
  C:6C19H         LINE#         495
  C:6C19H         LINE#         497
  C:6C29H         LINE#         498
  C:6C29H         LINE#         499
  C:6C36H         LINE#         500
  C:6C39H         LINE#         501
  C:6C39H         LINE#         502
BL51 BANKED LINKER/LOCATER V6.22.2.0                                                  06/01/2022  09:37:04  PAGE 120


  C:6C3EH         LINE#         503
  C:6C3EH         LINE#         504
  C:6C4BH         LINE#         505
  C:6C4BH         LINE#         506
  C:6C4CH         LINE#         507
  C:6C6CH         LINE#         508
  C:6C78H         LINE#         509
  C:6C78H         LINE#         510
  C:6C7AH         LINE#         511
  C:6C7AH         LINE#         512
  C:6C7AH         LINE#         513
  C:6C7AH         LINE#         514
  C:6C7BH         LINE#         515
  C:6C8AH         LINE#         516
  C:6C8AH         LINE#         517
  C:6C92H         LINE#         518
  C:6C92H         LINE#         519
  C:6C93H         LINE#         520
  C:6C95H         LINE#         522
  C:6C95H         LINE#         524
  C:6C9CH         LINE#         525
  C:6CA0H         LINE#         526
  C:6CA0H         LINE#         527
  C:6CADH         LINE#         528
  C:6CB0H         LINE#         529
  C:6CB0H         LINE#         530
  C:6CB5H         LINE#         531
  C:6CB5H         LINE#         532
  C:6CBEH         LINE#         533
  C:6CBEH         LINE#         534
  C:6CC0H         LINE#         535
  C:6CE0H         LINE#         536
  C:6CE9H         LINE#         537
  C:6CE9H         LINE#         538
  C:6CEBH         LINE#         539
  C:6CEBH         LINE#         540
  C:6CEBH         LINE#         541
  C:6CEBH         LINE#         542
  C:6CECH         LINE#         544
  C:6CECH         LINE#         545
  C:6CF1H         LINE#         546
  C:6CF5H         LINE#         547
  C:6CF5H         LINE#         548
  -------         ENDPROC       CARDIRQ
  -------         ENDMOD        CARDREAD

  -------         MODULE        AUDIO
  C:0000H         SYMBOL        _ICE_DUMMY_
  D:0080H         PUBLIC        P0
  D:0090H         PUBLIC        P1
  D:00A0H         PUBLIC        P2
  D:00B0H         PUBLIC        P3
  D:00C0H         PUBLIC        P4
  X:0000H         PUBLIC        PlyN
  D:00C8H         PUBLIC        P5
  D:00E8H         PUBLIC        P6
  D:00F8H         PUBLIC        P7
BL51 BANKED LINKER/LOCATER V6.22.2.0                                                  06/01/2022  09:37:04  PAGE 121


  C:8749H         PUBLIC        _Beep_StartPlay
  D:00FEH         PUBLIC        PWMCR
  D:00BAH         PUBLIC        P_SW2
  D:00A8H         PUBLIC        IE
  X:0001H         SYMBOL        Midx
  D:00B8H         PUBLIC        IP
  D:00D8H         PUBLIC        CCON
  C:81FEH         PUBLIC        PWMtask
  C:8BD9H         PUBLIC        WavCode
  B:0022H.3       PUBLIC        WavNeedRead
  X:0002H         PUBLIC        WavFileAddr
  B:0080H.0       PUBLIC        P00
  X:0006H         PUBLIC        WavFile
  D:0098H         PUBLIC        SCON
  D:0088H         PUBLIC        TCON
  B:00E8H.2       PUBLIC        P62
  X:008EH         PUBLIC        PwmTimer
  B:00F8H.4       PUBLIC        P74
  C:8A37H         PUBLIC        KeyBeepTask
  D:00F0H         PUBLIC        B
  C:5A98H         PUBLIC        WavReadTask
  C:8FB8H         PUBLIC        SPI_config
  D:00E0H         PUBLIC        ACC
  X:008FH         PUBLIC        WavBuf
  B:0022H.4       PUBLIC        AudioPlaying
  C:9009H         PUBLIC        PWM_config
  X:088FH         PUBLIC        WavFileLen
  X:0893H         PUBLIC        WavReadIdx
  C:8E2EH         PUBLIC        MP3_Stop
  C:799DH         PUBLIC        _MP3_StartPlay
  X:0897H         PUBLIC        BeepPlyIdx
  X:0898H         SYMBOL        PlyIdx
  D:00D1H         PUBLIC        T4T3M
  X:089AH         PUBLIC        WavBufLen
  B:0022H.5       PUBLIC        KeyBeepO
  D:00D0H         PUBLIC        PSW
  -------         PROC          SPI_CONFIG
  -------         DO            
  X:107CH         SYMBOL        SPI_InitStructure
  -------         ENDDO         
  C:8FB8H         LINE#         125
  C:8FB8H         LINE#         126
  C:8FB8H         LINE#         128
  C:8FBEH         LINE#         129
  C:8FC1H         LINE#         130
  C:8FC3H         LINE#         131
  C:8FC6H         LINE#         132
  C:8FC9H         LINE#         133
  C:8FCCH         LINE#         134
  C:8FCEH         LINE#         135
  C:8FD1H         LINE#         136
  C:8FD5H         LINE#         137
  C:8FDEH         LINE#         139
  C:8FE0H         LINE#         140
  -------         ENDPROC       SPI_CONFIG
  -------         PROC          PWM_CONFIG
  C:9009H         LINE#         151
BL51 BANKED LINKER/LOCATER V6.22.2.0                                                  06/01/2022  09:37:04  PAGE 122


  C:9009H         LINE#         152
  C:9009H         LINE#         153
  C:900CH         LINE#         154
  C:9011H         LINE#         155
  C:9019H         LINE#         156
  C:9020H         LINE#         157
  C:9026H         LINE#         158
  C:902AH         LINE#         159
  C:902DH         LINE#         160
  C:9030H         LINE#         161
  -------         ENDPROC       PWM_CONFIG
  -------         PROC          WAVREADTASK
  -------         DO            
  X:112BH         SYMBOL        midx
  -------         ENDDO         
  C:5A98H         LINE#         207
  C:5A98H         LINE#         208
  C:5A98H         LINE#         211
  C:5A9EH         LINE#         212
  C:5A9EH         LINE#         213
  C:5AA0H         LINE#         214
  C:5AADH         LINE#         215
  C:5AE6H         LINE#         216
  C:5AE6H         LINE#         217
  C:5AE9H         LINE#         219
  C:5AE9H         LINE#         220
  C:5B1CH         LINE#         221
  C:5B1CH         LINE#         222
  C:5B31H         LINE#         223
  C:5B51H         LINE#         224
  C:5B53H         LINE#         226
  C:5B53H         LINE#         227
  C:5B82H         LINE#         228
  C:5B8CH         LINE#         229
  C:5BB3H         LINE#         230
  C:5BB3H         LINE#         231
  C:5BB5H         LINE#         232
  C:5BB5H         LINE#         234
  C:5BB5H         LINE#         235
  C:5C1AH         LINE#         241
  C:5C1AH         LINE#         242
  -------         ENDPROC       WAVREADTASK
  -------         PROC          PWMTASK
  C:81FEH         LINE#         244
  C:81FEH         LINE#         245
  C:81FEH         LINE#         247
  C:8220H         LINE#         248
  C:8220H         LINE#         249
  C:8223H         LINE#         255
  C:825DH         LINE#         256
  C:8260H         LINE#         257
  C:8261H         LINE#         259
  C:8261H         LINE#         260
  C:8268H         LINE#         261
  C:8272H         LINE#         262
  C:8274H         LINE#         263
  C:8274H         LINE#         264
BL51 BANKED LINKER/LOCATER V6.22.2.0                                                  06/01/2022  09:37:04  PAGE 123


  -------         ENDPROC       PWMTASK
  -------         PROC          _MP3_STARTPLAY
  X:10D0H         SYMBOL        idx
  C:799DH         LINE#         266
  C:79A2H         LINE#         267
  C:79A2H         LINE#         268
  C:79ABH         LINE#         269
  C:79ABH         LINE#         271
  C:79ABH         LINE#         273
  C:79AEH         LINE#         274
  C:79B0H         LINE#         275
  C:79B7H         LINE#         276
  C:79DAH         LINE#         277
  C:79F9H         LINE#         279
  C:7A00H         LINE#         280
  C:7A0AH         LINE#         281
  C:7A11H         LINE#         282
  C:7A15H         LINE#         284
  C:7A1AH         LINE#         285
  C:7A1CH         LINE#         286
  C:7A1FH         LINE#         288
  C:7A24H         LINE#         289
  C:7A26H         LINE#         290
  C:7A29H         LINE#         292
  C:7A2CH         LINE#         293
  C:7A2FH         LINE#         294
  C:7A31H         LINE#         295
  -------         ENDPROC       _MP3_STARTPLAY
  -------         PROC          MP3_STOP
  C:8E2EH         LINE#         296
  C:8E2EH         LINE#         297
  C:8E2EH         LINE#         298
  C:8E55H         LINE#         299
  C:8E55H         LINE#         300
  C:8E57H         LINE#         301
  C:8E57H         LINE#         302
  C:8E59H         LINE#         304
  C:8E5CH         LINE#         305
  -------         ENDPROC       MP3_STOP
  -------         PROC          _BEEP_STARTPLAY
  D:0007H         SYMBOL        idx
  C:8749H         LINE#         322
  C:8749H         LINE#         323
  C:8749H         LINE#         324
  C:8769H         LINE#         325
  C:8769H         LINE#         326
  C:8769H         LINE#         327
  C:8769H         LINE#         328
  C:8769H         LINE#         329
  C:876FH         LINE#         330
  C:8771H         LINE#         331
  C:8771H         LINE#         332
  C:8776H         LINE#         333
  C:8778H         LINE#         334
  C:8778H         LINE#         335
  C:877EH         LINE#         336
  C:8780H         LINE#         337
BL51 BANKED LINKER/LOCATER V6.22.2.0                                                  06/01/2022  09:37:04  PAGE 124


  C:8780H         LINE#         338
  C:8780H         LINE#         339
  C:8780H         LINE#         340
  C:8780H         LINE#         341
  C:8786H         LINE#         342
  C:8788H         LINE#         343
  C:8788H         LINE#         344
  C:8788H         LINE#         345
  C:878EH         LINE#         346
  C:878EH         LINE#         347
  C:878EH         LINE#         349
  C:8793H         LINE#         350
  C:8799H         LINE#         351
  C:879CH         LINE#         352
  C:879EH         LINE#         353
  -------         ENDPROC       _BEEP_STARTPLAY
  -------         PROC          KEYBEEPTASK
  C:8A37H         LINE#         355
  C:8A37H         LINE#         356
  C:8A37H         LINE#         357
  C:8A3FH         LINE#         358
  C:8A3FH         LINE#         359
  C:8A48H         LINE#         360
  C:8A48H         LINE#         361
  C:8A4AH         LINE#         362
  C:8A63H         LINE#         363
  C:8A63H         LINE#         364
  C:8A69H         LINE#         365
  C:8A6BH         LINE#         366
  C:8A6EH         LINE#         368
  C:8A6EH         LINE#         369
  C:8A70H         LINE#         370
  C:8A76H         LINE#         371
  C:8A76H         LINE#         372
  C:8A76H         LINE#         373
  -------         ENDPROC       KEYBEEPTASK
  -------         ENDMOD        AUDIO

  -------         MODULE        UART
  C:0000H         SYMBOL        _ICE_DUMMY_
  C:2146H         PUBLIC        _UART_Configuration
  D:0080H         PUBLIC        P0
  D:0090H         PUBLIC        P1
  D:00A0H         PUBLIC        P2
  D:00B0H         PUBLIC        P3
  D:00C0H         PUBLIC        P4
  D:00C8H         PUBLIC        P5
  D:00E8H         PUBLIC        P6
  D:00F8H         PUBLIC        P7
  D:00A2H         PUBLIC        P_SW1
  D:00BAH         PUBLIC        P_SW2
  D:00A8H         PUBLIC        IE
  X:0CA4H         PUBLIC        COM1
  X:0CACH         PUBLIC        COM3
  D:00EEH         PUBLIC        IP3H
  B:00A8H.4       PUBLIC        ES
  D:00B8H         PUBLIC        IP
BL51 BANKED LINKER/LOCATER V6.22.2.0                                                  06/01/2022  09:37:04  PAGE 125


  X:0CB4H         PUBLIC        RX1_Buffer
  B:0098H.0       PUBLIC        RI
  C:7A32H         PUBLIC        UART1_int
  X:0EB4H         PUBLIC        RX3_Buffer
  X:0F34H         PUBLIC        TX1_Buffer
  B:0098H.1       PUBLIC        TI
  C:77D2H         PUBLIC        UART3_int
  X:0FFCH         PUBLIC        TX3_Buffer
  B:00B8H.4       PUBLIC        PS
  D:00D8H         PUBLIC        CCON
  D:0099H         PUBLIC        SBUF
  D:0087H         PUBLIC        PCON
  C:8968H         PUBLIC        UartTask
  D:0098H         PUBLIC        SCON
  D:0089H         PUBLIC        TMOD
  D:0088H         PUBLIC        TCON
  C:955FH         PUBLIC        Uart1Clear
  C:9578H         PUBLIC        Uart3Clear
  C:8C78H         PUBLIC        _PrintString3
  D:00AFH         PUBLIC        IE2
  D:00F0H         PUBLIC        B
  D:008EH         PUBLIC        AUXR
  C:9059H         PUBLIC        _TX1_write2buff
  C:9031H         PUBLIC        _TX3_write2buff
  D:00E0H         PUBLIC        ACC
  B:00A8H.3       PUBLIC        ET1
  D:00DFH         PUBLIC        IP3
  D:008DH         PUBLIC        TH1
  D:00D6H         PUBLIC        TH2
  D:00D4H         PUBLIC        TH3
  D:008BH         PUBLIC        TL1
  D:00D7H         PUBLIC        TL2
  D:00D5H         PUBLIC        TL3
  B:0088H.6       PUBLIC        TR1
  D:00D1H         PUBLIC        T4T3M
  D:00B7H         PUBLIC        IPH
  D:00ADH         PUBLIC        S3BUF
  B:0098H.4       PUBLIC        REN
  D:00ACH         PUBLIC        S3CON
  D:008FH         PUBLIC        INT_CLKO
  D:00D0H         PUBLIC        PSW
  -------         PROC          _UART_CONFIGURATION
  X:1088H         SYMBOL        UARTx
  X:1089H         SYMBOL        COMx
  -------         DO            
  X:108CH         SYMBOL        i
  X:108EH         SYMBOL        j
  -------         ENDDO         
  C:2146H         LINE#         26
  C:2156H         LINE#         27
  C:2156H         LINE#         32
  C:215DH         LINE#         33
  C:215DH         LINE#         34
  C:2162H         LINE#         35
  C:2165H         LINE#         36
  C:2167H         LINE#         37
  C:2169H         LINE#         38
BL51 BANKED LINKER/LOCATER V6.22.2.0                                                  06/01/2022  09:37:04  PAGE 126


  C:216DH         LINE#         39
  C:216FH         LINE#         40
  C:2171H         LINE#         41
  C:21A3H         LINE#         42
  C:21D4H         LINE#         44
  C:21EEH         LINE#         45
  C:221CH         LINE#         46
  C:2227H         LINE#         47
  C:2232H         LINE#         48
  C:223FH         LINE#         49
  C:223FH         LINE#         50
  C:2256H         LINE#         51
  C:2273H         LINE#         52
  C:2295H         LINE#         53
  C:22ABH         LINE#         54
  C:22ABH         LINE#         55
  C:22ADH         LINE#         56
  C:22B0H         LINE#         57
  C:22B3H         LINE#         58
  C:22B6H         LINE#         59
  C:22B9H         LINE#         60
  C:22CEH         LINE#         61
  C:22D7H         LINE#         62
  C:22D9H         LINE#         63
  C:22DCH         LINE#         64
  C:22DFH         LINE#         65
  C:22E1H         LINE#         66
  C:22E3H         LINE#         67
  C:22E8H         LINE#         68
  C:22E8H         LINE#         69
  C:22EBH         LINE#         70
  C:22EEH         LINE#         71
  C:22F1H         LINE#         72
  C:22F4H         LINE#         73
  C:2309H         LINE#         74
  C:2312H         LINE#         75
  C:2315H         LINE#         76
  C:2318H         LINE#         77
  C:231AH         LINE#         78
  C:231DH         LINE#         79
  C:231DH         LINE#         80
  C:232EH         LINE#         81
  C:232EH         LINE#         82
  C:233CH         LINE#         83
  C:233FH         LINE#         84
  C:2341H         LINE#         85
  C:2345H         LINE#         86
  C:2345H         LINE#         87
  C:2353H         LINE#         88
  C:2356H         LINE#         89
  C:2356H         LINE#         90
  C:236EH         LINE#         91
  C:2370H         LINE#         92
  C:237DH         LINE#         93
  C:237FH         LINE#         94
  C:238FH         LINE#         95
  C:2392H         LINE#         96
BL51 BANKED LINKER/LOCATER V6.22.2.0                                                  06/01/2022  09:37:04  PAGE 127


  C:2392H         LINE#         138
  C:239DH         LINE#         139
  C:239DH         LINE#         140
  C:23A3H         LINE#         141
  C:23A6H         LINE#         142
  C:23A8H         LINE#         143
  C:23AAH         LINE#         144
  C:23AEH         LINE#         145
  C:23B0H         LINE#         146
  C:23B2H         LINE#         147
  C:23E4H         LINE#         148
  C:2417H         LINE#         150
  C:2432H         LINE#         151
  C:2432H         LINE#         152
  C:2441H         LINE#         153
  C:2473H         LINE#         154
  C:247EH         LINE#         155
  C:2481H         LINE#         156
  C:2498H         LINE#         157
  C:24B5H         LINE#         158
  C:24D7H         LINE#         159
  C:24ECH         LINE#         160
  C:24ECH         LINE#         161
  C:24EFH         LINE#         162
  C:2504H         LINE#         163
  C:250DH         LINE#         164
  C:2510H         LINE#         165
  C:2512H         LINE#         166
  C:2517H         LINE#         167
  C:2517H         LINE#         168
  C:251AH         LINE#         169
  C:251DH         LINE#         170
  C:2520H         LINE#         171
  C:2523H         LINE#         172
  C:2538H         LINE#         173
  C:2541H         LINE#         174
  C:2544H         LINE#         175
  C:2547H         LINE#         176
  C:2549H         LINE#         177
  C:254CH         LINE#         178
  C:254CH         LINE#         179
  C:254FH         LINE#         180
  C:2568H         LINE#         181
  C:256BH         LINE#         182
  C:2579H         LINE#         183
  C:257CH         LINE#         184
  C:258CH         LINE#         185
  C:258FH         LINE#         186
  C:258FH         LINE#         239
  C:2591H         LINE#         240
  -------         ENDPROC       _UART_CONFIGURATION
  -------         PROC          _TX1_WRITE2BUFF
  D:0007H         SYMBOL        dat
  C:9059H         LINE#         246
  C:9059H         LINE#         247
  C:9059H         LINE#         248
  C:9068H         LINE#         249
BL51 BANKED LINKER/LOCATER V6.22.2.0                                                  06/01/2022  09:37:04  PAGE 128


  C:9075H         LINE#         251
  C:907BH         LINE#         252
  C:907BH         LINE#         253
  C:907DH         LINE#         254
  C:907FH         LINE#         255
  C:907FH         LINE#         256
  -------         ENDPROC       _TX1_WRITE2BUFF
  -------         PROC          UART1_INT
  C:7A32H         LINE#         263
  C:7A45H         LINE#         265
  C:7A48H         LINE#         266
  C:7A48H         LINE#         267
  C:7A4AH         LINE#         268
  C:7A50H         LINE#         269
  C:7A50H         LINE#         270
  C:7A5DH         LINE#         271
  C:7A76H         LINE#         272
  C:7A7CH         LINE#         273
  C:7A7CH         LINE#         274
  C:7A7CH         LINE#         276
  C:7A7FH         LINE#         277
  C:7A7FH         LINE#         278
  C:7A81H         LINE#         279
  C:7A8EH         LINE#         280
  C:7A8EH         LINE#         281
  C:7A9BH         LINE#         282
  C:7AA8H         LINE#         283
  C:7AAAH         LINE#         284
  C:7AAFH         LINE#         285
  C:7AAFH         LINE#         286
  -------         ENDPROC       UART1_INT
  -------         PROC          UART1CLEAR
  C:955FH         LINE#         288
  C:955FH         LINE#         289
  C:955FH         LINE#         290
  C:956CH         LINE#         291
  C:9571H         LINE#         292
  C:9577H         LINE#         293
  -------         ENDPROC       UART1CLEAR
  -------         PROC          _TX3_WRITE2BUFF
  D:0007H         SYMBOL        dat
  C:9031H         LINE#         343
  C:9031H         LINE#         344
  C:9031H         LINE#         345
  C:9040H         LINE#         346
  C:904DH         LINE#         348
  C:9053H         LINE#         349
  C:9053H         LINE#         350
  C:9055H         LINE#         351
  C:9058H         LINE#         352
  C:9058H         LINE#         353
  -------         ENDPROC       _TX3_WRITE2BUFF
  -------         PROC          _PRINTSTRING3
  X:1099H         SYMBOL        puts
  C:8C78H         LINE#         355
  C:8C83H         LINE#         356
  C:8C83H         LINE#         357
BL51 BANKED LINKER/LOCATER V6.22.2.0                                                  06/01/2022  09:37:04  PAGE 129


  C:8C93H         LINE#         358
  C:8C93H         LINE#         359
  C:8CA8H         LINE#         360
  C:8CAAH         LINE#         361
  -------         ENDPROC       _PRINTSTRING3
  -------         PROC          UART3_INT
  C:77D2H         LINE#         363
  C:77E5H         LINE#         365
  C:77EAH         LINE#         366
  C:77EAH         LINE#         367
  C:77EDH         LINE#         368
  C:77F3H         LINE#         369
  C:77F3H         LINE#         370
  C:7806H         LINE#         371
  C:781FH         LINE#         372
  C:7825H         LINE#         377
  C:7825H         LINE#         378
  C:7825H         LINE#         380
  C:782AH         LINE#         381
  C:782AH         LINE#         382
  C:782DH         LINE#         383
  C:783AH         LINE#         384
  C:783AH         LINE#         385
  C:7847H         LINE#         386
  C:7854H         LINE#         387
  C:7856H         LINE#         388
  C:785BH         LINE#         389
  C:785BH         LINE#         390
  -------         ENDPROC       UART3_INT
  -------         PROC          UART3CLEAR
  C:9578H         LINE#         392
  C:9578H         LINE#         393
  C:9578H         LINE#         394
  C:9585H         LINE#         395
  C:958AH         LINE#         396
  C:9590H         LINE#         397
  -------         ENDPROC       UART3CLEAR
  -------         PROC          UARTTASK
  C:8968H         LINE#         463
  C:8968H         LINE#         464
  C:8968H         LINE#         466
  C:896EH         LINE#         467
  C:896EH         LINE#         468
  C:8972H         LINE#         469
  C:8972H         LINE#         470
  C:8981H         LINE#         471
  C:8981H         LINE#         472
  C:8987H         LINE#         473
  C:8989H         LINE#         475
  C:8989H         LINE#         476
  C:898CH         LINE#         477
  C:898CH         LINE#         478
  C:898CH         LINE#         479
  C:898CH         LINE#         482
  C:8992H         LINE#         483
  C:8992H         LINE#         484
  C:8996H         LINE#         485
BL51 BANKED LINKER/LOCATER V6.22.2.0                                                  06/01/2022  09:37:04  PAGE 130


  C:8996H         LINE#         486
  C:89A5H         LINE#         487
  C:89A5H         LINE#         488
  C:89ABH         LINE#         489
  C:89ACH         LINE#         491
  C:89ACH         LINE#         492
  C:89AFH         LINE#         493
  C:89AFH         LINE#         494
  C:89AFH         LINE#         495
  C:89AFH         LINE#         513
  -------         ENDPROC       UARTTASK
  -------         ENDMOD        UART

  -------         MODULE        TIMER
  C:0000H         SYMBOL        _ICE_DUMMY_
  D:0080H         PUBLIC        P0
  D:0090H         PUBLIC        P1
  C:004EH         PUBLIC        timer0_int
  D:00A0H         PUBLIC        P2
  C:8EE5H         PUBLIC        timer1_int
  D:00B0H         PUBLIC        P3
  D:00C0H         PUBLIC        P4
  D:00C8H         PUBLIC        P5
  C:8B2DH         PUBLIC        timer4_int
  D:00E8H         PUBLIC        P6
  D:00F8H         PUBLIC        P7
  D:00A8H         PUBLIC        IE
  D:00B8H         PUBLIC        IP
  D:00D8H         PUBLIC        CCON
  D:0098H         PUBLIC        SCON
  D:0089H         PUBLIC        TMOD
  D:0088H         PUBLIC        TCON
  B:00E8H.2       PUBLIC        P62
  C:4E59H         PUBLIC        _Timer_Inilize
  D:00AFH         PUBLIC        IE2
  D:00F0H         PUBLIC        B
  D:008EH         PUBLIC        AUXR
  B:0023H.3       PUBLIC        Timer0_Irq
  D:00E0H         PUBLIC        ACC
  B:00A8H.1       PUBLIC        ET0
  B:00A8H.3       PUBLIC        ET1
  D:008CH         PUBLIC        TH0
  D:008DH         PUBLIC        TH1
  D:00D2H         PUBLIC        TH4
  D:008AH         PUBLIC        TL0
  D:008BH         PUBLIC        TL1
  B:00B8H.1       PUBLIC        PT0
  D:00D3H         PUBLIC        TL4
  B:00B8H.3       PUBLIC        PT1
  B:0088H.4       PUBLIC        TR0
  B:0088H.6       PUBLIC        TR1
  D:00D1H         PUBLIC        T4T3M
  D:00B7H         PUBLIC        IPH
  D:008FH         PUBLIC        INT_CLKO
  X:13A3H         PUBLIC        usTime
  D:00D0H         PUBLIC        PSW
  -------         PROC          TIMER0_INT
BL51 BANKED LINKER/LOCATER V6.22.2.0                                                  06/01/2022  09:37:04  PAGE 131


  C:004EH         LINE#         9
  C:006BH         LINE#         11
  C:006DH         LINE#         13
  C:0070H         LINE#         15
  -------         ENDPROC       TIMER0_INT
  -------         PROC          TIMER1_INT
  C:8EE5H         LINE#         20
  C:8EEDH         LINE#         22
  C:8EF3H         LINE#         24
  C:8EFEH         LINE#         25
  C:8EFEH         LINE#         26
  C:8F00H         LINE#         27
  C:8F08H         LINE#         28
  C:8F08H         LINE#         30
  -------         ENDPROC       TIMER1_INT
  -------         PROC          TIMER4_INT
  C:8B2DH         LINE#         48
  C:8B4AH         LINE#         51
  C:8B4DH         LINE#         53
  -------         ENDPROC       TIMER4_INT
  -------         PROC          _TIMER_INILIZE
  D:0005H         SYMBOL        TIM
  D:0001H         SYMBOL        TIMx
  C:4E59H         LINE#         63
  C:4E5BH         LINE#         64
  C:4E5BH         LINE#         66
  C:4E61H         LINE#         67
  C:4E61H         LINE#         68
  C:4E63H         LINE#         69
  C:4E70H         LINE#         70
  C:4E72H         LINE#         71
  C:4E81H         LINE#         72
  C:4EAFH         LINE#         74
  C:4EBBH         LINE#         75
  C:4EC2H         LINE#         76
  C:4ECFH         LINE#         77
  C:4ED5H         LINE#         78
  C:4EDEH         LINE#         79
  C:4EE1H         LINE#         80
  C:4EEFH         LINE#         81
  C:4EF2H         LINE#         83
  C:4F04H         LINE#         84
  C:4F0FH         LINE#         85
  C:4F12H         LINE#         86
  C:4F12H         LINE#         89
  C:4F1AH         LINE#         90
  C:4F1AH         LINE#         91
  C:4F1CH         LINE#         92
  C:4F29H         LINE#         93
  C:4F2BH         LINE#         94
  C:4F3AH         LINE#         95
  C:4F68H         LINE#         96
  C:4F74H         LINE#         97
  C:4F7BH         LINE#         98
  C:4F88H         LINE#         99
  C:4F8EH         LINE#         100
  C:4F97H         LINE#         101
BL51 BANKED LINKER/LOCATER V6.22.2.0                                                  06/01/2022  09:37:04  PAGE 132


  C:4F9AH         LINE#         102
  C:4FA8H         LINE#         103
  C:4FABH         LINE#         105
  C:4FBDH         LINE#         106
  C:4FC8H         LINE#         107
  C:4FCBH         LINE#         108
  C:4FCBH         LINE#         149
  C:4FD0H         LINE#         150
  C:4FD0H         LINE#         151
  C:4FD3H         LINE#         152
  C:4FE1H         LINE#         153
  C:4FE4H         LINE#         154
  C:4FF3H         LINE#         155
  C:4FFAH         LINE#         156
  C:5005H         LINE#         157
  C:5013H         LINE#         158
  C:5016H         LINE#         159
  C:5024H         LINE#         160
  C:5027H         LINE#         162
  C:5037H         LINE#         163
  C:5043H         LINE#         164
  C:5046H         LINE#         165
  C:5046H         LINE#         167
  C:5048H         LINE#         168
  -------         ENDPROC       _TIMER_INILIZE
  -------         ENDMOD        TIMER

  -------         MODULE        GPIO
  C:0000H         SYMBOL        _ICE_DUMMY_
  D:0093H         PUBLIC        P0M1
  D:0092H         PUBLIC        P1M0
  D:0096H         PUBLIC        P2M0
  D:0091H         PUBLIC        P1M1
  D:0080H         PUBLIC        P0
  D:00B2H         PUBLIC        P3M0
  D:0095H         PUBLIC        P2M1
  D:0090H         PUBLIC        P1
  D:00B4H         PUBLIC        P4M0
  D:00B1H         PUBLIC        P3M1
  D:00A0H         PUBLIC        P2
  D:00CAH         PUBLIC        P5M0
  D:00B3H         PUBLIC        P4M1
  D:00B0H         PUBLIC        P3
  D:00CCH         PUBLIC        P6M0
  D:00C9H         PUBLIC        P5M1
  D:00C0H         PUBLIC        P4
  D:00E2H         PUBLIC        P7M0
  D:00CBH         PUBLIC        P6M1
  D:00C8H         PUBLIC        P5
  D:00E8H         PUBLIC        P6
  D:00E1H         PUBLIC        P7M1
  D:00F8H         PUBLIC        P7
  D:00A8H         PUBLIC        IE
  D:00B8H         PUBLIC        IP
  D:00D8H         PUBLIC        CCON
  D:0098H         PUBLIC        SCON
  D:0088H         PUBLIC        TCON
BL51 BANKED LINKER/LOCATER V6.22.2.0                                                  06/01/2022  09:37:04  PAGE 133


  D:00F0H         PUBLIC        B
  D:00E0H         PUBLIC        ACC
  C:4326H         PUBLIC        _GPIO_Inilize
  D:00D0H         PUBLIC        PSW
  D:0094H         PUBLIC        P0M0
  -------         PROC          _GPIO_INILIZE
  D:0007H         SYMBOL        GPIO
  D:0001H         SYMBOL        GPIOx
  C:4326H         LINE#         10
  C:4326H         LINE#         11
  C:4326H         LINE#         12
  C:432FH         LINE#         13
  C:433BH         LINE#         14
  C:433EH         LINE#         15
  C:433EH         LINE#         16
  C:434CH         LINE#         17
  C:435DH         LINE#         18
  C:436EH         LINE#         19
  C:437FH         LINE#         20
  C:437FH         LINE#         21
  C:4384H         LINE#         22
  C:4384H         LINE#         23
  C:4395H         LINE#         24
  C:43A4H         LINE#         25
  C:43B4H         LINE#         26
  C:43C7H         LINE#         27
  C:43C7H         LINE#         28
  C:43CCH         LINE#         29
  C:43CCH         LINE#         30
  C:43DDH         LINE#         31
  C:43ECH         LINE#         32
  C:43FCH         LINE#         33
  C:440FH         LINE#         34
  C:440FH         LINE#         35
  C:4414H         LINE#         36
  C:4414H         LINE#         37
  C:4425H         LINE#         38
  C:4434H         LINE#         39
  C:4444H         LINE#         40
  C:4457H         LINE#         41
  C:4457H         LINE#         42
  C:445CH         LINE#         43
  C:445CH         LINE#         44
  C:446DH         LINE#         45
  C:447CH         LINE#         46
  C:448CH         LINE#         47
  C:449FH         LINE#         48
  C:449FH         LINE#         49
  C:44A4H         LINE#         50
  C:44A4H         LINE#         51
  C:44B5H         LINE#         52
  C:44C4H         LINE#         53
  C:44D4H         LINE#         54
  C:44E7H         LINE#         55
  C:44E7H         LINE#         56
  C:44ECH         LINE#         57
  C:44ECH         LINE#         58
BL51 BANKED LINKER/LOCATER V6.22.2.0                                                  06/01/2022  09:37:04  PAGE 134


  C:44FDH         LINE#         59
  C:450CH         LINE#         60
  C:451CH         LINE#         61
  C:452FH         LINE#         62
  C:452FH         LINE#         63
  C:4534H         LINE#         64
  C:4534H         LINE#         65
  C:4545H         LINE#         66
  C:4554H         LINE#         67
  C:4564H         LINE#         68
  C:4577H         LINE#         69
  C:4577H         LINE#         70
  C:4579H         LINE#         71
  -------         ENDPROC       _GPIO_INILIZE
  -------         ENDMOD        GPIO

  -------         MODULE        EXTI
  C:0000H         SYMBOL        _ICE_DUMMY_
  D:0080H         PUBLIC        P0
  D:0090H         PUBLIC        P1
  D:00A0H         PUBLIC        P2
  D:00B0H         PUBLIC        P3
  D:00C0H         PUBLIC        P4
  D:00C8H         PUBLIC        P5
  D:00E8H         PUBLIC        P6
  D:00F8H         PUBLIC        P7
  D:00A8H         PUBLIC        IE
  D:00B8H         PUBLIC        IP
  D:00D8H         PUBLIC        CCON
  C:8A77H         PUBLIC        Ext_INT0
  D:0098H         PUBLIC        SCON
  D:0088H         PUBLIC        TCON
  B:0088H.1       PUBLIC        IE0
  D:00F0H         PUBLIC        B
  D:00E0H         PUBLIC        ACC
  B:00A8H.0       PUBLIC        EX0
  B:0088H.0       PUBLIC        IT0
  B:00B8H.0       PUBLIC        PX0
  D:00B7H         PUBLIC        IPH
  C:8636H         PUBLIC        _Ext_Inilize
  D:00D0H         PUBLIC        PSW
  -------         PROC          EXT_INT0
  C:8A77H         LINE#         8
  C:8A94H         LINE#         11
  C:8A97H         LINE#         12
  C:8A9CH         LINE#         13
  -------         ENDPROC       EXT_INT0
  -------         PROC          _EXT_INILIZE
  D:0007H         SYMBOL        EXT
  D:0001H         SYMBOL        INTx
  C:8636H         LINE#         51
  C:8636H         LINE#         52
  C:8636H         LINE#         55
  C:8639H         LINE#         56
  C:8639H         LINE#         57
  C:863BH         LINE#         58
  C:8648H         LINE#         59
BL51 BANKED LINKER/LOCATER V6.22.2.0                                                  06/01/2022  09:37:04  PAGE 135


  C:864AH         LINE#         60
  C:8659H         LINE#         61
  C:8687H         LINE#         62
  C:8691H         LINE#         63
  C:8693H         LINE#         64
  C:8696H         LINE#         65
  C:8696H         LINE#         104
  C:8698H         LINE#         105
  -------         ENDPROC       _EXT_INILIZE
  -------         ENDMOD        EXTI

  -------         MODULE        SPI
  C:0000H         SYMBOL        _ICE_DUMMY_
  D:0080H         PUBLIC        P0
  D:0090H         PUBLIC        P1
  C:891FH         PUBLIC        SPI_Transivion
  D:00A0H         PUBLIC        P2
  D:00B0H         PUBLIC        P3
  D:00C0H         PUBLIC        P4
  D:00C8H         PUBLIC        P5
  D:00E8H         PUBLIC        P6
  D:00F8H         PUBLIC        P7
  D:00CEH         PUBLIC        SPCTL
  D:00A2H         PUBLIC        P_SW1
  D:00A8H         PUBLIC        IE
  B:0023H.4       PUBLIC        B_SPI_Busy
  D:00B8H         PUBLIC        IP
  C:786CH         PUBLIC        _SPI_Flash_Read
  D:00D8H         PUBLIC        CCON
  D:0098H         PUBLIC        SCON
  D:0088H         PUBLIC        TCON
  B:00F8H.4       PUBLIC        P74
  X:114DH         PUBLIC        SPI_RxCnt
  D:00AFH         PUBLIC        IE2
  D:00F0H         PUBLIC        B
  D:00E0H         PUBLIC        ACC
  X:114EH         PUBLIC        SPI_RxTimerOut
  D:00CDH         PUBLIC        SPSTAT
  C:7905H         PUBLIC        _SPI_Init
  C:94D7H         PUBLIC        _SPI_ReadWriteByte
  X:114FH         PUBLIC        SPI_RxBuffer
  D:00D0H         PUBLIC        PSW
  D:00CFH         PUBLIC        SPDAT
  -------         PROC          _SPI_INIT
  D:0001H         SYMBOL        SPIx
  C:7905H         LINE#         29
  C:7905H         LINE#         30
  C:7905H         LINE#         31
  C:7913H         LINE#         32
  C:7916H         LINE#         33
  C:7921H         LINE#         34
  C:7924H         LINE#         35
  C:7932H         LINE#         36
  C:7935H         LINE#         37
  C:7942H         LINE#         38
  C:7945H         LINE#         39
  C:7953H         LINE#         40
BL51 BANKED LINKER/LOCATER V6.22.2.0                                                  06/01/2022  09:37:04  PAGE 136


  C:7956H         LINE#         41
  C:7963H         LINE#         42
  C:7966H         LINE#         43
  C:7974H         LINE#         44
  C:7977H         LINE#         45
  C:7987H         LINE#         46
  C:7995H         LINE#         48
  C:799AH         LINE#         49
  C:799CH         LINE#         50
  -------         ENDPROC       _SPI_INIT
  -------         PROC          SPI_TRANSIVION
  C:891FH         LINE#         96
  C:892CH         LINE#         98
  C:8931H         LINE#         99
  C:8931H         LINE#         100
  C:8933H         LINE#         101
  C:8935H         LINE#         103
  C:8935H         LINE#         104
  C:8940H         LINE#         105
  C:8954H         LINE#         106
  C:895AH         LINE#         107
  C:895AH         LINE#         108
  C:895DH         LINE#         109
  -------         ENDPROC       SPI_TRANSIVION
  -------         PROC          L?0028
  -------         ENDPROC       L?0028
  -------         PROC          _SPI_READWRITEBYTE
  D:0007H         SYMBOL        dat
  C:94D7H         LINE#         111
  C:94D7H         LINE#         112
  C:94D7H         LINE#         113
  C:94D9H         LINE#         114
  C:94DBH         LINE#         115
  C:94DEH         LINE#         116
  C:94E0H         LINE#         117
  C:94E0H         LINE#         118
  -------         ENDPROC       _SPI_READWRITEBYTE
  -------         PROC          _SPI_FLASH_READ
  X:112CH         SYMBOL        pBuffer
  X:112FH         SYMBOL        ReadAddr
  X:1133H         SYMBOL        NumByteToRead
  -------         DO            
  X:1135H         SYMBOL        i
  X:1137H         SYMBOL        tmp
  -------         ENDDO         
  C:786CH         LINE#         139
  C:787BH         LINE#         140
  C:787BH         LINE#         141
  C:787BH         LINE#         142
  C:787DH         LINE#         143
  C:7884H         LINE#         144
  C:7889H         LINE#         145
  C:788EH         LINE#         146
  C:7893H         LINE#         147
  C:789EH         LINE#         148
  C:78BAH         LINE#         149
  C:78BAH         LINE#         150
BL51 BANKED LINKER/LOCATER V6.22.2.0                                                  06/01/2022  09:37:04  PAGE 137


  C:78CBH         LINE#         151
  C:78F2H         LINE#         152
  C:7902H         LINE#         153
  C:7904H         LINE#         154
  -------         ENDPROC       _SPI_FLASH_READ
  -------         ENDMOD        SPI

  -------         MODULE        ?C?COPY
  C:09B6H         PUBLIC        ?C?COPY
  -------         ENDMOD        ?C?COPY

  -------         MODULE        ?C?CLDPTR
  C:09DCH         PUBLIC        ?C?CLDPTR
  -------         ENDMOD        ?C?CLDPTR

  -------         MODULE        ?C?CLDOPTR
  C:09F5H         PUBLIC        ?C?CLDOPTR
  -------         ENDMOD        ?C?CLDOPTR

  -------         MODULE        ?C?CSTPTR
  C:0A22H         PUBLIC        ?C?CSTPTR
  -------         ENDMOD        ?C?CSTPTR

  -------         MODULE        ?C?CSTOPTR
  C:0A34H         PUBLIC        ?C?CSTOPTR
  -------         ENDMOD        ?C?CSTOPTR

  -------         MODULE        ?C?IMUL
  C:0A56H         PUBLIC        ?C?IMUL
  -------         ENDMOD        ?C?IMUL

  -------         MODULE        ?C?UIDIV
  C:0A68H         PUBLIC        ?C?UIDIV
  -------         ENDMOD        ?C?UIDIV

  -------         MODULE        ?C?IILDX
  C:0ABDH         PUBLIC        ?C?IILDX
  -------         ENDMOD        ?C?IILDX

  -------         MODULE        ?C?ILDIX
  C:0AD3H         PUBLIC        ?C?ILDIX
  -------         ENDMOD        ?C?ILDIX

  -------         MODULE        ?C?ILDPTR
  C:0AE9H         PUBLIC        ?C?ILDPTR
  -------         ENDMOD        ?C?ILDPTR

  -------         MODULE        ?C?ILDOPTR
  C:0B14H         PUBLIC        ?C?ILDOPTR
  -------         ENDMOD        ?C?ILDOPTR

  -------         MODULE        ?C?LMUL
  C:0B4CH         PUBLIC        ?C?LMUL
  -------         ENDMOD        ?C?LMUL

  -------         MODULE        ?C?ULDIV
  C:0BD7H         PUBLIC        ?C?ULDIV
BL51 BANKED LINKER/LOCATER V6.22.2.0                                                  06/01/2022  09:37:04  PAGE 138


  -------         ENDMOD        ?C?ULDIV

  -------         MODULE        ?C?ULCMP
  C:0C69H         PUBLIC        ?C?ULCMP
  -------         ENDMOD        ?C?ULCMP

  -------         MODULE        ?C?ULSHR
  C:0C7AH         PUBLIC        ?C?ULSHR
  -------         ENDMOD        ?C?ULSHR

  -------         MODULE        ?C?LSHL
  C:0C8DH         PUBLIC        ?C?LSHL
  -------         ENDMOD        ?C?LSHL

  -------         MODULE        ?C?LLDOPTR
  C:0CA0H         PUBLIC        ?C?LLDOPTR
  -------         ENDMOD        ?C?LLDOPTR

  -------         MODULE        ?C?LLDOPTR0
  C:0CD0H         PUBLIC        ?C?LLDOPTR0
  -------         ENDMOD        ?C?LLDOPTR0

  -------         MODULE        ?C?LSTXDATA
  C:0D00H         PUBLIC        ?C?LSTXDATA
  -------         ENDMOD        ?C?LSTXDATA

  -------         MODULE        ?C?LSTKXDATA
  C:0D0CH         PUBLIC        ?C?LSTKXDATA
  -------         ENDMOD        ?C?LSTKXDATA

  -------         MODULE        ?C?OFFXADD
  C:0D3DH         PUBLIC        ?C?OFFXADD
  -------         ENDMOD        ?C?OFFXADD

  -------         MODULE        ?C?CCASE
  C:0D49H         PUBLIC        ?C?CCASE
  -------         ENDMOD        ?C?CCASE

  -------         MODULE        ?C?ICALL
  C:0D6FH         PUBLIC        ?C?ICALL
  C:0D73H         PUBLIC        ?C?ICALL2
  -------         ENDMOD        ?C?ICALL

  -------         MODULE        PRINTF
  X:1124H         PUBLIC        ?_PRINTF517?BYTE
  X:1124H         PUBLIC        ?_PRINTF?BYTE
  X:1124H         PUBLIC        ?_SPRINTF517?BYTE
  X:1124H         PUBLIC        ?_SPRINTF?BYTE
  C:2E26H         PUBLIC        _PRINTF
  C:2E26H         PUBLIC        _PRINTF517
  C:2E20H         PUBLIC        _SPRINTF
  C:2E20H         PUBLIC        _SPRINTF517
  -------         ENDMOD        PRINTF

  -------         MODULE        SCANF
  X:10D5H         PUBLIC        ?_SCANF517?BYTE
  X:10D5H         PUBLIC        ?_SCANF?BYTE
BL51 BANKED LINKER/LOCATER V6.22.2.0                                                  06/01/2022  09:37:04  PAGE 139


  X:10D5H         PUBLIC        ?_SSCANF517?BYTE
  X:10D5H         PUBLIC        ?_SSCANF?BYTE
  C:3B5DH         PUBLIC        _SCANF
  C:3B5DH         PUBLIC        _SCANF517
  C:3B59H         PUBLIC        _SSCANF
  C:3B59H         PUBLIC        _SSCANF517
  -------         ENDMOD        SCANF

  -------         MODULE        ?C?ISTPTR
  C:0D75H         PUBLIC        ?C?ISTPTR
  -------         ENDMOD        ?C?ISTPTR

  -------         MODULE        ?C?LNEG
  C:0D94H         PUBLIC        ?C?LNEG
  -------         ENDMOD        ?C?LNEG

  -------         MODULE        ?C?LSTPTR
  C:0DA2H         PUBLIC        ?C?LSTPTR
  -------         ENDMOD        ?C?LSTPTR

  -------         MODULE        ?C?LLDIDATA
  C:0DBCH         PUBLIC        ?C?LLDIDATA
  -------         ENDMOD        ?C?LLDIDATA

  -------         MODULE        ?C?LLDXDATA
  C:0DC8H         PUBLIC        ?C?LLDXDATA
  -------         ENDMOD        ?C?LLDXDATA

  -------         MODULE        ?C?LLDPDATA
  C:0DD4H         PUBLIC        ?C?LLDPDATA
  -------         ENDMOD        ?C?LLDPDATA

  -------         MODULE        ?C?LLDCODE
  C:0DE0H         PUBLIC        ?C?LLDCODE
  -------         ENDMOD        ?C?LLDCODE

  -------         MODULE        ?C?LLDIDATA0
  C:0DF0H         PUBLIC        ?C?LLDIDATA0
  -------         ENDMOD        ?C?LLDIDATA0

  -------         MODULE        ?C?LLDXDATA0
  C:0DFDH         PUBLIC        ?C?LLDXDATA0
  -------         ENDMOD        ?C?LLDXDATA0

  -------         MODULE        ?C?LLDPDATA0
  C:0E09H         PUBLIC        ?C?LLDPDATA0
  -------         ENDMOD        ?C?LLDPDATA0

  -------         MODULE        ?C?LLDCODE0
  C:0E16H         PUBLIC        ?C?LLDCODE0
  -------         ENDMOD        ?C?LLDCODE0

  -------         MODULE        ?C?PLDXDATA
  C:0E26H         PUBLIC        ?C?PLDXDATA
  -------         ENDMOD        ?C?PLDXDATA

  -------         MODULE        ?C?PLDIXDATA
BL51 BANKED LINKER/LOCATER V6.22.2.0                                                  06/01/2022  09:37:04  PAGE 140


  C:0E2FH         PUBLIC        ?C?PLDIXDATA
  -------         ENDMOD        ?C?PLDIXDATA

  -------         MODULE        ?C?PILDXDATA
  C:0E46H         PUBLIC        ?C?PILDXDATA
  -------         ENDMOD        ?C?PILDXDATA

  -------         MODULE        ?C?PSTXDATA
  C:0E5DH         PUBLIC        ?C?PSTXDATA
  -------         ENDMOD        ?C?PSTXDATA

  -------         MODULE        GETCHAR
  B:0023H.5       PUBLIC        ?C?CHARLOADED
  X:13A4H         PUBLIC        ?_UNGETCHAR?BYTE
  C:96C9H         PUBLIC        GETCHAR
  -------         ENDMOD        GETCHAR

  -------         MODULE        UNGETC
  C:9827H         PUBLIC        _UNGETCHAR
  -------         ENDMOD        UNGETC

  -------         MODULE        ISSPACE
  C:96DDH         PUBLIC        _isspace
  -------         ENDMOD        ISSPACE

  -------         MODULE        ?C?LSTIDATA
  C:0E66H         PUBLIC        ?C?LSTIDATA
  -------         ENDMOD        ?C?LSTIDATA

  -------         MODULE        ?C?LSTPDATA
  C:0E72H         PUBLIC        ?C?LSTPDATA
  -------         ENDMOD        ?C?LSTPDATA

  -------         MODULE        _GETKEY
  C:9814H         PUBLIC        _GETKEY
  -------         ENDMOD        _GETKEY

*** WARNING L16: UNCALLED SEGMENT, IGNORED FOR OVERLAY PROCESS
    SEGMENT: ?PR?_DISPLAYCSQ?LCD12864

*** WARNING L16: UNCALLED SEGMENT, IGNORED FOR OVERLAY PROCESS
    SEGMENT: ?PR?_ATCMDCB_CLCC?GSM

*** WARNING L16: UNCALLED SEGMENT, IGNORED FOR OVERLAY PROCESS
    SEGMENT: ?PR?_GETPSWBYROOM?UNLOCKPASSWORD

Program Size: data=17.6 xdata=5029 code=38946
LINK/LOCATE RUN COMPLETE.  3 WARNING(S),  0 ERROR(S)
